
test1:     file format elf32-i386


Disassembly of section .text:

01000000 <main>:
 1000000:	55                   	push   %ebp
 1000001:	89 e5                	mov    %esp,%ebp
 1000003:	83 ec 04             	sub    $0x4,%esp
 1000006:	c7 04 24 d4 17 00 01 	movl   $0x10017d4,(%esp)
 100000d:	e8 36 01 00 00       	call   1000148 <sim_printf>
 1000012:	c7 04 24 e2 17 00 01 	movl   $0x10017e2,(%esp)
 1000019:	e8 2a 01 00 00       	call   1000148 <sim_printf>
 100001e:	c7 04 24 e8 03 00 00 	movl   $0x3e8,(%esp)
 1000025:	e8 4e 12 00 00       	call   1001278 <sleep>
 100002a:	c7 04 24 ed 17 00 01 	movl   $0x10017ed,(%esp)
 1000031:	e8 12 01 00 00       	call   1000148 <sim_printf>
 1000036:	b8 00 00 00 00       	mov    $0x0,%eax
 100003b:	c9                   	leave  
 100003c:	c3                   	ret    
 100003d:	90                   	nop
 100003e:	90                   	nop
 100003f:	90                   	nop

01000040 <_main>:
 1000040:	55                   	push   %ebp
 1000041:	89 e5                	mov    %esp,%ebp
 1000043:	83 ec 08             	sub    $0x8,%esp
 1000046:	8b 45 14             	mov    0x14(%ebp),%eax
 1000049:	89 44 24 04          	mov    %eax,0x4(%esp)
 100004d:	8b 45 10             	mov    0x10(%ebp),%eax
 1000050:	89 04 24             	mov    %eax,(%esp)
 1000053:	e8 24 12 00 00       	call   100127c <install_autostack>
 1000058:	8b 45 0c             	mov    0xc(%ebp),%eax
 100005b:	89 44 24 04          	mov    %eax,0x4(%esp)
 100005f:	8b 45 08             	mov    0x8(%ebp),%eax
 1000062:	89 04 24             	mov    %eax,(%esp)
 1000065:	e8 96 ff ff ff       	call   1000000 <main>
 100006a:	89 04 24             	mov    %eax,(%esp)
 100006d:	e8 12 11 00 00       	call   1001184 <exit>
 1000072:	90                   	nop
 1000073:	90                   	nop

01000074 <sim_fr_here>:
 1000074:	55                   	push   %ebp
 1000075:	89 e5                	mov    %esp,%ebp
 1000077:	83 ec 04             	sub    $0x4,%esp
 100007a:	c7 04 24 07 80 10 04 	movl   $0x4108007,(%esp)
 1000081:	e8 02 01 00 00       	call   1000188 <sim_call>
 1000086:	c9                   	leave  
 1000087:	c3                   	ret    

01000088 <sim_fr_prog>:
 1000088:	55                   	push   %ebp
 1000089:	89 e5                	mov    %esp,%ebp
 100008b:	83 ec 08             	sub    $0x8,%esp
 100008e:	8b 45 08             	mov    0x8(%ebp),%eax
 1000091:	89 44 24 04          	mov    %eax,0x4(%esp)
 1000095:	c7 04 24 06 80 10 04 	movl   $0x4108006,(%esp)
 100009c:	e8 e7 00 00 00       	call   1000188 <sim_call>
 10000a1:	c9                   	leave  
 10000a2:	c3                   	ret    

010000a3 <sim_ck1>:
 10000a3:	55                   	push   %ebp
 10000a4:	89 e5                	mov    %esp,%ebp
 10000a6:	83 ec 04             	sub    $0x4,%esp
 10000a9:	c7 04 24 00 80 10 04 	movl   $0x4108000,(%esp)
 10000b0:	e8 d3 00 00 00       	call   1000188 <sim_call>
 10000b5:	c9                   	leave  
 10000b6:	c3                   	ret    

010000b7 <sim_halt>:
 10000b7:	55                   	push   %ebp
 10000b8:	89 e5                	mov    %esp,%ebp
 10000ba:	83 ec 04             	sub    $0x4,%esp
 10000bd:	c7 04 24 04 00 10 04 	movl   $0x4100004,(%esp)
 10000c4:	e8 bf 00 00 00       	call   1000188 <sim_call>
 10000c9:	c9                   	leave  
 10000ca:	c3                   	ret    

010000cb <sim_breakpoint>:
 10000cb:	55                   	push   %ebp
 10000cc:	89 e5                	mov    %esp,%ebp
 10000ce:	83 ec 04             	sub    $0x4,%esp
 10000d1:	c7 04 24 03 00 10 04 	movl   $0x4100003,(%esp)
 10000d8:	e8 ab 00 00 00       	call   1000188 <sim_call>
 10000dd:	c9                   	leave  
 10000de:	c3                   	ret    

010000df <sim_puts>:
 10000df:	55                   	push   %ebp
 10000e0:	89 e5                	mov    %esp,%ebp
 10000e2:	83 ec 08             	sub    $0x8,%esp
 10000e5:	8b 45 08             	mov    0x8(%ebp),%eax
 10000e8:	89 44 24 04          	mov    %eax,0x4(%esp)
 10000ec:	c7 04 24 02 00 10 04 	movl   $0x4100002,(%esp)
 10000f3:	e8 90 00 00 00       	call   1000188 <sim_call>
 10000f8:	c9                   	leave  
 10000f9:	c3                   	ret    

010000fa <sim_memsize>:
 10000fa:	55                   	push   %ebp
 10000fb:	89 e5                	mov    %esp,%ebp
 10000fd:	83 ec 04             	sub    $0x4,%esp
 1000100:	c7 04 24 01 00 10 04 	movl   $0x4100001,(%esp)
 1000107:	e8 7c 00 00 00       	call   1000188 <sim_call>
 100010c:	c9                   	leave  
 100010d:	c3                   	ret    

0100010e <sim_in_simics>:
 100010e:	55                   	push   %ebp
 100010f:	89 e5                	mov    %esp,%ebp
 1000111:	83 ec 04             	sub    $0x4,%esp
 1000114:	c7 04 24 00 00 10 04 	movl   $0x4100000,(%esp)
 100011b:	e8 68 00 00 00       	call   1000188 <sim_call>
 1000120:	c9                   	leave  
 1000121:	c3                   	ret    

01000122 <magic_readline>:
 1000122:	55                   	push   %ebp
 1000123:	89 e5                	mov    %esp,%ebp
 1000125:	83 ec 08             	sub    $0x8,%esp
 1000128:	c7 04 24 04 80 10 04 	movl   $0x4108004,(%esp)
 100012f:	e8 54 00 00 00       	call   1000188 <sim_call>
 1000134:	8b 45 0c             	mov    0xc(%ebp),%eax
 1000137:	89 44 24 04          	mov    %eax,0x4(%esp)
 100013b:	8b 45 08             	mov    0x8(%ebp),%eax
 100013e:	89 04 24             	mov    %eax,(%esp)
 1000141:	e8 c3 10 00 00       	call   1001209 <readline>
 1000146:	c9                   	leave  
 1000147:	c3                   	ret    

01000148 <sim_printf>:
 1000148:	55                   	push   %ebp
 1000149:	89 e5                	mov    %esp,%ebp
 100014b:	53                   	push   %ebx
 100014c:	81 ec 10 01 00 00    	sub    $0x110,%esp
 1000152:	8d 45 0c             	lea    0xc(%ebp),%eax
 1000155:	89 44 24 0c          	mov    %eax,0xc(%esp)
 1000159:	8b 45 08             	mov    0x8(%ebp),%eax
 100015c:	89 44 24 08          	mov    %eax,0x8(%esp)
 1000160:	c7 44 24 04 ff 00 00 	movl   $0xff,0x4(%esp)
 1000167:	00 
 1000168:	8d 9d fc fe ff ff    	lea    -0x104(%ebp),%ebx
 100016e:	89 1c 24             	mov    %ebx,(%esp)
 1000171:	e8 4d 00 00 00       	call   10001c3 <vsnprintf>
 1000176:	89 1c 24             	mov    %ebx,(%esp)
 1000179:	e8 61 ff ff ff       	call   10000df <sim_puts>
 100017e:	81 c4 10 01 00 00    	add    $0x110,%esp
 1000184:	5b                   	pop    %ebx
 1000185:	5d                   	pop    %ebp
 1000186:	c3                   	ret    
 1000187:	90                   	nop

01000188 <sim_call>:
 1000188:	53                   	push   %ebx
 1000189:	8b 5c 24 08          	mov    0x8(%esp),%ebx
 100018d:	8b 4c 24 0c          	mov    0xc(%esp),%ecx
 1000191:	8b 54 24 10          	mov    0x10(%esp),%edx
 1000195:	b8 00 00 00 00       	mov    $0x0,%eax
 100019a:	87 db                	xchg   %ebx,%ebx
 100019c:	5b                   	pop    %ebx
 100019d:	c3                   	ret    
 100019e:	90                   	nop
 100019f:	90                   	nop

010001a0 <savechar>:
 10001a0:	55                   	push   %ebp
 10001a1:	89 e5                	mov    %esp,%ebp
 10001a3:	8b 45 08             	mov    0x8(%ebp),%eax
 10001a6:	8b 50 08             	mov    0x8(%eax),%edx
 10001a9:	83 fa ff             	cmp    $0xffffffff,%edx
 10001ac:	74 05                	je     10001b3 <savechar+0x13>
 10001ae:	3b 50 04             	cmp    0x4(%eax),%edx
 10001b1:	74 0e                	je     10001c1 <savechar+0x21>
 10001b3:	83 40 04 01          	addl   $0x1,0x4(%eax)
 10001b7:	8b 10                	mov    (%eax),%edx
 10001b9:	8b 4d 0c             	mov    0xc(%ebp),%ecx
 10001bc:	88 0a                	mov    %cl,(%edx)
 10001be:	83 00 01             	addl   $0x1,(%eax)
 10001c1:	5d                   	pop    %ebp
 10001c2:	c3                   	ret    

010001c3 <vsnprintf>:
 10001c3:	55                   	push   %ebp
 10001c4:	89 e5                	mov    %esp,%ebp
 10001c6:	83 ec 20             	sub    $0x20,%esp
 10001c9:	8b 45 0c             	mov    0xc(%ebp),%eax
 10001cc:	89 45 fc             	mov    %eax,-0x4(%ebp)
 10001cf:	c7 45 f8 00 00 00 00 	movl   $0x0,-0x8(%ebp)
 10001d6:	8b 45 08             	mov    0x8(%ebp),%eax
 10001d9:	89 45 f4             	mov    %eax,-0xc(%ebp)
 10001dc:	8d 45 f4             	lea    -0xc(%ebp),%eax
 10001df:	89 44 24 10          	mov    %eax,0x10(%esp)
 10001e3:	c7 44 24 0c a0 01 00 	movl   $0x10001a0,0xc(%esp)
 10001ea:	01 
 10001eb:	c7 44 24 08 00 00 00 	movl   $0x0,0x8(%esp)
 10001f2:	00 
 10001f3:	8b 45 14             	mov    0x14(%ebp),%eax
 10001f6:	89 44 24 04          	mov    %eax,0x4(%esp)
 10001fa:	8b 45 10             	mov    0x10(%ebp),%eax
 10001fd:	89 04 24             	mov    %eax,(%esp)
 1000200:	e8 58 01 00 00       	call   100035d <_doprnt>
 1000205:	8b 45 f4             	mov    -0xc(%ebp),%eax
 1000208:	c6 00 00             	movb   $0x0,(%eax)
 100020b:	8b 45 f8             	mov    -0x8(%ebp),%eax
 100020e:	c9                   	leave  
 100020f:	c3                   	ret    

01000210 <snprintf>:
 1000210:	55                   	push   %ebp
 1000211:	89 e5                	mov    %esp,%ebp
 1000213:	83 ec 10             	sub    $0x10,%esp
 1000216:	8d 45 14             	lea    0x14(%ebp),%eax
 1000219:	89 44 24 0c          	mov    %eax,0xc(%esp)
 100021d:	8b 45 10             	mov    0x10(%ebp),%eax
 1000220:	89 44 24 08          	mov    %eax,0x8(%esp)
 1000224:	8b 45 0c             	mov    0xc(%ebp),%eax
 1000227:	89 44 24 04          	mov    %eax,0x4(%esp)
 100022b:	8b 45 08             	mov    0x8(%ebp),%eax
 100022e:	89 04 24             	mov    %eax,(%esp)
 1000231:	e8 8d ff ff ff       	call   10001c3 <vsnprintf>
 1000236:	c9                   	leave  
 1000237:	c3                   	ret    

01000238 <vsprintf>:
 1000238:	55                   	push   %ebp
 1000239:	89 e5                	mov    %esp,%ebp
 100023b:	83 ec 20             	sub    $0x20,%esp
 100023e:	c7 45 fc ff ff ff ff 	movl   $0xffffffff,-0x4(%ebp)
 1000245:	c7 45 f8 00 00 00 00 	movl   $0x0,-0x8(%ebp)
 100024c:	8b 45 08             	mov    0x8(%ebp),%eax
 100024f:	89 45 f4             	mov    %eax,-0xc(%ebp)
 1000252:	8d 45 f4             	lea    -0xc(%ebp),%eax
 1000255:	89 44 24 10          	mov    %eax,0x10(%esp)
 1000259:	c7 44 24 0c a0 01 00 	movl   $0x10001a0,0xc(%esp)
 1000260:	01 
 1000261:	c7 44 24 08 00 00 00 	movl   $0x0,0x8(%esp)
 1000268:	00 
 1000269:	8b 45 10             	mov    0x10(%ebp),%eax
 100026c:	89 44 24 04          	mov    %eax,0x4(%esp)
 1000270:	8b 45 0c             	mov    0xc(%ebp),%eax
 1000273:	89 04 24             	mov    %eax,(%esp)
 1000276:	e8 e2 00 00 00       	call   100035d <_doprnt>
 100027b:	8b 45 f4             	mov    -0xc(%ebp),%eax
 100027e:	c6 00 00             	movb   $0x0,(%eax)
 1000281:	8b 45 f8             	mov    -0x8(%ebp),%eax
 1000284:	c9                   	leave  
 1000285:	c3                   	ret    

01000286 <sprintf>:
 1000286:	55                   	push   %ebp
 1000287:	89 e5                	mov    %esp,%ebp
 1000289:	83 ec 0c             	sub    $0xc,%esp
 100028c:	8d 45 10             	lea    0x10(%ebp),%eax
 100028f:	89 44 24 08          	mov    %eax,0x8(%esp)
 1000293:	8b 45 0c             	mov    0xc(%ebp),%eax
 1000296:	89 44 24 04          	mov    %eax,0x4(%esp)
 100029a:	8b 45 08             	mov    0x8(%ebp),%eax
 100029d:	89 04 24             	mov    %eax,(%esp)
 10002a0:	e8 93 ff ff ff       	call   1000238 <vsprintf>
 10002a5:	c9                   	leave  
 10002a6:	c3                   	ret    
 10002a7:	90                   	nop
 10002a8:	90                   	nop
 10002a9:	90                   	nop
 10002aa:	90                   	nop
 10002ab:	90                   	nop
 10002ac:	90                   	nop
 10002ad:	90                   	nop
 10002ae:	90                   	nop
 10002af:	90                   	nop

010002b0 <printnum>:
 10002b0:	55                   	push   %ebp
 10002b1:	89 e5                	mov    %esp,%ebp
 10002b3:	57                   	push   %edi
 10002b4:	56                   	push   %esi
 10002b5:	53                   	push   %ebx
 10002b6:	83 ec 30             	sub    $0x30,%esp
 10002b9:	89 55 d0             	mov    %edx,-0x30(%ebp)
 10002bc:	89 4d cc             	mov    %ecx,-0x34(%ebp)
 10002bf:	8b 7d 08             	mov    0x8(%ebp),%edi
 10002c2:	8d 5d f3             	lea    -0xd(%ebp),%ebx
 10002c5:	b9 fd 19 00 01       	mov    $0x10019fd,%ecx
 10002ca:	ba 00 00 00 00       	mov    $0x0,%edx
 10002cf:	f7 75 d0             	divl   -0x30(%ebp)
 10002d2:	0f b6 14 11          	movzbl (%ecx,%edx,1),%edx
 10002d6:	88 13                	mov    %dl,(%ebx)
 10002d8:	83 eb 01             	sub    $0x1,%ebx
 10002db:	85 c0                	test   %eax,%eax
 10002dd:	75 eb                	jne    10002ca <printnum+0x1a>
 10002df:	83 c3 01             	add    $0x1,%ebx
 10002e2:	8d 75 f4             	lea    -0xc(%ebp),%esi
 10002e5:	39 f3                	cmp    %esi,%ebx
 10002e7:	74 14                	je     10002fd <printnum+0x4d>
 10002e9:	0f be 03             	movsbl (%ebx),%eax
 10002ec:	89 44 24 04          	mov    %eax,0x4(%esp)
 10002f0:	89 3c 24             	mov    %edi,(%esp)
 10002f3:	ff 55 cc             	call   *-0x34(%ebp)
 10002f6:	83 c3 01             	add    $0x1,%ebx
 10002f9:	39 f3                	cmp    %esi,%ebx
 10002fb:	75 ec                	jne    10002e9 <printnum+0x39>
 10002fd:	83 c4 30             	add    $0x30,%esp
 1000300:	5b                   	pop    %ebx
 1000301:	5e                   	pop    %esi
 1000302:	5f                   	pop    %edi
 1000303:	5d                   	pop    %ebp
 1000304:	c3                   	ret    

01000305 <printnum_16>:
 1000305:	55                   	push   %ebp
 1000306:	89 e5                	mov    %esp,%ebp
 1000308:	57                   	push   %edi
 1000309:	56                   	push   %esi
 100030a:	53                   	push   %ebx
 100030b:	83 ec 18             	sub    $0x18,%esp
 100030e:	89 55 e8             	mov    %edx,-0x18(%ebp)
 1000311:	89 4d e4             	mov    %ecx,-0x1c(%ebp)
 1000314:	8d 75 eb             	lea    -0x15(%ebp),%esi
 1000317:	8d 55 f3             	lea    -0xd(%ebp),%edx
 100031a:	b9 fd 19 00 01       	mov    $0x10019fd,%ecx
 100031f:	89 c3                	mov    %eax,%ebx
 1000321:	83 e3 0f             	and    $0xf,%ebx
 1000324:	0f b6 1c 19          	movzbl (%ecx,%ebx,1),%ebx
 1000328:	88 1a                	mov    %bl,(%edx)
 100032a:	83 ea 01             	sub    $0x1,%edx
 100032d:	c1 e8 04             	shr    $0x4,%eax
 1000330:	39 f2                	cmp    %esi,%edx
 1000332:	75 eb                	jne    100031f <printnum_16+0x1a>
 1000334:	bb 00 00 00 00       	mov    $0x0,%ebx
 1000339:	8d 75 ec             	lea    -0x14(%ebp),%esi
 100033c:	8b 7d e4             	mov    -0x1c(%ebp),%edi
 100033f:	0f be 04 1e          	movsbl (%esi,%ebx,1),%eax
 1000343:	89 44 24 04          	mov    %eax,0x4(%esp)
 1000347:	89 3c 24             	mov    %edi,(%esp)
 100034a:	ff 55 e8             	call   *-0x18(%ebp)
 100034d:	83 c3 01             	add    $0x1,%ebx
 1000350:	83 fb 08             	cmp    $0x8,%ebx
 1000353:	75 ea                	jne    100033f <printnum_16+0x3a>
 1000355:	83 c4 18             	add    $0x18,%esp
 1000358:	5b                   	pop    %ebx
 1000359:	5e                   	pop    %esi
 100035a:	5f                   	pop    %edi
 100035b:	5d                   	pop    %ebp
 100035c:	c3                   	ret    

0100035d <_doprnt>:
 100035d:	55                   	push   %ebp
 100035e:	89 e5                	mov    %esp,%ebp
 1000360:	57                   	push   %edi
 1000361:	56                   	push   %esi
 1000362:	53                   	push   %ebx
 1000363:	83 c4 80             	add    $0xffffff80,%esp
 1000366:	8b 7d 08             	mov    0x8(%ebp),%edi
 1000369:	8d 45 f3             	lea    -0xd(%ebp),%eax
 100036c:	89 45 84             	mov    %eax,-0x7c(%ebp)
 100036f:	e9 90 0d 00 00       	jmp    1001104 <_doprnt+0xda7>
 1000374:	3c 25                	cmp    $0x25,%al
 1000376:	74 18                	je     1000390 <_doprnt+0x33>
 1000378:	83 c7 01             	add    $0x1,%edi
 100037b:	0f be c0             	movsbl %al,%eax
 100037e:	89 44 24 04          	mov    %eax,0x4(%esp)
 1000382:	8b 55 18             	mov    0x18(%ebp),%edx
 1000385:	89 14 24             	mov    %edx,(%esp)
 1000388:	ff 55 14             	call   *0x14(%ebp)
 100038b:	e9 74 0d 00 00       	jmp    1001104 <_doprnt+0xda7>
 1000390:	8d 57 02             	lea    0x2(%edi),%edx
 1000393:	c7 45 cc 00 00 00 00 	movl   $0x0,-0x34(%ebp)
 100039a:	b8 00 00 00 00       	mov    $0x0,%eax
 100039f:	c7 45 bc 00 00 00 00 	movl   $0x0,-0x44(%ebp)
 10003a6:	bb 20 00 00 00       	mov    $0x20,%ebx
 10003ab:	be 2b 00 00 00       	mov    $0x2b,%esi
 10003b0:	eb 0a                	jmp    10003bc <_doprnt+0x5f>
 10003b2:	c7 45 bc 01 00 00 00 	movl   $0x1,-0x44(%ebp)
 10003b9:	83 c2 01             	add    $0x1,%edx
 10003bc:	8d 7a ff             	lea    -0x1(%edx),%edi
 10003bf:	0f b6 4a ff          	movzbl -0x1(%edx),%ecx
 10003c3:	80 f9 23             	cmp    $0x23,%cl
 10003c6:	75 09                	jne    10003d1 <_doprnt+0x74>
 10003c8:	c7 45 cc 01 00 00 00 	movl   $0x1,-0x34(%ebp)
 10003cf:	eb e8                	jmp    10003b9 <_doprnt+0x5c>
 10003d1:	80 f9 2d             	cmp    $0x2d,%cl
 10003d4:	74 dc                	je     10003b2 <_doprnt+0x55>
 10003d6:	80 f9 2b             	cmp    $0x2b,%cl
 10003d9:	75 07                	jne    10003e2 <_doprnt+0x85>
 10003db:	89 f0                	mov    %esi,%eax
 10003dd:	8d 76 00             	lea    0x0(%esi),%esi
 10003e0:	eb d7                	jmp    10003b9 <_doprnt+0x5c>
 10003e2:	80 f9 20             	cmp    $0x20,%cl
 10003e5:	75 07                	jne    10003ee <_doprnt+0x91>
 10003e7:	85 c0                	test   %eax,%eax
 10003e9:	0f 44 c3             	cmove  %ebx,%eax
 10003ec:	eb cb                	jmp    10003b9 <_doprnt+0x5c>
 10003ee:	8b 75 bc             	mov    -0x44(%ebp),%esi
 10003f1:	c6 45 ac 20          	movb   $0x20,-0x54(%ebp)
 10003f5:	80 f9 30             	cmp    $0x30,%cl
 10003f8:	75 07                	jne    1000401 <_doprnt+0xa4>
 10003fa:	8d 7f 01             	lea    0x1(%edi),%edi
 10003fd:	c6 45 ac 30          	movb   $0x30,-0x54(%ebp)
 1000401:	0f b6 17             	movzbl (%edi),%edx
 1000404:	8d 4a d0             	lea    -0x30(%edx),%ecx
 1000407:	80 f9 09             	cmp    $0x9,%cl
 100040a:	77 2c                	ja     1000438 <_doprnt+0xdb>
 100040c:	c7 45 b0 00 00 00 00 	movl   $0x0,-0x50(%ebp)
 1000413:	b9 00 00 00 00       	mov    $0x0,%ecx
 1000418:	8d 0c 89             	lea    (%ecx,%ecx,4),%ecx
 100041b:	0f be d2             	movsbl %dl,%edx
 100041e:	8d 4c 4a d0          	lea    -0x30(%edx,%ecx,2),%ecx
 1000422:	83 c7 01             	add    $0x1,%edi
 1000425:	0f b6 17             	movzbl (%edi),%edx
 1000428:	8d 5a d0             	lea    -0x30(%edx),%ebx
 100042b:	80 fb 09             	cmp    $0x9,%bl
 100042e:	76 e8                	jbe    1000418 <_doprnt+0xbb>
 1000430:	89 4d b0             	mov    %ecx,-0x50(%ebp)
 1000433:	8b 5d 0c             	mov    0xc(%ebp),%ebx
 1000436:	eb 31                	jmp    1000469 <_doprnt+0x10c>
 1000438:	8b 5d 0c             	mov    0xc(%ebp),%ebx
 100043b:	c7 45 b0 00 00 00 00 	movl   $0x0,-0x50(%ebp)
 1000442:	80 fa 2a             	cmp    $0x2a,%dl
 1000445:	75 22                	jne    1000469 <_doprnt+0x10c>
 1000447:	83 c3 04             	add    $0x4,%ebx
 100044a:	8b 4d 0c             	mov    0xc(%ebp),%ecx
 100044d:	8b 09                	mov    (%ecx),%ecx
 100044f:	89 4d b0             	mov    %ecx,-0x50(%ebp)
 1000452:	83 c7 01             	add    $0x1,%edi
 1000455:	85 c9                	test   %ecx,%ecx
 1000457:	79 10                	jns    1000469 <_doprnt+0x10c>
 1000459:	85 f6                	test   %esi,%esi
 100045b:	0f 94 c2             	sete   %dl
 100045e:	0f b6 d2             	movzbl %dl,%edx
 1000461:	89 55 bc             	mov    %edx,-0x44(%ebp)
 1000464:	f7 d9                	neg    %ecx
 1000466:	89 4d b0             	mov    %ecx,-0x50(%ebp)
 1000469:	80 3f 2e             	cmpb   $0x2e,(%edi)
 100046c:	75 42                	jne    10004b0 <_doprnt+0x153>
 100046e:	83 c7 01             	add    $0x1,%edi
 1000471:	0f b6 17             	movzbl (%edi),%edx
 1000474:	8d 4a d0             	lea    -0x30(%edx),%ecx
 1000477:	80 f9 09             	cmp    $0x9,%cl
 100047a:	77 22                	ja     100049e <_doprnt+0x141>
 100047c:	be 00 00 00 00       	mov    $0x0,%esi
 1000481:	8d 0c b6             	lea    (%esi,%esi,4),%ecx
 1000484:	0f be d2             	movsbl %dl,%edx
 1000487:	8d 74 4a d0          	lea    -0x30(%edx,%ecx,2),%esi
 100048b:	83 c7 01             	add    $0x1,%edi
 100048e:	0f b6 17             	movzbl (%edi),%edx
 1000491:	8d 4a d0             	lea    -0x30(%edx),%ecx
 1000494:	80 f9 09             	cmp    $0x9,%cl
 1000497:	76 e8                	jbe    1000481 <_doprnt+0x124>
 1000499:	89 5d c4             	mov    %ebx,-0x3c(%ebp)
 100049c:	eb 1a                	jmp    10004b8 <_doprnt+0x15b>
 100049e:	80 fa 2a             	cmp    $0x2a,%dl
 10004a1:	75 0d                	jne    10004b0 <_doprnt+0x153>
 10004a3:	8d 73 04             	lea    0x4(%ebx),%esi
 10004a6:	89 75 c4             	mov    %esi,-0x3c(%ebp)
 10004a9:	8b 33                	mov    (%ebx),%esi
 10004ab:	83 c7 01             	add    $0x1,%edi
 10004ae:	eb 08                	jmp    10004b8 <_doprnt+0x15b>
 10004b0:	89 5d c4             	mov    %ebx,-0x3c(%ebp)
 10004b3:	be ff ff ff ff       	mov    $0xffffffff,%esi
 10004b8:	0f b6 17             	movzbl (%edi),%edx
 10004bb:	bb 00 00 00 00       	mov    $0x0,%ebx
 10004c0:	80 fa 6c             	cmp    $0x6c,%dl
 10004c3:	75 0e                	jne    10004d3 <_doprnt+0x176>
 10004c5:	83 c3 01             	add    $0x1,%ebx
 10004c8:	83 c7 01             	add    $0x1,%edi
 10004cb:	0f b6 17             	movzbl (%edi),%edx
 10004ce:	80 fa 6c             	cmp    $0x6c,%dl
 10004d1:	74 f2                	je     10004c5 <_doprnt+0x168>
 10004d3:	80 fa 7a             	cmp    $0x7a,%dl
 10004d6:	0f 87 0f 0c 00 00    	ja     10010eb <_doprnt+0xd8e>
 10004dc:	0f b6 ca             	movzbl %dl,%ecx
 10004df:	ff 24 8d 00 18 00 01 	jmp    *0x1001800(,%ecx,4)
 10004e6:	8b 4d 10             	mov    0x10(%ebp),%ecx
 10004e9:	c7 45 b4 00 00 00 00 	movl   $0x0,-0x4c(%ebp)
 10004f0:	e9 d6 09 00 00       	jmp    1000ecb <_doprnt+0xb6e>
 10004f5:	8b 4d 10             	mov    0x10(%ebp),%ecx
 10004f8:	c7 45 b4 00 00 00 00 	movl   $0x0,-0x4c(%ebp)
 10004ff:	e9 65 09 00 00       	jmp    1000e69 <_doprnt+0xb0c>
 1000504:	b9 08 00 00 00       	mov    $0x8,%ecx
 1000509:	c7 45 b4 00 00 00 00 	movl   $0x0,-0x4c(%ebp)
 1000510:	e9 b6 09 00 00       	jmp    1000ecb <_doprnt+0xb6e>
 1000515:	b9 0a 00 00 00       	mov    $0xa,%ecx
 100051a:	c7 45 b4 00 00 00 00 	movl   $0x0,-0x4c(%ebp)
 1000521:	e9 43 09 00 00       	jmp    1000e69 <_doprnt+0xb0c>
 1000526:	b9 0a 00 00 00       	mov    $0xa,%ecx
 100052b:	c7 45 b4 00 00 00 00 	movl   $0x0,-0x4c(%ebp)
 1000532:	e9 94 09 00 00       	jmp    1000ecb <_doprnt+0xb6e>
 1000537:	8b 45 c4             	mov    -0x3c(%ebp),%eax
 100053a:	8b 18                	mov    (%eax),%ebx
 100053c:	be 00 00 00 00       	mov    $0x0,%esi
 1000541:	83 c0 08             	add    $0x8,%eax
 1000544:	89 45 0c             	mov    %eax,0xc(%ebp)
 1000547:	8b 55 c4             	mov    -0x3c(%ebp),%edx
 100054a:	8b 52 04             	mov    0x4(%edx),%edx
 100054d:	89 55 cc             	mov    %edx,-0x34(%ebp)
 1000550:	0f be 0a             	movsbl (%edx),%ecx
 1000553:	89 4d b0             	mov    %ecx,-0x50(%ebp)
 1000556:	8b 45 18             	mov    0x18(%ebp),%eax
 1000559:	89 44 24 04          	mov    %eax,0x4(%esp)
 100055d:	8b 55 14             	mov    0x14(%ebp),%edx
 1000560:	89 14 24             	mov    %edx,(%esp)
 1000563:	89 d8                	mov    %ebx,%eax
 1000565:	89 f2                	mov    %esi,%edx
 1000567:	e8 44 fd ff ff       	call   10002b0 <printnum>
 100056c:	89 f1                	mov    %esi,%ecx
 100056e:	09 d9                	or     %ebx,%ecx
 1000570:	0f 84 8b 0b 00 00    	je     1001101 <_doprnt+0xda4>
 1000576:	8b 45 cc             	mov    -0x34(%ebp),%eax
 1000579:	83 c0 01             	add    $0x1,%eax
 100057c:	c7 45 b4 00 00 00 00 	movl   $0x0,-0x4c(%ebp)
 1000583:	89 5d bc             	mov    %ebx,-0x44(%ebp)
 1000586:	89 75 c0             	mov    %esi,-0x40(%ebp)
 1000589:	89 7d ac             	mov    %edi,-0x54(%ebp)
 100058c:	89 c3                	mov    %eax,%ebx
 100058e:	8b 7d 14             	mov    0x14(%ebp),%edi
 1000591:	8b 75 18             	mov    0x18(%ebp),%esi
 1000594:	e9 1c 01 00 00       	jmp    10006b5 <_doprnt+0x358>
 1000599:	83 c3 01             	add    $0x1,%ebx
 100059c:	80 3b 20             	cmpb   $0x20,(%ebx)
 100059f:	0f 8f 9e 00 00 00    	jg     1000643 <_doprnt+0x2e6>
 10005a5:	83 7d b4 00          	cmpl   $0x0,-0x4c(%ebp)
 10005a9:	74 0f                	je     10005ba <_doprnt+0x25d>
 10005ab:	c7 44 24 04 2c 00 00 	movl   $0x2c,0x4(%esp)
 10005b2:	00 
 10005b3:	89 34 24             	mov    %esi,(%esp)
 10005b6:	ff d7                	call   *%edi
 10005b8:	eb 14                	jmp    10005ce <_doprnt+0x271>
 10005ba:	c7 44 24 04 3c 00 00 	movl   $0x3c,0x4(%esp)
 10005c1:	00 
 10005c2:	89 34 24             	mov    %esi,(%esp)
 10005c5:	ff d7                	call   *%edi
 10005c7:	c7 45 b4 01 00 00 00 	movl   $0x1,-0x4c(%ebp)
 10005ce:	0f be 13             	movsbl (%ebx),%edx
 10005d1:	89 55 c4             	mov    %edx,-0x3c(%ebp)
 10005d4:	83 c3 01             	add    $0x1,%ebx
 10005d7:	0f b6 03             	movzbl (%ebx),%eax
 10005da:	3c 20                	cmp    $0x20,%al
 10005dc:	7e 16                	jle    10005f4 <_doprnt+0x297>
 10005de:	0f be c0             	movsbl %al,%eax
 10005e1:	89 44 24 04          	mov    %eax,0x4(%esp)
 10005e5:	89 34 24             	mov    %esi,(%esp)
 10005e8:	ff d7                	call   *%edi
 10005ea:	83 c3 01             	add    $0x1,%ebx
 10005ed:	0f b6 03             	movzbl (%ebx),%eax
 10005f0:	3c 20                	cmp    $0x20,%al
 10005f2:	7f ea                	jg     10005de <_doprnt+0x281>
 10005f4:	8b 4d cc             	mov    -0x34(%ebp),%ecx
 10005f7:	2b 4d c4             	sub    -0x3c(%ebp),%ecx
 10005fa:	b8 02 00 00 00       	mov    $0x2,%eax
 10005ff:	d3 e0                	shl    %cl,%eax
 1000601:	83 e8 01             	sub    $0x1,%eax
 1000604:	89 45 cc             	mov    %eax,-0x34(%ebp)
 1000607:	8b 4d c4             	mov    -0x3c(%ebp),%ecx
 100060a:	83 e9 01             	sub    $0x1,%ecx
 100060d:	89 4d c4             	mov    %ecx,-0x3c(%ebp)
 1000610:	8b 45 bc             	mov    -0x44(%ebp),%eax
 1000613:	8b 55 c0             	mov    -0x40(%ebp),%edx
 1000616:	0f b6 4d c4          	movzbl -0x3c(%ebp),%ecx
 100061a:	0f ad d0             	shrd   %cl,%edx,%eax
 100061d:	d3 ea                	shr    %cl,%edx
 100061f:	f6 c1 20             	test   $0x20,%cl
 1000622:	74 04                	je     1000628 <_doprnt+0x2cb>
 1000624:	89 d0                	mov    %edx,%eax
 1000626:	31 d2                	xor    %edx,%edx
 1000628:	89 45 c4             	mov    %eax,-0x3c(%ebp)
 100062b:	89 55 c8             	mov    %edx,-0x38(%ebp)
 100062e:	8b 45 c4             	mov    -0x3c(%ebp),%eax
 1000631:	23 45 cc             	and    -0x34(%ebp),%eax
 1000634:	89 34 24             	mov    %esi,(%esp)
 1000637:	89 f9                	mov    %edi,%ecx
 1000639:	8b 55 b0             	mov    -0x50(%ebp),%edx
 100063c:	e8 6f fc ff ff       	call   10002b0 <printnum>
 1000641:	eb 72                	jmp    10006b5 <_doprnt+0x358>
 1000643:	8b 4d cc             	mov    -0x34(%ebp),%ecx
 1000646:	83 e9 01             	sub    $0x1,%ecx
 1000649:	b8 01 00 00 00       	mov    $0x1,%eax
 100064e:	d3 e0                	shl    %cl,%eax
 1000650:	89 c2                	mov    %eax,%edx
 1000652:	c1 fa 1f             	sar    $0x1f,%edx
 1000655:	8b 4d bc             	mov    -0x44(%ebp),%ecx
 1000658:	21 c1                	and    %eax,%ecx
 100065a:	8b 45 c0             	mov    -0x40(%ebp),%eax
 100065d:	21 d0                	and    %edx,%eax
 100065f:	09 c8                	or     %ecx,%eax
 1000661:	74 4a                	je     10006ad <_doprnt+0x350>
 1000663:	83 7d b4 00          	cmpl   $0x0,-0x4c(%ebp)
 1000667:	74 16                	je     100067f <_doprnt+0x322>
 1000669:	c7 44 24 04 2c 00 00 	movl   $0x2c,0x4(%esp)
 1000670:	00 
 1000671:	89 34 24             	mov    %esi,(%esp)
 1000674:	ff d7                	call   *%edi
 1000676:	0f b6 03             	movzbl (%ebx),%eax
 1000679:	3c 20                	cmp    $0x20,%al
 100067b:	7f 18                	jg     1000695 <_doprnt+0x338>
 100067d:	eb 36                	jmp    10006b5 <_doprnt+0x358>
 100067f:	c7 44 24 04 3c 00 00 	movl   $0x3c,0x4(%esp)
 1000686:	00 
 1000687:	89 34 24             	mov    %esi,(%esp)
 100068a:	ff d7                	call   *%edi
 100068c:	c7 45 b4 01 00 00 00 	movl   $0x1,-0x4c(%ebp)
 1000693:	eb e1                	jmp    1000676 <_doprnt+0x319>
 1000695:	0f be c0             	movsbl %al,%eax
 1000698:	89 44 24 04          	mov    %eax,0x4(%esp)
 100069c:	89 34 24             	mov    %esi,(%esp)
 100069f:	ff d7                	call   *%edi
 10006a1:	83 c3 01             	add    $0x1,%ebx
 10006a4:	0f b6 03             	movzbl (%ebx),%eax
 10006a7:	3c 20                	cmp    $0x20,%al
 10006a9:	7f ea                	jg     1000695 <_doprnt+0x338>
 10006ab:	eb 08                	jmp    10006b5 <_doprnt+0x358>
 10006ad:	83 c3 01             	add    $0x1,%ebx
 10006b0:	80 3b 20             	cmpb   $0x20,(%ebx)
 10006b3:	7f f8                	jg     10006ad <_doprnt+0x350>
 10006b5:	0f be 13             	movsbl (%ebx),%edx
 10006b8:	89 55 cc             	mov    %edx,-0x34(%ebp)
 10006bb:	85 d2                	test   %edx,%edx
 10006bd:	0f 85 d6 fe ff ff    	jne    1000599 <_doprnt+0x23c>
 10006c3:	8b 7d ac             	mov    -0x54(%ebp),%edi
 10006c6:	83 7d b4 00          	cmpl   $0x0,-0x4c(%ebp)
 10006ca:	0f 84 31 0a 00 00    	je     1001101 <_doprnt+0xda4>
 10006d0:	c7 44 24 04 3e 00 00 	movl   $0x3e,0x4(%esp)
 10006d7:	00 
 10006d8:	8b 4d 18             	mov    0x18(%ebp),%ecx
 10006db:	89 0c 24             	mov    %ecx,(%esp)
 10006de:	ff 55 14             	call   *0x14(%ebp)
 10006e1:	e9 1b 0a 00 00       	jmp    1001101 <_doprnt+0xda4>
 10006e6:	8b 5d c4             	mov    -0x3c(%ebp),%ebx
 10006e9:	83 c3 04             	add    $0x4,%ebx
 10006ec:	89 5d 0c             	mov    %ebx,0xc(%ebp)
 10006ef:	8b 75 c4             	mov    -0x3c(%ebp),%esi
 10006f2:	0f be 06             	movsbl (%esi),%eax
 10006f5:	89 44 24 04          	mov    %eax,0x4(%esp)
 10006f9:	8b 45 18             	mov    0x18(%ebp),%eax
 10006fc:	89 04 24             	mov    %eax,(%esp)
 10006ff:	ff 55 14             	call   *0x14(%ebp)
 1000702:	e9 fa 09 00 00       	jmp    1001101 <_doprnt+0xda4>
 1000707:	8b 55 c4             	mov    -0x3c(%ebp),%edx
 100070a:	83 c2 08             	add    $0x8,%edx
 100070d:	89 55 0c             	mov    %edx,0xc(%ebp)
 1000710:	8b 4d c4             	mov    -0x3c(%ebp),%ecx
 1000713:	8b 09                	mov    (%ecx),%ecx
 1000715:	89 4d a0             	mov    %ecx,-0x60(%ebp)
 1000718:	8b 75 c4             	mov    -0x3c(%ebp),%esi
 100071b:	8b 76 04             	mov    0x4(%esi),%esi
 100071e:	89 75 a4             	mov    %esi,-0x5c(%ebp)
 1000721:	85 db                	test   %ebx,%ebx
 1000723:	0f 84 a3 01 00 00    	je     10008cc <_doprnt+0x56f>
 1000729:	bb 13 00 00 00       	mov    $0x13,%ebx
 100072e:	be 00 00 00 00       	mov    $0x0,%esi
 1000733:	83 7d cc 00          	cmpl   $0x0,-0x34(%ebp)
 1000737:	75 0a                	jne    1000743 <_doprnt+0x3e6>
 1000739:	bb 11 00 00 00       	mov    $0x11,%ebx
 100073e:	be 00 00 00 00       	mov    $0x0,%esi
 1000743:	83 7d b0 00          	cmpl   $0x0,-0x50(%ebp)
 1000747:	0f 9f 45 ac          	setg   -0x54(%ebp)
 100074b:	0f 8e 94 00 00 00    	jle    10007e5 <_doprnt+0x488>
 1000751:	83 7d bc 00          	cmpl   $0x0,-0x44(%ebp)
 1000755:	0f 85 8a 00 00 00    	jne    10007e5 <_doprnt+0x488>
 100075b:	8b 45 b0             	mov    -0x50(%ebp),%eax
 100075e:	89 c2                	mov    %eax,%edx
 1000760:	c1 fa 1f             	sar    $0x1f,%edx
 1000763:	89 45 b4             	mov    %eax,-0x4c(%ebp)
 1000766:	89 55 b8             	mov    %edx,-0x48(%ebp)
 1000769:	39 d6                	cmp    %edx,%esi
 100076b:	7f 78                	jg     10007e5 <_doprnt+0x488>
 100076d:	3b 75 b8             	cmp    -0x48(%ebp),%esi
 1000770:	7c 04                	jl     1000776 <_doprnt+0x419>
 1000772:	39 c3                	cmp    %eax,%ebx
 1000774:	73 6f                	jae    10007e5 <_doprnt+0x488>
 1000776:	89 5d c4             	mov    %ebx,-0x3c(%ebp)
 1000779:	89 75 c8             	mov    %esi,-0x38(%ebp)
 100077c:	c7 44 24 04 20 00 00 	movl   $0x20,0x4(%esp)
 1000783:	00 
 1000784:	8b 55 18             	mov    0x18(%ebp),%edx
 1000787:	89 14 24             	mov    %edx,(%esp)
 100078a:	ff 55 14             	call   *0x14(%ebp)
 100078d:	83 45 c4 01          	addl   $0x1,-0x3c(%ebp)
 1000791:	83 55 c8 00          	adcl   $0x0,-0x38(%ebp)
 1000795:	8b 4d b8             	mov    -0x48(%ebp),%ecx
 1000798:	39 4d c8             	cmp    %ecx,-0x38(%ebp)
 100079b:	7c df                	jl     100077c <_doprnt+0x41f>
 100079d:	7f 08                	jg     10007a7 <_doprnt+0x44a>
 100079f:	8b 55 b4             	mov    -0x4c(%ebp),%edx
 10007a2:	39 55 c4             	cmp    %edx,-0x3c(%ebp)
 10007a5:	72 d5                	jb     100077c <_doprnt+0x41f>
 10007a7:	89 d8                	mov    %ebx,%eax
 10007a9:	89 f2                	mov    %esi,%edx
 10007ab:	83 c0 01             	add    $0x1,%eax
 10007ae:	83 d2 00             	adc    $0x0,%edx
 10007b1:	89 45 c4             	mov    %eax,-0x3c(%ebp)
 10007b4:	89 55 c8             	mov    %edx,-0x38(%ebp)
 10007b7:	89 da                	mov    %ebx,%edx
 10007b9:	f7 d2                	not    %edx
 10007bb:	89 55 88             	mov    %edx,-0x78(%ebp)
 10007be:	89 f1                	mov    %esi,%ecx
 10007c0:	f7 d1                	not    %ecx
 10007c2:	89 4d 8c             	mov    %ecx,-0x74(%ebp)
 10007c5:	8b 45 b0             	mov    -0x50(%ebp),%eax
 10007c8:	89 c2                	mov    %eax,%edx
 10007ca:	c1 fa 1f             	sar    $0x1f,%edx
 10007cd:	89 c1                	mov    %eax,%ecx
 10007cf:	89 d3                	mov    %edx,%ebx
 10007d1:	8b 45 88             	mov    -0x78(%ebp),%eax
 10007d4:	8b 55 8c             	mov    -0x74(%ebp),%edx
 10007d7:	01 c8                	add    %ecx,%eax
 10007d9:	11 da                	adc    %ebx,%edx
 10007db:	8b 5d c4             	mov    -0x3c(%ebp),%ebx
 10007de:	8b 75 c8             	mov    -0x38(%ebp),%esi
 10007e1:	01 c3                	add    %eax,%ebx
 10007e3:	11 d6                	adc    %edx,%esi
 10007e5:	83 7d cc 00          	cmpl   $0x0,-0x34(%ebp)
 10007e9:	74 51                	je     100083c <_doprnt+0x4df>
 10007eb:	c7 44 24 04 5b 00 00 	movl   $0x5b,0x4(%esp)
 10007f2:	00 
 10007f3:	8b 55 18             	mov    0x18(%ebp),%edx
 10007f6:	89 14 24             	mov    %edx,(%esp)
 10007f9:	ff 55 14             	call   *0x14(%ebp)
 10007fc:	8b 4d 18             	mov    0x18(%ebp),%ecx
 10007ff:	8b 55 14             	mov    0x14(%ebp),%edx
 1000802:	8b 45 a0             	mov    -0x60(%ebp),%eax
 1000805:	e8 fb fa ff ff       	call   1000305 <printnum_16>
 100080a:	c7 44 24 04 3a 00 00 	movl   $0x3a,0x4(%esp)
 1000811:	00 
 1000812:	8b 4d 18             	mov    0x18(%ebp),%ecx
 1000815:	89 0c 24             	mov    %ecx,(%esp)
 1000818:	ff 55 14             	call   *0x14(%ebp)
 100081b:	8b 4d 18             	mov    0x18(%ebp),%ecx
 100081e:	8b 55 14             	mov    0x14(%ebp),%edx
 1000821:	8b 45 a4             	mov    -0x5c(%ebp),%eax
 1000824:	e8 dc fa ff ff       	call   1000305 <printnum_16>
 1000829:	c7 44 24 04 5d 00 00 	movl   $0x5d,0x4(%esp)
 1000830:	00 
 1000831:	8b 45 18             	mov    0x18(%ebp),%eax
 1000834:	89 04 24             	mov    %eax,(%esp)
 1000837:	ff 55 14             	call   *0x14(%ebp)
 100083a:	eb 2d                	jmp    1000869 <_doprnt+0x50c>
 100083c:	8b 4d 18             	mov    0x18(%ebp),%ecx
 100083f:	8b 55 14             	mov    0x14(%ebp),%edx
 1000842:	8b 45 a0             	mov    -0x60(%ebp),%eax
 1000845:	e8 bb fa ff ff       	call   1000305 <printnum_16>
 100084a:	c7 44 24 04 3a 00 00 	movl   $0x3a,0x4(%esp)
 1000851:	00 
 1000852:	8b 55 18             	mov    0x18(%ebp),%edx
 1000855:	89 14 24             	mov    %edx,(%esp)
 1000858:	ff 55 14             	call   *0x14(%ebp)
 100085b:	8b 4d 18             	mov    0x18(%ebp),%ecx
 100085e:	8b 55 14             	mov    0x14(%ebp),%edx
 1000861:	8b 45 a4             	mov    -0x5c(%ebp),%eax
 1000864:	e8 9c fa ff ff       	call   1000305 <printnum_16>
 1000869:	80 7d ac 00          	cmpb   $0x0,-0x54(%ebp)
 100086d:	0f 84 8e 08 00 00    	je     1001101 <_doprnt+0xda4>
 1000873:	83 7d bc 00          	cmpl   $0x0,-0x44(%ebp)
 1000877:	0f 84 84 08 00 00    	je     1001101 <_doprnt+0xda4>
 100087d:	8b 45 b0             	mov    -0x50(%ebp),%eax
 1000880:	89 c2                	mov    %eax,%edx
 1000882:	c1 fa 1f             	sar    $0x1f,%edx
 1000885:	89 45 cc             	mov    %eax,-0x34(%ebp)
 1000888:	89 55 d0             	mov    %edx,-0x30(%ebp)
 100088b:	39 d6                	cmp    %edx,%esi
 100088d:	0f 8f 6e 08 00 00    	jg     1001101 <_doprnt+0xda4>
 1000893:	3b 75 d0             	cmp    -0x30(%ebp),%esi
 1000896:	7c 08                	jl     10008a0 <_doprnt+0x543>
 1000898:	39 c3                	cmp    %eax,%ebx
 100089a:	0f 83 61 08 00 00    	jae    1001101 <_doprnt+0xda4>
 10008a0:	c7 44 24 04 20 00 00 	movl   $0x20,0x4(%esp)
 10008a7:	00 
 10008a8:	8b 55 18             	mov    0x18(%ebp),%edx
 10008ab:	89 14 24             	mov    %edx,(%esp)
 10008ae:	ff 55 14             	call   *0x14(%ebp)
 10008b1:	83 c3 01             	add    $0x1,%ebx
 10008b4:	83 d6 00             	adc    $0x0,%esi
 10008b7:	3b 75 d0             	cmp    -0x30(%ebp),%esi
 10008ba:	7c e4                	jl     10008a0 <_doprnt+0x543>
 10008bc:	0f 8f 3f 08 00 00    	jg     1001101 <_doprnt+0xda4>
 10008c2:	3b 5d cc             	cmp    -0x34(%ebp),%ebx
 10008c5:	72 d9                	jb     10008a0 <_doprnt+0x543>
 10008c7:	e9 35 08 00 00       	jmp    1001101 <_doprnt+0xda4>
 10008cc:	bb 04 00 00 00       	mov    $0x4,%ebx
 10008d1:	be 00 00 00 00       	mov    $0x0,%esi
 10008d6:	83 7d cc 00          	cmpl   $0x0,-0x34(%ebp)
 10008da:	75 0a                	jne    10008e6 <_doprnt+0x589>
 10008dc:	bb 02 00 00 00       	mov    $0x2,%ebx
 10008e1:	be 00 00 00 00       	mov    $0x0,%esi
 10008e6:	8b 45 a0             	mov    -0x60(%ebp),%eax
 10008e9:	c1 e8 0a             	shr    $0xa,%eax
 10008ec:	83 e0 7f             	and    $0x7f,%eax
 10008ef:	89 45 90             	mov    %eax,-0x70(%ebp)
 10008f2:	83 f8 0f             	cmp    $0xf,%eax
 10008f5:	0f 9f c0             	setg   %al
 10008f8:	0f b6 c0             	movzbl %al,%eax
 10008fb:	89 45 a4             	mov    %eax,-0x5c(%ebp)
 10008fe:	c7 45 a8 00 00 00 00 	movl   $0x0,-0x58(%ebp)
 1000905:	8b 45 a4             	mov    -0x5c(%ebp),%eax
 1000908:	8b 55 a8             	mov    -0x58(%ebp),%edx
 100090b:	83 c0 01             	add    $0x1,%eax
 100090e:	83 d2 00             	adc    $0x0,%edx
 1000911:	89 45 94             	mov    %eax,-0x6c(%ebp)
 1000914:	89 55 98             	mov    %edx,-0x68(%ebp)
 1000917:	8b 45 a0             	mov    -0x60(%ebp),%eax
 100091a:	c1 e8 11             	shr    $0x11,%eax
 100091d:	25 ff 07 00 00       	and    $0x7ff,%eax
 1000922:	89 45 a0             	mov    %eax,-0x60(%ebp)
 1000925:	3d ff 00 00 00       	cmp    $0xff,%eax
 100092a:	0f 9f c0             	setg   %al
 100092d:	0f b6 c0             	movzbl %al,%eax
 1000930:	89 45 b4             	mov    %eax,-0x4c(%ebp)
 1000933:	c7 45 b8 00 00 00 00 	movl   $0x0,-0x48(%ebp)
 100093a:	83 7d a0 0f          	cmpl   $0xf,-0x60(%ebp)
 100093e:	0f 9f c0             	setg   %al
 1000941:	0f b6 c0             	movzbl %al,%eax
 1000944:	89 45 c4             	mov    %eax,-0x3c(%ebp)
 1000947:	c7 45 c8 00 00 00 00 	movl   $0x0,-0x38(%ebp)
 100094e:	8b 55 c4             	mov    -0x3c(%ebp),%edx
 1000951:	8b 4d c8             	mov    -0x38(%ebp),%ecx
 1000954:	03 55 b4             	add    -0x4c(%ebp),%edx
 1000957:	13 4d b8             	adc    -0x48(%ebp),%ecx
 100095a:	01 da                	add    %ebx,%edx
 100095c:	11 f1                	adc    %esi,%ecx
 100095e:	89 55 c4             	mov    %edx,-0x3c(%ebp)
 1000961:	89 4d c8             	mov    %ecx,-0x38(%ebp)
 1000964:	83 7d b0 00          	cmpl   $0x0,-0x50(%ebp)
 1000968:	0f 9f c0             	setg   %al
 100096b:	83 7d bc 00          	cmpl   $0x0,-0x44(%ebp)
 100096f:	0f 94 c2             	sete   %dl
 1000972:	20 d0                	and    %dl,%al
 1000974:	88 45 9f             	mov    %al,-0x61(%ebp)
 1000977:	74 73                	je     10009ec <_doprnt+0x68f>
 1000979:	80 7d ac 20          	cmpb   $0x20,-0x54(%ebp)
 100097d:	75 6d                	jne    10009ec <_doprnt+0x68f>
 100097f:	8b 45 b0             	mov    -0x50(%ebp),%eax
 1000982:	89 c2                	mov    %eax,%edx
 1000984:	c1 fa 1f             	sar    $0x1f,%edx
 1000987:	89 45 b4             	mov    %eax,-0x4c(%ebp)
 100098a:	89 55 b8             	mov    %edx,-0x48(%ebp)
 100098d:	8b 45 c4             	mov    -0x3c(%ebp),%eax
 1000990:	8b 55 c8             	mov    -0x38(%ebp),%edx
 1000993:	83 c0 02             	add    $0x2,%eax
 1000996:	83 d2 00             	adc    $0x0,%edx
 1000999:	3b 55 b8             	cmp    -0x48(%ebp),%edx
 100099c:	7f 4e                	jg     10009ec <_doprnt+0x68f>
 100099e:	7c 05                	jl     10009a5 <_doprnt+0x648>
 10009a0:	3b 45 b4             	cmp    -0x4c(%ebp),%eax
 10009a3:	73 47                	jae    10009ec <_doprnt+0x68f>
 10009a5:	8b 5d c4             	mov    -0x3c(%ebp),%ebx
 10009a8:	8b 75 c8             	mov    -0x38(%ebp),%esi
 10009ab:	c7 44 24 04 20 00 00 	movl   $0x20,0x4(%esp)
 10009b2:	00 
 10009b3:	8b 55 18             	mov    0x18(%ebp),%edx
 10009b6:	89 14 24             	mov    %edx,(%esp)
 10009b9:	ff 55 14             	call   *0x14(%ebp)
 10009bc:	83 c3 01             	add    $0x1,%ebx
 10009bf:	83 d6 00             	adc    $0x0,%esi
 10009c2:	89 d8                	mov    %ebx,%eax
 10009c4:	89 f2                	mov    %esi,%edx
 10009c6:	83 c0 02             	add    $0x2,%eax
 10009c9:	83 d2 00             	adc    $0x0,%edx
 10009cc:	3b 55 b8             	cmp    -0x48(%ebp),%edx
 10009cf:	7c da                	jl     10009ab <_doprnt+0x64e>
 10009d1:	7f 05                	jg     10009d8 <_doprnt+0x67b>
 10009d3:	3b 45 b4             	cmp    -0x4c(%ebp),%eax
 10009d6:	72 d3                	jb     10009ab <_doprnt+0x64e>
 10009d8:	8b 45 b0             	mov    -0x50(%ebp),%eax
 10009db:	89 c2                	mov    %eax,%edx
 10009dd:	c1 fa 1f             	sar    $0x1f,%edx
 10009e0:	83 c0 fe             	add    $0xfffffffe,%eax
 10009e3:	83 d2 ff             	adc    $0xffffffff,%edx
 10009e6:	89 45 c4             	mov    %eax,-0x3c(%ebp)
 10009e9:	89 55 c8             	mov    %edx,-0x38(%ebp)
 10009ec:	83 7d cc 00          	cmpl   $0x0,-0x34(%ebp)
 10009f0:	74 11                	je     1000a03 <_doprnt+0x6a6>
 10009f2:	c7 44 24 04 5b 00 00 	movl   $0x5b,0x4(%esp)
 10009f9:	00 
 10009fa:	8b 55 18             	mov    0x18(%ebp),%edx
 10009fd:	89 14 24             	mov    %edx,(%esp)
 1000a00:	ff 55 14             	call   *0x14(%ebp)
 1000a03:	80 7d 9f 00          	cmpb   $0x0,-0x61(%ebp)
 1000a07:	0f 84 44 07 00 00    	je     1001151 <_doprnt+0xdf4>
 1000a0d:	80 7d ac 30          	cmpb   $0x30,-0x54(%ebp)
 1000a11:	75 62                	jne    1000a75 <_doprnt+0x718>
 1000a13:	8b 45 b0             	mov    -0x50(%ebp),%eax
 1000a16:	89 c2                	mov    %eax,%edx
 1000a18:	c1 fa 1f             	sar    $0x1f,%edx
 1000a1b:	89 45 b4             	mov    %eax,-0x4c(%ebp)
 1000a1e:	89 55 b8             	mov    %edx,-0x48(%ebp)
 1000a21:	8b 45 c4             	mov    -0x3c(%ebp),%eax
 1000a24:	8b 55 c8             	mov    -0x38(%ebp),%edx
 1000a27:	83 c0 02             	add    $0x2,%eax
 1000a2a:	83 d2 00             	adc    $0x0,%edx
 1000a2d:	3b 55 b8             	cmp    -0x48(%ebp),%edx
 1000a30:	7f 43                	jg     1000a75 <_doprnt+0x718>
 1000a32:	7c 05                	jl     1000a39 <_doprnt+0x6dc>
 1000a34:	3b 45 b4             	cmp    -0x4c(%ebp),%eax
 1000a37:	73 3c                	jae    1000a75 <_doprnt+0x718>
 1000a39:	8b 5d c4             	mov    -0x3c(%ebp),%ebx
 1000a3c:	8b 75 c8             	mov    -0x38(%ebp),%esi
 1000a3f:	c7 44 24 04 30 00 00 	movl   $0x30,0x4(%esp)
 1000a46:	00 
 1000a47:	8b 55 18             	mov    0x18(%ebp),%edx
 1000a4a:	89 14 24             	mov    %edx,(%esp)
 1000a4d:	ff 55 14             	call   *0x14(%ebp)
 1000a50:	83 c3 01             	add    $0x1,%ebx
 1000a53:	83 d6 00             	adc    $0x0,%esi
 1000a56:	89 d8                	mov    %ebx,%eax
 1000a58:	89 f2                	mov    %esi,%edx
 1000a5a:	83 c0 02             	add    $0x2,%eax
 1000a5d:	83 d2 00             	adc    $0x0,%edx
 1000a60:	3b 55 b8             	cmp    -0x48(%ebp),%edx
 1000a63:	7c da                	jl     1000a3f <_doprnt+0x6e2>
 1000a65:	0f 8f a6 06 00 00    	jg     1001111 <_doprnt+0xdb4>
 1000a6b:	3b 45 b4             	cmp    -0x4c(%ebp),%eax
 1000a6e:	72 cf                	jb     1000a3f <_doprnt+0x6e2>
 1000a70:	e9 9c 06 00 00       	jmp    1001111 <_doprnt+0xdb4>
 1000a75:	8b 4d 18             	mov    0x18(%ebp),%ecx
 1000a78:	89 0c 24             	mov    %ecx,(%esp)
 1000a7b:	8b 4d 14             	mov    0x14(%ebp),%ecx
 1000a7e:	ba 10 00 00 00       	mov    $0x10,%edx
 1000a83:	8b 45 a0             	mov    -0x60(%ebp),%eax
 1000a86:	e8 25 f8 ff ff       	call   10002b0 <printnum>
 1000a8b:	c7 44 24 04 2e 00 00 	movl   $0x2e,0x4(%esp)
 1000a92:	00 
 1000a93:	8b 5d 18             	mov    0x18(%ebp),%ebx
 1000a96:	89 1c 24             	mov    %ebx,(%esp)
 1000a99:	ff 55 14             	call   *0x14(%ebp)
 1000a9c:	80 7d 9f 00          	cmpb   $0x0,-0x61(%ebp)
 1000aa0:	74 6b                	je     1000b0d <_doprnt+0x7b0>
 1000aa2:	8b 45 b0             	mov    -0x50(%ebp),%eax
 1000aa5:	89 c2                	mov    %eax,%edx
 1000aa7:	c1 fa 1f             	sar    $0x1f,%edx
 1000aaa:	89 45 b4             	mov    %eax,-0x4c(%ebp)
 1000aad:	89 55 b8             	mov    %edx,-0x48(%ebp)
 1000ab0:	8b 45 c4             	mov    -0x3c(%ebp),%eax
 1000ab3:	8b 55 c8             	mov    -0x38(%ebp),%edx
 1000ab6:	03 45 94             	add    -0x6c(%ebp),%eax
 1000ab9:	13 55 98             	adc    -0x68(%ebp),%edx
 1000abc:	3b 55 b8             	cmp    -0x48(%ebp),%edx
 1000abf:	7f 4c                	jg     1000b0d <_doprnt+0x7b0>
 1000ac1:	7c 05                	jl     1000ac8 <_doprnt+0x76b>
 1000ac3:	3b 45 b4             	cmp    -0x4c(%ebp),%eax
 1000ac6:	73 45                	jae    1000b0d <_doprnt+0x7b0>
 1000ac8:	8b 5d c4             	mov    -0x3c(%ebp),%ebx
 1000acb:	8b 75 c8             	mov    -0x38(%ebp),%esi
 1000ace:	83 c3 01             	add    $0x1,%ebx
 1000ad1:	83 d6 00             	adc    $0x0,%esi
 1000ad4:	0f be 55 ac          	movsbl -0x54(%ebp),%edx
 1000ad8:	89 55 ac             	mov    %edx,-0x54(%ebp)
 1000adb:	8b 4d ac             	mov    -0x54(%ebp),%ecx
 1000ade:	89 4c 24 04          	mov    %ecx,0x4(%esp)
 1000ae2:	8b 45 18             	mov    0x18(%ebp),%eax
 1000ae5:	89 04 24             	mov    %eax,(%esp)
 1000ae8:	ff 55 14             	call   *0x14(%ebp)
 1000aeb:	89 5d c4             	mov    %ebx,-0x3c(%ebp)
 1000aee:	89 75 c8             	mov    %esi,-0x38(%ebp)
 1000af1:	83 c3 01             	add    $0x1,%ebx
 1000af4:	83 d6 00             	adc    $0x0,%esi
 1000af7:	8b 45 a4             	mov    -0x5c(%ebp),%eax
 1000afa:	8b 55 a8             	mov    -0x58(%ebp),%edx
 1000afd:	01 d8                	add    %ebx,%eax
 1000aff:	11 f2                	adc    %esi,%edx
 1000b01:	3b 55 b8             	cmp    -0x48(%ebp),%edx
 1000b04:	7c d5                	jl     1000adb <_doprnt+0x77e>
 1000b06:	7f 05                	jg     1000b0d <_doprnt+0x7b0>
 1000b08:	3b 45 b4             	cmp    -0x4c(%ebp),%eax
 1000b0b:	72 ce                	jb     1000adb <_doprnt+0x77e>
 1000b0d:	8b 55 18             	mov    0x18(%ebp),%edx
 1000b10:	89 14 24             	mov    %edx,(%esp)
 1000b13:	8b 4d 14             	mov    0x14(%ebp),%ecx
 1000b16:	ba 10 00 00 00       	mov    $0x10,%edx
 1000b1b:	8b 45 90             	mov    -0x70(%ebp),%eax
 1000b1e:	e8 8d f7 ff ff       	call   10002b0 <printnum>
 1000b23:	83 7d cc 00          	cmpl   $0x0,-0x34(%ebp)
 1000b27:	74 11                	je     1000b3a <_doprnt+0x7dd>
 1000b29:	c7 44 24 04 5d 00 00 	movl   $0x5d,0x4(%esp)
 1000b30:	00 
 1000b31:	8b 4d 18             	mov    0x18(%ebp),%ecx
 1000b34:	89 0c 24             	mov    %ecx,(%esp)
 1000b37:	ff 55 14             	call   *0x14(%ebp)
 1000b3a:	8b 45 b0             	mov    -0x50(%ebp),%eax
 1000b3d:	89 c2                	mov    %eax,%edx
 1000b3f:	c1 fa 1f             	sar    $0x1f,%edx
 1000b42:	89 45 cc             	mov    %eax,-0x34(%ebp)
 1000b45:	89 55 d0             	mov    %edx,-0x30(%ebp)
 1000b48:	8b 55 c4             	mov    -0x3c(%ebp),%edx
 1000b4b:	8b 4d c8             	mov    -0x38(%ebp),%ecx
 1000b4e:	03 55 94             	add    -0x6c(%ebp),%edx
 1000b51:	13 4d 98             	adc    -0x68(%ebp),%ecx
 1000b54:	b8 01 00 00 00       	mov    $0x1,%eax
 1000b59:	3b 4d d0             	cmp    -0x30(%ebp),%ecx
 1000b5c:	7c 0c                	jl     1000b6a <_doprnt+0x80d>
 1000b5e:	7f 05                	jg     1000b65 <_doprnt+0x808>
 1000b60:	3b 55 cc             	cmp    -0x34(%ebp),%edx
 1000b63:	72 05                	jb     1000b6a <_doprnt+0x80d>
 1000b65:	b8 00 00 00 00       	mov    $0x0,%eax
 1000b6a:	84 c0                	test   %al,%al
 1000b6c:	0f 84 8f 05 00 00    	je     1001101 <_doprnt+0xda4>
 1000b72:	83 7d bc 00          	cmpl   $0x0,-0x44(%ebp)
 1000b76:	0f 84 85 05 00 00    	je     1001101 <_doprnt+0xda4>
 1000b7c:	84 c0                	test   %al,%al
 1000b7e:	0f 84 7d 05 00 00    	je     1001101 <_doprnt+0xda4>
 1000b84:	8b 5d c4             	mov    -0x3c(%ebp),%ebx
 1000b87:	8b 75 c8             	mov    -0x38(%ebp),%esi
 1000b8a:	83 c3 01             	add    $0x1,%ebx
 1000b8d:	83 d6 00             	adc    $0x0,%esi
 1000b90:	c7 44 24 04 20 00 00 	movl   $0x20,0x4(%esp)
 1000b97:	00 
 1000b98:	8b 55 18             	mov    0x18(%ebp),%edx
 1000b9b:	89 14 24             	mov    %edx,(%esp)
 1000b9e:	ff 55 14             	call   *0x14(%ebp)
 1000ba1:	83 c3 01             	add    $0x1,%ebx
 1000ba4:	83 d6 00             	adc    $0x0,%esi
 1000ba7:	8b 45 a4             	mov    -0x5c(%ebp),%eax
 1000baa:	8b 55 a8             	mov    -0x58(%ebp),%edx
 1000bad:	01 d8                	add    %ebx,%eax
 1000baf:	11 f2                	adc    %esi,%edx
 1000bb1:	39 55 d0             	cmp    %edx,-0x30(%ebp)
 1000bb4:	7f da                	jg     1000b90 <_doprnt+0x833>
 1000bb6:	0f 8c 45 05 00 00    	jl     1001101 <_doprnt+0xda4>
 1000bbc:	39 45 cc             	cmp    %eax,-0x34(%ebp)
 1000bbf:	77 cf                	ja     1000b90 <_doprnt+0x833>
 1000bc1:	e9 3b 05 00 00       	jmp    1001101 <_doprnt+0xda4>
 1000bc6:	83 fe ff             	cmp    $0xffffffff,%esi
 1000bc9:	b8 ff ff ff 7f       	mov    $0x7fffffff,%eax
 1000bce:	0f 44 f0             	cmove  %eax,%esi
 1000bd1:	8b 4d c4             	mov    -0x3c(%ebp),%ecx
 1000bd4:	83 c1 04             	add    $0x4,%ecx
 1000bd7:	89 4d 0c             	mov    %ecx,0xc(%ebp)
 1000bda:	8b 45 c4             	mov    -0x3c(%ebp),%eax
 1000bdd:	8b 18                	mov    (%eax),%ebx
 1000bdf:	85 db                	test   %ebx,%ebx
 1000be1:	b8 e1 17 00 01       	mov    $0x10017e1,%eax
 1000be6:	0f 44 d8             	cmove  %eax,%ebx
 1000be9:	83 7d b0 00          	cmpl   $0x0,-0x50(%ebp)
 1000bed:	7e 29                	jle    1000c18 <_doprnt+0x8bb>
 1000bef:	83 7d bc 00          	cmpl   $0x0,-0x44(%ebp)
 1000bf3:	75 23                	jne    1000c18 <_doprnt+0x8bb>
 1000bf5:	80 3b 00             	cmpb   $0x0,(%ebx)
 1000bf8:	0f 84 98 00 00 00    	je     1000c96 <_doprnt+0x939>
 1000bfe:	89 f2                	mov    %esi,%edx
 1000c00:	89 f1                	mov    %esi,%ecx
 1000c02:	c1 f9 1f             	sar    $0x1f,%ecx
 1000c05:	85 c9                	test   %ecx,%ecx
 1000c07:	7f 6b                	jg     1000c74 <_doprnt+0x917>
 1000c09:	85 c9                	test   %ecx,%ecx
 1000c0b:	0f 88 85 00 00 00    	js     1000c96 <_doprnt+0x939>
 1000c11:	83 fe 00             	cmp    $0x0,%esi
 1000c14:	77 5e                	ja     1000c74 <_doprnt+0x917>
 1000c16:	eb 7e                	jmp    1000c96 <_doprnt+0x939>
 1000c18:	0f b6 03             	movzbl (%ebx),%eax
 1000c1b:	c7 45 cc 00 00 00 00 	movl   $0x0,-0x34(%ebp)
 1000c22:	c7 45 d0 00 00 00 00 	movl   $0x0,-0x30(%ebp)
 1000c29:	84 c0                	test   %al,%al
 1000c2b:	0f 84 19 01 00 00    	je     1000d4a <_doprnt+0x9ed>
 1000c31:	89 75 c4             	mov    %esi,-0x3c(%ebp)
 1000c34:	89 f2                	mov    %esi,%edx
 1000c36:	c1 fa 1f             	sar    $0x1f,%edx
 1000c39:	89 55 c8             	mov    %edx,-0x38(%ebp)
 1000c3c:	83 7d c8 00          	cmpl   $0x0,-0x38(%ebp)
 1000c40:	7f 1f                	jg     1000c61 <_doprnt+0x904>
 1000c42:	83 7d c8 00          	cmpl   $0x0,-0x38(%ebp)
 1000c46:	78 06                	js     1000c4e <_doprnt+0x8f1>
 1000c48:	83 7d c4 00          	cmpl   $0x0,-0x3c(%ebp)
 1000c4c:	77 13                	ja     1000c61 <_doprnt+0x904>
 1000c4e:	c7 45 cc 01 00 00 00 	movl   $0x1,-0x34(%ebp)
 1000c55:	c7 45 d0 00 00 00 00 	movl   $0x0,-0x30(%ebp)
 1000c5c:	e9 e9 00 00 00       	jmp    1000d4a <_doprnt+0x9ed>
 1000c61:	c7 45 cc 01 00 00 00 	movl   $0x1,-0x34(%ebp)
 1000c68:	c7 45 d0 00 00 00 00 	movl   $0x0,-0x30(%ebp)
 1000c6f:	e9 bc 00 00 00       	jmp    1000d30 <_doprnt+0x9d3>
 1000c74:	89 d8                	mov    %ebx,%eax
 1000c76:	c7 45 cc 00 00 00 00 	movl   $0x0,-0x34(%ebp)
 1000c7d:	c7 45 d0 00 00 00 00 	movl   $0x0,-0x30(%ebp)
 1000c84:	83 45 cc 01          	addl   $0x1,-0x34(%ebp)
 1000c88:	83 55 d0 00          	adcl   $0x0,-0x30(%ebp)
 1000c8c:	83 c0 01             	add    $0x1,%eax
 1000c8f:	80 38 00             	cmpb   $0x0,(%eax)
 1000c92:	75 39                	jne    1000ccd <_doprnt+0x970>
 1000c94:	eb 0e                	jmp    1000ca4 <_doprnt+0x947>
 1000c96:	c7 45 cc 00 00 00 00 	movl   $0x0,-0x34(%ebp)
 1000c9d:	c7 45 d0 00 00 00 00 	movl   $0x0,-0x30(%ebp)
 1000ca4:	8b 45 b0             	mov    -0x50(%ebp),%eax
 1000ca7:	89 c2                	mov    %eax,%edx
 1000ca9:	c1 fa 1f             	sar    $0x1f,%edx
 1000cac:	89 45 c4             	mov    %eax,-0x3c(%ebp)
 1000caf:	89 55 c8             	mov    %edx,-0x38(%ebp)
 1000cb2:	39 55 d0             	cmp    %edx,-0x30(%ebp)
 1000cb5:	7c 2b                	jl     1000ce2 <_doprnt+0x985>
 1000cb7:	8b 55 c8             	mov    -0x38(%ebp),%edx
 1000cba:	39 55 d0             	cmp    %edx,-0x30(%ebp)
 1000cbd:	0f 8f 55 ff ff ff    	jg     1000c18 <_doprnt+0x8bb>
 1000cc3:	39 45 cc             	cmp    %eax,-0x34(%ebp)
 1000cc6:	72 1a                	jb     1000ce2 <_doprnt+0x985>
 1000cc8:	e9 4b ff ff ff       	jmp    1000c18 <_doprnt+0x8bb>
 1000ccd:	39 4d d0             	cmp    %ecx,-0x30(%ebp)
 1000cd0:	7c b2                	jl     1000c84 <_doprnt+0x927>
 1000cd2:	7f d0                	jg     1000ca4 <_doprnt+0x947>
 1000cd4:	39 55 cc             	cmp    %edx,-0x34(%ebp)
 1000cd7:	72 ab                	jb     1000c84 <_doprnt+0x927>
 1000cd9:	8d b4 26 00 00 00 00 	lea    0x0(%esi,%eiz,1),%esi
 1000ce0:	eb c2                	jmp    1000ca4 <_doprnt+0x947>
 1000ce2:	c7 44 24 04 20 00 00 	movl   $0x20,0x4(%esp)
 1000ce9:	00 
 1000cea:	8b 4d 18             	mov    0x18(%ebp),%ecx
 1000ced:	89 0c 24             	mov    %ecx,(%esp)
 1000cf0:	ff 55 14             	call   *0x14(%ebp)
 1000cf3:	83 45 cc 01          	addl   $0x1,-0x34(%ebp)
 1000cf7:	83 55 d0 00          	adcl   $0x0,-0x30(%ebp)
 1000cfb:	8b 45 c8             	mov    -0x38(%ebp),%eax
 1000cfe:	39 45 d0             	cmp    %eax,-0x30(%ebp)
 1000d01:	7c df                	jl     1000ce2 <_doprnt+0x985>
 1000d03:	0f 8f 0f ff ff ff    	jg     1000c18 <_doprnt+0x8bb>
 1000d09:	8b 4d c4             	mov    -0x3c(%ebp),%ecx
 1000d0c:	39 4d cc             	cmp    %ecx,-0x34(%ebp)
 1000d0f:	72 d1                	jb     1000ce2 <_doprnt+0x985>
 1000d11:	e9 02 ff ff ff       	jmp    1000c18 <_doprnt+0x8bb>
 1000d16:	83 45 cc 01          	addl   $0x1,-0x34(%ebp)
 1000d1a:	83 55 d0 00          	adcl   $0x0,-0x30(%ebp)
 1000d1e:	8b 75 c8             	mov    -0x38(%ebp),%esi
 1000d21:	39 75 d0             	cmp    %esi,-0x30(%ebp)
 1000d24:	7f 24                	jg     1000d4a <_doprnt+0x9ed>
 1000d26:	7c 08                	jl     1000d30 <_doprnt+0x9d3>
 1000d28:	8b 4d c4             	mov    -0x3c(%ebp),%ecx
 1000d2b:	39 4d cc             	cmp    %ecx,-0x34(%ebp)
 1000d2e:	77 1a                	ja     1000d4a <_doprnt+0x9ed>
 1000d30:	83 c3 01             	add    $0x1,%ebx
 1000d33:	0f be c0             	movsbl %al,%eax
 1000d36:	89 44 24 04          	mov    %eax,0x4(%esp)
 1000d3a:	8b 75 18             	mov    0x18(%ebp),%esi
 1000d3d:	89 34 24             	mov    %esi,(%esp)
 1000d40:	ff 55 14             	call   *0x14(%ebp)
 1000d43:	0f b6 03             	movzbl (%ebx),%eax
 1000d46:	84 c0                	test   %al,%al
 1000d48:	75 cc                	jne    1000d16 <_doprnt+0x9b9>
 1000d4a:	8b 45 b0             	mov    -0x50(%ebp),%eax
 1000d4d:	89 c2                	mov    %eax,%edx
 1000d4f:	c1 fa 1f             	sar    $0x1f,%edx
 1000d52:	89 c3                	mov    %eax,%ebx
 1000d54:	89 d6                	mov    %edx,%esi
 1000d56:	3b 55 d0             	cmp    -0x30(%ebp),%edx
 1000d59:	0f 8c a2 03 00 00    	jl     1001101 <_doprnt+0xda4>
 1000d5f:	7f 09                	jg     1000d6a <_doprnt+0xa0d>
 1000d61:	3b 45 cc             	cmp    -0x34(%ebp),%eax
 1000d64:	0f 86 97 03 00 00    	jbe    1001101 <_doprnt+0xda4>
 1000d6a:	83 7d bc 00          	cmpl   $0x0,-0x44(%ebp)
 1000d6e:	66 90                	xchg   %ax,%ax
 1000d70:	0f 84 8b 03 00 00    	je     1001101 <_doprnt+0xda4>
 1000d76:	39 75 d0             	cmp    %esi,-0x30(%ebp)
 1000d79:	0f 8f 82 03 00 00    	jg     1001101 <_doprnt+0xda4>
 1000d7f:	90                   	nop
 1000d80:	7c 09                	jl     1000d8b <_doprnt+0xa2e>
 1000d82:	39 5d cc             	cmp    %ebx,-0x34(%ebp)
 1000d85:	0f 83 76 03 00 00    	jae    1001101 <_doprnt+0xda4>
 1000d8b:	c7 44 24 04 20 00 00 	movl   $0x20,0x4(%esp)
 1000d92:	00 
 1000d93:	8b 55 18             	mov    0x18(%ebp),%edx
 1000d96:	89 14 24             	mov    %edx,(%esp)
 1000d99:	ff 55 14             	call   *0x14(%ebp)
 1000d9c:	83 45 cc 01          	addl   $0x1,-0x34(%ebp)
 1000da0:	83 55 d0 00          	adcl   $0x0,-0x30(%ebp)
 1000da4:	3b 75 d0             	cmp    -0x30(%ebp),%esi
 1000da7:	7f e2                	jg     1000d8b <_doprnt+0xa2e>
 1000da9:	0f 8c 52 03 00 00    	jl     1001101 <_doprnt+0xda4>
 1000daf:	3b 5d cc             	cmp    -0x34(%ebp),%ebx
 1000db2:	77 d7                	ja     1000d8b <_doprnt+0xa2e>
 1000db4:	e9 48 03 00 00       	jmp    1001101 <_doprnt+0xda4>
 1000db9:	8b 0d 14 2a 00 01    	mov    0x1002a14,%ecx
 1000dbf:	89 4d b4             	mov    %ecx,-0x4c(%ebp)
 1000dc2:	b9 08 00 00 00       	mov    $0x8,%ecx
 1000dc7:	e9 ff 00 00 00       	jmp    1000ecb <_doprnt+0xb6e>
 1000dcc:	8b 35 14 2a 00 01    	mov    0x1002a14,%esi
 1000dd2:	89 75 b4             	mov    %esi,-0x4c(%ebp)
 1000dd5:	b9 0a 00 00 00       	mov    $0xa,%ecx
 1000dda:	e9 8a 00 00 00       	jmp    1000e69 <_doprnt+0xb0c>
 1000ddf:	a1 14 2a 00 01       	mov    0x1002a14,%eax
 1000de4:	89 45 b4             	mov    %eax,-0x4c(%ebp)
 1000de7:	b9 0a 00 00 00       	mov    $0xa,%ecx
 1000dec:	e9 da 00 00 00       	jmp    1000ecb <_doprnt+0xb6e>
 1000df1:	c7 44 24 04 30 00 00 	movl   $0x30,0x4(%esp)
 1000df8:	00 
 1000df9:	8b 55 18             	mov    0x18(%ebp),%edx
 1000dfc:	89 14 24             	mov    %edx,(%esp)
 1000dff:	ff 55 14             	call   *0x14(%ebp)
 1000e02:	c7 44 24 04 78 00 00 	movl   $0x78,0x4(%esp)
 1000e09:	00 
 1000e0a:	8b 4d 18             	mov    0x18(%ebp),%ecx
 1000e0d:	89 0c 24             	mov    %ecx,(%esp)
 1000e10:	ff 55 14             	call   *0x14(%ebp)
 1000e13:	c6 45 ac 30          	movb   $0x30,-0x54(%ebp)
 1000e17:	c7 45 b0 08 00 00 00 	movl   $0x8,-0x50(%ebp)
 1000e1e:	8b 35 14 2a 00 01    	mov    0x1002a14,%esi
 1000e24:	89 75 b4             	mov    %esi,-0x4c(%ebp)
 1000e27:	b9 10 00 00 00       	mov    $0x10,%ecx
 1000e2c:	e9 9a 00 00 00       	jmp    1000ecb <_doprnt+0xb6e>
 1000e31:	8b 15 14 2a 00 01    	mov    0x1002a14,%edx
 1000e37:	89 55 b4             	mov    %edx,-0x4c(%ebp)
 1000e3a:	b9 10 00 00 00       	mov    $0x10,%ecx
 1000e3f:	eb 28                	jmp    1000e69 <_doprnt+0xb0c>
 1000e41:	8b 0d 14 2a 00 01    	mov    0x1002a14,%ecx
 1000e47:	89 4d b4             	mov    %ecx,-0x4c(%ebp)
 1000e4a:	8b 4d 10             	mov    0x10(%ebp),%ecx
 1000e4d:	eb 1a                	jmp    1000e69 <_doprnt+0xb0c>
 1000e4f:	8b 35 14 2a 00 01    	mov    0x1002a14,%esi
 1000e55:	89 75 b4             	mov    %esi,-0x4c(%ebp)
 1000e58:	8b 4d 10             	mov    0x10(%ebp),%ecx
 1000e5b:	eb 6e                	jmp    1000ecb <_doprnt+0xb6e>
 1000e5d:	b9 10 00 00 00       	mov    $0x10,%ecx
 1000e62:	c7 45 b4 00 00 00 00 	movl   $0x0,-0x4c(%ebp)
 1000e69:	83 fb 01             	cmp    $0x1,%ebx
 1000e6c:	7e 19                	jle    1000e87 <_doprnt+0xb2a>
 1000e6e:	8b 55 c4             	mov    -0x3c(%ebp),%edx
 1000e71:	83 c2 08             	add    $0x8,%edx
 1000e74:	89 55 0c             	mov    %edx,0xc(%ebp)
 1000e77:	8b 75 c4             	mov    -0x3c(%ebp),%esi
 1000e7a:	8b 1e                	mov    (%esi),%ebx
 1000e7c:	8b 76 04             	mov    0x4(%esi),%esi
 1000e7f:	89 5d c4             	mov    %ebx,-0x3c(%ebp)
 1000e82:	89 75 c8             	mov    %esi,-0x38(%ebp)
 1000e85:	eb 19                	jmp    1000ea0 <_doprnt+0xb43>
 1000e87:	8b 55 c4             	mov    -0x3c(%ebp),%edx
 1000e8a:	83 c2 04             	add    $0x4,%edx
 1000e8d:	89 55 0c             	mov    %edx,0xc(%ebp)
 1000e90:	8b 5d c4             	mov    -0x3c(%ebp),%ebx
 1000e93:	8b 13                	mov    (%ebx),%edx
 1000e95:	89 55 c4             	mov    %edx,-0x3c(%ebp)
 1000e98:	89 d6                	mov    %edx,%esi
 1000e9a:	c1 fe 1f             	sar    $0x1f,%esi
 1000e9d:	89 75 c8             	mov    %esi,-0x38(%ebp)
 1000ea0:	8b 5d c4             	mov    -0x3c(%ebp),%ebx
 1000ea3:	8b 75 c8             	mov    -0x38(%ebp),%esi
 1000ea6:	89 45 a4             	mov    %eax,-0x5c(%ebp)
 1000ea9:	83 7d c8 00          	cmpl   $0x0,-0x38(%ebp)
 1000ead:	79 55                	jns    1000f04 <_doprnt+0xba7>
 1000eaf:	f7 db                	neg    %ebx
 1000eb1:	83 d6 00             	adc    $0x0,%esi
 1000eb4:	f7 de                	neg    %esi
 1000eb6:	c7 45 a4 2d 00 00 00 	movl   $0x2d,-0x5c(%ebp)
 1000ebd:	eb 45                	jmp    1000f04 <_doprnt+0xba7>
 1000ebf:	b9 10 00 00 00       	mov    $0x10,%ecx
 1000ec4:	c7 45 b4 00 00 00 00 	movl   $0x0,-0x4c(%ebp)
 1000ecb:	83 fb 01             	cmp    $0x1,%ebx
 1000ece:	7e 1a                	jle    1000eea <_doprnt+0xb8d>
 1000ed0:	8b 45 c4             	mov    -0x3c(%ebp),%eax
 1000ed3:	83 c0 08             	add    $0x8,%eax
 1000ed6:	89 45 0c             	mov    %eax,0xc(%ebp)
 1000ed9:	8b 55 c4             	mov    -0x3c(%ebp),%edx
 1000edc:	8b 1a                	mov    (%edx),%ebx
 1000ede:	8b 72 04             	mov    0x4(%edx),%esi
 1000ee1:	c7 45 a4 00 00 00 00 	movl   $0x0,-0x5c(%ebp)
 1000ee8:	eb 1a                	jmp    1000f04 <_doprnt+0xba7>
 1000eea:	8b 5d c4             	mov    -0x3c(%ebp),%ebx
 1000eed:	83 c3 04             	add    $0x4,%ebx
 1000ef0:	89 5d 0c             	mov    %ebx,0xc(%ebp)
 1000ef3:	8b 45 c4             	mov    -0x3c(%ebp),%eax
 1000ef6:	8b 18                	mov    (%eax),%ebx
 1000ef8:	be 00 00 00 00       	mov    $0x0,%esi
 1000efd:	c7 45 a4 00 00 00 00 	movl   $0x0,-0x5c(%ebp)
 1000f04:	83 7d b4 00          	cmpl   $0x0,-0x4c(%ebp)
 1000f08:	74 05                	je     1000f0f <_doprnt+0xbb2>
 1000f0a:	89 de                	mov    %ebx,%esi
 1000f0c:	c1 fe 1f             	sar    $0x1f,%esi
 1000f0f:	89 f2                	mov    %esi,%edx
 1000f11:	09 da                	or     %ebx,%edx
 1000f13:	74 1e                	je     1000f33 <_doprnt+0xbd6>
 1000f15:	83 7d cc 00          	cmpl   $0x0,-0x34(%ebp)
 1000f19:	74 18                	je     1000f33 <_doprnt+0xbd6>
 1000f1b:	c7 45 c4 fb 17 00 01 	movl   $0x10017fb,-0x3c(%ebp)
 1000f22:	83 f9 08             	cmp    $0x8,%ecx
 1000f25:	74 13                	je     1000f3a <_doprnt+0xbdd>
 1000f27:	c7 45 c4 fd 17 00 01 	movl   $0x10017fd,-0x3c(%ebp)
 1000f2e:	83 f9 10             	cmp    $0x10,%ecx
 1000f31:	74 07                	je     1000f3a <_doprnt+0xbdd>
 1000f33:	c7 45 c4 00 00 00 00 	movl   $0x0,-0x3c(%ebp)
 1000f3a:	8d 45 f3             	lea    -0xd(%ebp),%eax
 1000f3d:	89 4d cc             	mov    %ecx,-0x34(%ebp)
 1000f40:	89 ca                	mov    %ecx,%edx
 1000f42:	c1 fa 1f             	sar    $0x1f,%edx
 1000f45:	89 55 d0             	mov    %edx,-0x30(%ebp)
 1000f48:	89 7d a0             	mov    %edi,-0x60(%ebp)
 1000f4b:	89 c7                	mov    %eax,%edi
 1000f4d:	8b 45 cc             	mov    -0x34(%ebp),%eax
 1000f50:	8b 55 d0             	mov    -0x30(%ebp),%edx
 1000f53:	89 44 24 08          	mov    %eax,0x8(%esp)
 1000f57:	89 54 24 0c          	mov    %edx,0xc(%esp)
 1000f5b:	89 1c 24             	mov    %ebx,(%esp)
 1000f5e:	89 74 24 04          	mov    %esi,0x4(%esp)
 1000f62:	e8 05 08 00 00       	call   100176c <__umoddi3>
 1000f67:	0f b6 80 ec 19 00 01 	movzbl 0x10019ec(%eax),%eax
 1000f6e:	88 07                	mov    %al,(%edi)
 1000f70:	83 ef 01             	sub    $0x1,%edi
 1000f73:	8b 55 cc             	mov    -0x34(%ebp),%edx
 1000f76:	8b 4d d0             	mov    -0x30(%ebp),%ecx
 1000f79:	89 54 24 08          	mov    %edx,0x8(%esp)
 1000f7d:	89 4c 24 0c          	mov    %ecx,0xc(%esp)
 1000f81:	89 1c 24             	mov    %ebx,(%esp)
 1000f84:	89 74 24 04          	mov    %esi,0x4(%esp)
 1000f88:	e8 17 08 00 00       	call   10017a4 <__udivdi3>
 1000f8d:	89 c3                	mov    %eax,%ebx
 1000f8f:	89 d6                	mov    %edx,%esi
 1000f91:	89 d1                	mov    %edx,%ecx
 1000f93:	09 c1                	or     %eax,%ecx
 1000f95:	75 b6                	jne    1000f4d <_doprnt+0xbf0>
 1000f97:	89 7d b4             	mov    %edi,-0x4c(%ebp)
 1000f9a:	8b 7d a0             	mov    -0x60(%ebp),%edi
 1000f9d:	8b 75 b0             	mov    -0x50(%ebp),%esi
 1000fa0:	2b 75 84             	sub    -0x7c(%ebp),%esi
 1000fa3:	03 75 b4             	add    -0x4c(%ebp),%esi
 1000fa6:	83 7d a4 01          	cmpl   $0x1,-0x5c(%ebp)
 1000faa:	83 d6 ff             	adc    $0xffffffff,%esi
 1000fad:	83 7d c4 00          	cmpl   $0x0,-0x3c(%ebp)
 1000fb1:	74 0d                	je     1000fc0 <_doprnt+0xc63>
 1000fb3:	8b 5d c4             	mov    -0x3c(%ebp),%ebx
 1000fb6:	89 1c 24             	mov    %ebx,(%esp)
 1000fb9:	e8 de 01 00 00       	call   100119c <strlen>
 1000fbe:	29 c6                	sub    %eax,%esi
 1000fc0:	80 7d ac 20          	cmpb   $0x20,-0x54(%ebp)
 1000fc4:	75 06                	jne    1000fcc <_doprnt+0xc6f>
 1000fc6:	83 7d bc 00          	cmpl   $0x0,-0x44(%ebp)
 1000fca:	74 05                	je     1000fd1 <_doprnt+0xc74>
 1000fcc:	89 75 cc             	mov    %esi,-0x34(%ebp)
 1000fcf:	eb 33                	jmp    1001004 <_doprnt+0xca7>
 1000fd1:	89 f0                	mov    %esi,%eax
 1000fd3:	83 e8 01             	sub    $0x1,%eax
 1000fd6:	89 45 cc             	mov    %eax,-0x34(%ebp)
 1000fd9:	78 29                	js     1001004 <_doprnt+0xca7>
 1000fdb:	89 c3                	mov    %eax,%ebx
 1000fdd:	89 75 b0             	mov    %esi,-0x50(%ebp)
 1000fe0:	89 7d a0             	mov    %edi,-0x60(%ebp)
 1000fe3:	8b 7d 14             	mov    0x14(%ebp),%edi
 1000fe6:	8b 75 18             	mov    0x18(%ebp),%esi
 1000fe9:	c7 44 24 04 20 00 00 	movl   $0x20,0x4(%esp)
 1000ff0:	00 
 1000ff1:	89 34 24             	mov    %esi,(%esp)
 1000ff4:	ff d7                	call   *%edi
 1000ff6:	83 eb 01             	sub    $0x1,%ebx
 1000ff9:	79 ee                	jns    1000fe9 <_doprnt+0xc8c>
 1000ffb:	8b 75 b0             	mov    -0x50(%ebp),%esi
 1000ffe:	8b 7d a0             	mov    -0x60(%ebp),%edi
 1001001:	29 75 cc             	sub    %esi,-0x34(%ebp)
 1001004:	83 7d a4 00          	cmpl   $0x0,-0x5c(%ebp)
 1001008:	74 10                	je     100101a <_doprnt+0xcbd>
 100100a:	8b 55 a4             	mov    -0x5c(%ebp),%edx
 100100d:	89 54 24 04          	mov    %edx,0x4(%esp)
 1001011:	8b 4d 18             	mov    0x18(%ebp),%ecx
 1001014:	89 0c 24             	mov    %ecx,(%esp)
 1001017:	ff 55 14             	call   *0x14(%ebp)
 100101a:	83 7d c4 00          	cmpl   $0x0,-0x3c(%ebp)
 100101e:	74 2c                	je     100104c <_doprnt+0xcef>
 1001020:	8b 5d c4             	mov    -0x3c(%ebp),%ebx
 1001023:	0f b6 03             	movzbl (%ebx),%eax
 1001026:	84 c0                	test   %al,%al
 1001028:	74 22                	je     100104c <_doprnt+0xcef>
 100102a:	89 7d b0             	mov    %edi,-0x50(%ebp)
 100102d:	8b 7d 14             	mov    0x14(%ebp),%edi
 1001030:	8b 75 18             	mov    0x18(%ebp),%esi
 1001033:	83 c3 01             	add    $0x1,%ebx
 1001036:	0f be c0             	movsbl %al,%eax
 1001039:	89 44 24 04          	mov    %eax,0x4(%esp)
 100103d:	89 34 24             	mov    %esi,(%esp)
 1001040:	ff d7                	call   *%edi
 1001042:	0f b6 03             	movzbl (%ebx),%eax
 1001045:	84 c0                	test   %al,%al
 1001047:	75 ea                	jne    1001033 <_doprnt+0xcd6>
 1001049:	8b 7d b0             	mov    -0x50(%ebp),%edi
 100104c:	8b 75 cc             	mov    -0x34(%ebp),%esi
 100104f:	89 75 c4             	mov    %esi,-0x3c(%ebp)
 1001052:	80 7d ac 30          	cmpb   $0x30,-0x54(%ebp)
 1001056:	75 30                	jne    1001088 <_doprnt+0xd2b>
 1001058:	89 f0                	mov    %esi,%eax
 100105a:	83 e8 01             	sub    $0x1,%eax
 100105d:	89 45 c4             	mov    %eax,-0x3c(%ebp)
 1001060:	78 26                	js     1001088 <_doprnt+0xd2b>
 1001062:	89 c3                	mov    %eax,%ebx
 1001064:	89 7d b0             	mov    %edi,-0x50(%ebp)
 1001067:	8b 7d 14             	mov    0x14(%ebp),%edi
 100106a:	8b 75 18             	mov    0x18(%ebp),%esi
 100106d:	c7 44 24 04 30 00 00 	movl   $0x30,0x4(%esp)
 1001074:	00 
 1001075:	89 34 24             	mov    %esi,(%esp)
 1001078:	ff d7                	call   *%edi
 100107a:	83 eb 01             	sub    $0x1,%ebx
 100107d:	79 ee                	jns    100106d <_doprnt+0xd10>
 100107f:	8b 7d b0             	mov    -0x50(%ebp),%edi
 1001082:	8b 55 cc             	mov    -0x34(%ebp),%edx
 1001085:	29 55 c4             	sub    %edx,-0x3c(%ebp)
 1001088:	8b 5d b4             	mov    -0x4c(%ebp),%ebx
 100108b:	83 c3 01             	add    $0x1,%ebx
 100108e:	8d 75 f4             	lea    -0xc(%ebp),%esi
 1001091:	39 f3                	cmp    %esi,%ebx
 1001093:	74 1d                	je     10010b2 <_doprnt+0xd55>
 1001095:	89 7d cc             	mov    %edi,-0x34(%ebp)
 1001098:	8b 7d 18             	mov    0x18(%ebp),%edi
 100109b:	0f be 03             	movsbl (%ebx),%eax
 100109e:	89 44 24 04          	mov    %eax,0x4(%esp)
 10010a2:	89 3c 24             	mov    %edi,(%esp)
 10010a5:	ff 55 14             	call   *0x14(%ebp)
 10010a8:	83 c3 01             	add    $0x1,%ebx
 10010ab:	39 f3                	cmp    %esi,%ebx
 10010ad:	75 ec                	jne    100109b <_doprnt+0xd3e>
 10010af:	8b 7d cc             	mov    -0x34(%ebp),%edi
 10010b2:	83 7d bc 00          	cmpl   $0x0,-0x44(%ebp)
 10010b6:	74 49                	je     1001101 <_doprnt+0xda4>
 10010b8:	8b 5d c4             	mov    -0x3c(%ebp),%ebx
 10010bb:	83 eb 01             	sub    $0x1,%ebx
 10010be:	78 41                	js     1001101 <_doprnt+0xda4>
 10010c0:	89 7d cc             	mov    %edi,-0x34(%ebp)
 10010c3:	8b 7d 14             	mov    0x14(%ebp),%edi
 10010c6:	8b 75 18             	mov    0x18(%ebp),%esi
 10010c9:	c7 44 24 04 20 00 00 	movl   $0x20,0x4(%esp)
 10010d0:	00 
 10010d1:	89 34 24             	mov    %esi,(%esp)
 10010d4:	ff d7                	call   *%edi
 10010d6:	83 eb 01             	sub    $0x1,%ebx
 10010d9:	79 ee                	jns    10010c9 <_doprnt+0xd6c>
 10010db:	8b 7d cc             	mov    -0x34(%ebp),%edi
 10010de:	eb 21                	jmp    1001101 <_doprnt+0xda4>
 10010e0:	83 ef 01             	sub    $0x1,%edi
 10010e3:	8b 5d c4             	mov    -0x3c(%ebp),%ebx
 10010e6:	89 5d 0c             	mov    %ebx,0xc(%ebp)
 10010e9:	eb 16                	jmp    1001101 <_doprnt+0xda4>
 10010eb:	0f be d2             	movsbl %dl,%edx
 10010ee:	89 54 24 04          	mov    %edx,0x4(%esp)
 10010f2:	8b 75 18             	mov    0x18(%ebp),%esi
 10010f5:	89 34 24             	mov    %esi,(%esp)
 10010f8:	ff 55 14             	call   *0x14(%ebp)
 10010fb:	8b 45 c4             	mov    -0x3c(%ebp),%eax
 10010fe:	89 45 0c             	mov    %eax,0xc(%ebp)
 1001101:	83 c7 01             	add    $0x1,%edi
 1001104:	0f b6 07             	movzbl (%edi),%eax
 1001107:	84 c0                	test   %al,%al
 1001109:	0f 85 65 f2 ff ff    	jne    1000374 <_doprnt+0x17>
 100110f:	eb 69                	jmp    100117a <_doprnt+0xe1d>
 1001111:	8b 45 b0             	mov    -0x50(%ebp),%eax
 1001114:	89 c2                	mov    %eax,%edx
 1001116:	c1 fa 1f             	sar    $0x1f,%edx
 1001119:	83 c0 fe             	add    $0xfffffffe,%eax
 100111c:	83 d2 ff             	adc    $0xffffffff,%edx
 100111f:	89 45 c4             	mov    %eax,-0x3c(%ebp)
 1001122:	89 55 c8             	mov    %edx,-0x38(%ebp)
 1001125:	8b 55 18             	mov    0x18(%ebp),%edx
 1001128:	89 14 24             	mov    %edx,(%esp)
 100112b:	8b 4d 14             	mov    0x14(%ebp),%ecx
 100112e:	ba 10 00 00 00       	mov    $0x10,%edx
 1001133:	8b 45 a0             	mov    -0x60(%ebp),%eax
 1001136:	e8 75 f1 ff ff       	call   10002b0 <printnum>
 100113b:	c7 44 24 04 2e 00 00 	movl   $0x2e,0x4(%esp)
 1001142:	00 
 1001143:	8b 4d 18             	mov    0x18(%ebp),%ecx
 1001146:	89 0c 24             	mov    %ecx,(%esp)
 1001149:	ff 55 14             	call   *0x14(%ebp)
 100114c:	e9 51 f9 ff ff       	jmp    1000aa2 <_doprnt+0x745>
 1001151:	8b 5d 18             	mov    0x18(%ebp),%ebx
 1001154:	89 1c 24             	mov    %ebx,(%esp)
 1001157:	8b 4d 14             	mov    0x14(%ebp),%ecx
 100115a:	ba 10 00 00 00       	mov    $0x10,%edx
 100115f:	8b 45 a0             	mov    -0x60(%ebp),%eax
 1001162:	e8 49 f1 ff ff       	call   10002b0 <printnum>
 1001167:	c7 44 24 04 2e 00 00 	movl   $0x2e,0x4(%esp)
 100116e:	00 
 100116f:	89 1c 24             	mov    %ebx,(%esp)
 1001172:	ff 55 14             	call   *0x14(%ebp)
 1001175:	e9 93 f9 ff ff       	jmp    1000b0d <_doprnt+0x7b0>
 100117a:	83 ec 80             	sub    $0xffffff80,%esp
 100117d:	5b                   	pop    %ebx
 100117e:	5e                   	pop    %esi
 100117f:	5f                   	pop    %edi
 1001180:	5d                   	pop    %ebp
 1001181:	c3                   	ret    
 1001182:	90                   	nop
 1001183:	90                   	nop

01001184 <exit>:
 1001184:	55                   	push   %ebp
 1001185:	89 e5                	mov    %esp,%ebp
 1001187:	83 ec 04             	sub    $0x4,%esp
 100118a:	8b 45 08             	mov    0x8(%ebp),%eax
 100118d:	89 04 24             	mov    %eax,(%esp)
 1001190:	e8 29 00 00 00       	call   10011be <set_status>
 1001195:	e8 da 00 00 00       	call   1001274 <vanish>
 100119a:	90                   	nop
 100119b:	90                   	nop

0100119c <strlen>:
 100119c:	55                   	push   %ebp
 100119d:	89 e5                	mov    %esp,%ebp
 100119f:	8b 4d 08             	mov    0x8(%ebp),%ecx
 10011a2:	89 c8                	mov    %ecx,%eax
 10011a4:	8d 50 01             	lea    0x1(%eax),%edx
 10011a7:	80 38 00             	cmpb   $0x0,(%eax)
 10011aa:	74 04                	je     10011b0 <strlen+0x14>
 10011ac:	89 d0                	mov    %edx,%eax
 10011ae:	eb f4                	jmp    10011a4 <strlen+0x8>
 10011b0:	29 c8                	sub    %ecx,%eax
 10011b2:	5d                   	pop    %ebp
 10011b3:	c3                   	ret    

010011b4 <exec>:
 10011b4:	55                   	push   %ebp
 10011b5:	89 e5                	mov    %esp,%ebp
 10011b7:	b8 ff ff ff ff       	mov    $0xffffffff,%eax
 10011bc:	5d                   	pop    %ebp
 10011bd:	c3                   	ret    

010011be <set_status>:
 10011be:	55                   	push   %ebp
 10011bf:	89 e5                	mov    %esp,%ebp
 10011c1:	5d                   	pop    %ebp
 10011c2:	c3                   	ret    

010011c3 <wait>:
 10011c3:	55                   	push   %ebp
 10011c4:	89 e5                	mov    %esp,%ebp
 10011c6:	b8 ff ff ff ff       	mov    $0xffffffff,%eax
 10011cb:	5d                   	pop    %ebp
 10011cc:	c3                   	ret    

010011cd <yield>:
 10011cd:	55                   	push   %ebp
 10011ce:	89 e5                	mov    %esp,%ebp
 10011d0:	b8 ff ff ff ff       	mov    $0xffffffff,%eax
 10011d5:	5d                   	pop    %ebp
 10011d6:	c3                   	ret    

010011d7 <deschedule>:
 10011d7:	55                   	push   %ebp
 10011d8:	89 e5                	mov    %esp,%ebp
 10011da:	b8 ff ff ff ff       	mov    $0xffffffff,%eax
 10011df:	5d                   	pop    %ebp
 10011e0:	c3                   	ret    

010011e1 <make_runnable>:
 10011e1:	55                   	push   %ebp
 10011e2:	89 e5                	mov    %esp,%ebp
 10011e4:	b8 ff ff ff ff       	mov    $0xffffffff,%eax
 10011e9:	5d                   	pop    %ebp
 10011ea:	c3                   	ret    

010011eb <gettid>:
 10011eb:	55                   	push   %ebp
 10011ec:	89 e5                	mov    %esp,%ebp
 10011ee:	b8 ff ff ff ff       	mov    $0xffffffff,%eax
 10011f3:	5d                   	pop    %ebp
 10011f4:	c3                   	ret    

010011f5 <swexn>:
 10011f5:	55                   	push   %ebp
 10011f6:	89 e5                	mov    %esp,%ebp
 10011f8:	b8 00 00 00 00       	mov    $0x0,%eax
 10011fd:	5d                   	pop    %ebp
 10011fe:	c3                   	ret    

010011ff <getchar>:
 10011ff:	55                   	push   %ebp
 1001200:	89 e5                	mov    %esp,%ebp
 1001202:	b8 ff ff ff ff       	mov    $0xffffffff,%eax
 1001207:	5d                   	pop    %ebp
 1001208:	c3                   	ret    

01001209 <readline>:
 1001209:	55                   	push   %ebp
 100120a:	89 e5                	mov    %esp,%ebp
 100120c:	b8 ff ff ff ff       	mov    $0xffffffff,%eax
 1001211:	5d                   	pop    %ebp
 1001212:	c3                   	ret    

01001213 <print>:
 1001213:	55                   	push   %ebp
 1001214:	89 e5                	mov    %esp,%ebp
 1001216:	b8 ff ff ff ff       	mov    $0xffffffff,%eax
 100121b:	5d                   	pop    %ebp
 100121c:	c3                   	ret    

0100121d <set_term_color>:
 100121d:	55                   	push   %ebp
 100121e:	89 e5                	mov    %esp,%ebp
 1001220:	b8 ff ff ff ff       	mov    $0xffffffff,%eax
 1001225:	5d                   	pop    %ebp
 1001226:	c3                   	ret    

01001227 <get_cursor_pos>:
 1001227:	55                   	push   %ebp
 1001228:	89 e5                	mov    %esp,%ebp
 100122a:	b8 ff ff ff ff       	mov    $0xffffffff,%eax
 100122f:	5d                   	pop    %ebp
 1001230:	c3                   	ret    

01001231 <set_cursor_pos>:
 1001231:	55                   	push   %ebp
 1001232:	89 e5                	mov    %esp,%ebp
 1001234:	b8 ff ff ff ff       	mov    $0xffffffff,%eax
 1001239:	5d                   	pop    %ebp
 100123a:	c3                   	ret    

0100123b <halt>:
 100123b:	55                   	push   %ebp
 100123c:	89 e5                	mov    %esp,%ebp
 100123e:	eb fe                	jmp    100123e <halt+0x3>

01001240 <readfile>:
 1001240:	55                   	push   %ebp
 1001241:	89 e5                	mov    %esp,%ebp
 1001243:	b8 ff ff ff ff       	mov    $0xffffffff,%eax
 1001248:	5d                   	pop    %ebp
 1001249:	c3                   	ret    

0100124a <task_vanish>:
 100124a:	55                   	push   %ebp
 100124b:	89 e5                	mov    %esp,%ebp
 100124d:	eb fe                	jmp    100124d <task_vanish+0x3>

0100124f <new_pages>:
 100124f:	55                   	push   %ebp
 1001250:	89 e5                	mov    %esp,%ebp
 1001252:	b8 ff ff ff ff       	mov    $0xffffffff,%eax
 1001257:	5d                   	pop    %ebp
 1001258:	c3                   	ret    

01001259 <remove_pages>:
 1001259:	55                   	push   %ebp
 100125a:	89 e5                	mov    %esp,%ebp
 100125c:	b8 ff ff ff ff       	mov    $0xffffffff,%eax
 1001261:	5d                   	pop    %ebp
 1001262:	c3                   	ret    

01001263 <get_ticks>:
 1001263:	55                   	push   %ebp
 1001264:	89 e5                	mov    %esp,%ebp
 1001266:	b8 01 00 00 00       	mov    $0x1,%eax
 100126b:	5d                   	pop    %ebp
 100126c:	c3                   	ret    

0100126d <misbehave>:
 100126d:	55                   	push   %ebp
 100126e:	89 e5                	mov    %esp,%ebp
 1001270:	5d                   	pop    %ebp
 1001271:	c3                   	ret    
 1001272:	90                   	nop
 1001273:	90                   	nop

01001274 <vanish>:
 1001274:	cd 60                	int    $0x60
 1001276:	c3                   	ret    
 1001277:	90                   	nop

01001278 <sleep>:
 1001278:	cd 4b                	int    $0x4b
 100127a:	c3                   	ret    
 100127b:	90                   	nop

0100127c <install_autostack>:
 100127c:	55                   	push   %ebp
 100127d:	89 e5                	mov    %esp,%ebp
 100127f:	5d                   	pop    %ebp
 1001280:	c3                   	ret    
 1001281:	90                   	nop
 1001282:	90                   	nop
 1001283:	90                   	nop
 1001284:	90                   	nop
 1001285:	90                   	nop
 1001286:	90                   	nop
 1001287:	90                   	nop
 1001288:	90                   	nop
 1001289:	90                   	nop
 100128a:	90                   	nop
 100128b:	90                   	nop
 100128c:	90                   	nop
 100128d:	90                   	nop
 100128e:	90                   	nop
 100128f:	90                   	nop

01001290 <shl>:
 1001290:	55                   	push   %ebp
 1001291:	89 e5                	mov    %esp,%ebp
 1001293:	57                   	push   %edi
 1001294:	56                   	push   %esi
 1001295:	53                   	push   %ebx
 1001296:	83 ec 0c             	sub    $0xc,%esp
 1001299:	89 d7                	mov    %edx,%edi
 100129b:	89 ce                	mov    %ecx,%esi
 100129d:	ba 00 00 00 00       	mov    $0x0,%edx
 10012a2:	b9 00 00 00 00       	mov    $0x0,%ecx
 10012a7:	85 ff                	test   %edi,%edi
 10012a9:	7e 34                	jle    10012df <shl+0x4f>
 10012ab:	b1 10                	mov    $0x10,%cl
 10012ad:	29 f1                	sub    %esi,%ecx
 10012af:	89 4d f0             	mov    %ecx,-0x10(%ebp)
 10012b2:	89 7d e8             	mov    %edi,-0x18(%ebp)
 10012b5:	8b 5c 90 04          	mov    0x4(%eax,%edx,4),%ebx
 10012b9:	0f b6 4d f0          	movzbl -0x10(%ebp),%ecx
 10012bd:	d3 eb                	shr    %cl,%ebx
 10012bf:	8b 3c 90             	mov    (%eax,%edx,4),%edi
 10012c2:	89 f1                	mov    %esi,%ecx
 10012c4:	d3 e7                	shl    %cl,%edi
 10012c6:	89 7d ec             	mov    %edi,-0x14(%ebp)
 10012c9:	0f b7 4d ec          	movzwl -0x14(%ebp),%ecx
 10012cd:	09 cb                	or     %ecx,%ebx
 10012cf:	89 1c 90             	mov    %ebx,(%eax,%edx,4)
 10012d2:	83 c2 01             	add    $0x1,%edx
 10012d5:	3b 55 e8             	cmp    -0x18(%ebp),%edx
 10012d8:	75 db                	jne    10012b5 <shl+0x25>
 10012da:	8b 7d e8             	mov    -0x18(%ebp),%edi
 10012dd:	89 f9                	mov    %edi,%ecx
 10012df:	8d 04 88             	lea    (%eax,%ecx,4),%eax
 10012e2:	8b 10                	mov    (%eax),%edx
 10012e4:	89 f1                	mov    %esi,%ecx
 10012e6:	d3 e2                	shl    %cl,%edx
 10012e8:	81 e2 ff ff 00 00    	and    $0xffff,%edx
 10012ee:	89 10                	mov    %edx,(%eax)
 10012f0:	83 c4 0c             	add    $0xc,%esp
 10012f3:	5b                   	pop    %ebx
 10012f4:	5e                   	pop    %esi
 10012f5:	5f                   	pop    %edi
 10012f6:	5d                   	pop    %ebp
 10012f7:	c3                   	ret    

010012f8 <__qdivrem>:
 10012f8:	55                   	push   %ebp
 10012f9:	89 e5                	mov    %esp,%ebp
 10012fb:	57                   	push   %edi
 10012fc:	56                   	push   %esi
 10012fd:	53                   	push   %ebx
 10012fe:	83 ec 6c             	sub    $0x6c,%esp
 1001301:	8b 75 08             	mov    0x8(%ebp),%esi
 1001304:	8b 4d 0c             	mov    0xc(%ebp),%ecx
 1001307:	8b 7d 10             	mov    0x10(%ebp),%edi
 100130a:	8b 45 14             	mov    0x14(%ebp),%eax
 100130d:	8b 5d 18             	mov    0x18(%ebp),%ebx
 1001310:	89 c2                	mov    %eax,%edx
 1001312:	09 fa                	or     %edi,%edx
 1001314:	75 24                	jne    100133a <__qdivrem+0x42>
 1001316:	8b 3d 10 2a 00 01    	mov    0x1002a10,%edi
 100131c:	b8 01 00 00 00       	mov    $0x1,%eax
 1001321:	ba 00 00 00 00       	mov    $0x0,%edx
 1001326:	f7 f7                	div    %edi
 1001328:	85 db                	test   %ebx,%ebx
 100132a:	74 05                	je     1001331 <__qdivrem+0x39>
 100132c:	89 33                	mov    %esi,(%ebx)
 100132e:	89 4b 04             	mov    %ecx,0x4(%ebx)
 1001331:	89 c3                	mov    %eax,%ebx
 1001333:	89 da                	mov    %ebx,%edx
 1001335:	e9 2a 04 00 00       	jmp    1001764 <__qdivrem+0x46c>
 100133a:	39 c8                	cmp    %ecx,%eax
 100133c:	72 22                	jb     1001360 <__qdivrem+0x68>
 100133e:	77 04                	ja     1001344 <__qdivrem+0x4c>
 1001340:	39 f7                	cmp    %esi,%edi
 1001342:	76 1c                	jbe    1001360 <__qdivrem+0x68>
 1001344:	b8 00 00 00 00       	mov    $0x0,%eax
 1001349:	ba 00 00 00 00       	mov    $0x0,%edx
 100134e:	85 db                	test   %ebx,%ebx
 1001350:	0f 84 0e 04 00 00    	je     1001764 <__qdivrem+0x46c>
 1001356:	89 33                	mov    %esi,(%ebx)
 1001358:	89 4b 04             	mov    %ecx,0x4(%ebx)
 100135b:	e9 04 04 00 00       	jmp    1001764 <__qdivrem+0x46c>
 1001360:	c7 44 24 58 00 00 00 	movl   $0x0,0x58(%esp)
 1001367:	00 
 1001368:	89 ca                	mov    %ecx,%edx
 100136a:	c1 ea 10             	shr    $0x10,%edx
 100136d:	89 54 24 28          	mov    %edx,0x28(%esp)
 1001371:	89 54 24 5c          	mov    %edx,0x5c(%esp)
 1001375:	81 e1 ff ff 00 00    	and    $0xffff,%ecx
 100137b:	89 4c 24 60          	mov    %ecx,0x60(%esp)
 100137f:	89 f2                	mov    %esi,%edx
 1001381:	c1 ea 10             	shr    $0x10,%edx
 1001384:	89 54 24 2c          	mov    %edx,0x2c(%esp)
 1001388:	89 54 24 64          	mov    %edx,0x64(%esp)
 100138c:	81 e6 ff ff 00 00    	and    $0xffff,%esi
 1001392:	89 74 24 24          	mov    %esi,0x24(%esp)
 1001396:	89 74 24 68          	mov    %esi,0x68(%esp)
 100139a:	89 c2                	mov    %eax,%edx
 100139c:	c1 ea 10             	shr    $0x10,%edx
 100139f:	89 54 24 48          	mov    %edx,0x48(%esp)
 10013a3:	25 ff ff 00 00       	and    $0xffff,%eax
 10013a8:	89 44 24 4c          	mov    %eax,0x4c(%esp)
 10013ac:	89 f8                	mov    %edi,%eax
 10013ae:	c1 e8 10             	shr    $0x10,%eax
 10013b1:	89 44 24 50          	mov    %eax,0x50(%esp)
 10013b5:	81 e7 ff ff 00 00    	and    $0xffff,%edi
 10013bb:	89 7c 24 54          	mov    %edi,0x54(%esp)
 10013bf:	85 d2                	test   %edx,%edx
 10013c1:	74 1d                	je     10013e0 <__qdivrem+0xe8>
 10013c3:	8d 4c 24 48          	lea    0x48(%esp),%ecx
 10013c7:	89 4c 24 28          	mov    %ecx,0x28(%esp)
 10013cb:	c7 44 24 20 04 00 00 	movl   $0x4,0x20(%esp)
 10013d2:	00 
 10013d3:	8d 74 24 44          	lea    0x44(%esp),%esi
 10013d7:	89 74 24 2c          	mov    %esi,0x2c(%esp)
 10013db:	e9 d8 00 00 00       	jmp    10014b8 <__qdivrem+0x1c0>
 10013e0:	8b 54 24 4c          	mov    0x4c(%esp),%edx
 10013e4:	85 d2                	test   %edx,%edx
 10013e6:	74 1d                	je     1001405 <__qdivrem+0x10d>
 10013e8:	8d 7c 24 4c          	lea    0x4c(%esp),%edi
 10013ec:	89 7c 24 28          	mov    %edi,0x28(%esp)
 10013f0:	c7 44 24 20 03 00 00 	movl   $0x3,0x20(%esp)
 10013f7:	00 
 10013f8:	8d 44 24 48          	lea    0x48(%esp),%eax
 10013fc:	89 44 24 2c          	mov    %eax,0x2c(%esp)
 1001400:	e9 b3 00 00 00       	jmp    10014b8 <__qdivrem+0x1c0>
 1001405:	8b 54 24 50          	mov    0x50(%esp),%edx
 1001409:	85 d2                	test   %edx,%edx
 100140b:	0f 85 8f 00 00 00    	jne    10014a0 <__qdivrem+0x1a8>
 1001411:	8b 44 24 28          	mov    0x28(%esp),%eax
 1001415:	ba 00 00 00 00       	mov    $0x0,%edx
 100141a:	f7 f7                	div    %edi
 100141c:	c1 e2 10             	shl    $0x10,%edx
 100141f:	09 d1                	or     %edx,%ecx
 1001421:	89 c8                	mov    %ecx,%eax
 1001423:	ba 00 00 00 00       	mov    $0x0,%edx
 1001428:	f7 f7                	div    %edi
 100142a:	c1 e2 10             	shl    $0x10,%edx
 100142d:	0b 54 24 2c          	or     0x2c(%esp),%edx
 1001431:	89 54 24 2c          	mov    %edx,0x2c(%esp)
 1001435:	89 d0                	mov    %edx,%eax
 1001437:	ba 00 00 00 00       	mov    $0x0,%edx
 100143c:	f7 f7                	div    %edi
 100143e:	89 d6                	mov    %edx,%esi
 1001440:	c1 e6 10             	shl    $0x10,%esi
 1001443:	0b 74 24 24          	or     0x24(%esp),%esi
 1001447:	85 db                	test   %ebx,%ebx
 1001449:	74 12                	je     100145d <__qdivrem+0x165>
 100144b:	89 f0                	mov    %esi,%eax
 100144d:	ba 00 00 00 00       	mov    $0x0,%edx
 1001452:	f7 f7                	div    %edi
 1001454:	89 13                	mov    %edx,(%ebx)
 1001456:	c7 43 04 00 00 00 00 	movl   $0x0,0x4(%ebx)
 100145d:	89 c8                	mov    %ecx,%eax
 100145f:	ba 00 00 00 00       	mov    $0x0,%edx
 1001464:	f7 f7                	div    %edi
 1001466:	89 c3                	mov    %eax,%ebx
 1001468:	8b 44 24 28          	mov    0x28(%esp),%eax
 100146c:	ba 00 00 00 00       	mov    $0x0,%edx
 1001471:	f7 f7                	div    %edi
 1001473:	89 c1                	mov    %eax,%ecx
 1001475:	c1 e1 10             	shl    $0x10,%ecx
 1001478:	89 f0                	mov    %esi,%eax
 100147a:	ba 00 00 00 00       	mov    $0x0,%edx
 100147f:	f7 f7                	div    %edi
 1001481:	89 c6                	mov    %eax,%esi
 1001483:	8b 44 24 2c          	mov    0x2c(%esp),%eax
 1001487:	ba 00 00 00 00       	mov    $0x0,%edx
 100148c:	f7 f7                	div    %edi
 100148e:	c1 e0 10             	shl    $0x10,%eax
 1001491:	89 f7                	mov    %esi,%edi
 1001493:	09 c7                	or     %eax,%edi
 1001495:	89 da                	mov    %ebx,%edx
 1001497:	09 ca                	or     %ecx,%edx
 1001499:	89 f8                	mov    %edi,%eax
 100149b:	e9 c4 02 00 00       	jmp    1001764 <__qdivrem+0x46c>
 10014a0:	8d 4c 24 50          	lea    0x50(%esp),%ecx
 10014a4:	89 4c 24 28          	mov    %ecx,0x28(%esp)
 10014a8:	c7 44 24 20 02 00 00 	movl   $0x2,0x20(%esp)
 10014af:	00 
 10014b0:	8d 74 24 4c          	lea    0x4c(%esp),%esi
 10014b4:	89 74 24 2c          	mov    %esi,0x2c(%esp)
 10014b8:	b8 04 00 00 00       	mov    $0x4,%eax
 10014bd:	2b 44 24 20          	sub    0x20(%esp),%eax
 10014c1:	89 44 24 14          	mov    %eax,0x14(%esp)
 10014c5:	8d 74 24 58          	lea    0x58(%esp),%esi
 10014c9:	83 7c 24 5c 00       	cmpl   $0x0,0x5c(%esp)
 10014ce:	75 19                	jne    10014e9 <__qdivrem+0x1f1>
 10014d0:	8d 74 24 5c          	lea    0x5c(%esp),%esi
 10014d4:	89 c1                	mov    %eax,%ecx
 10014d6:	83 e9 01             	sub    $0x1,%ecx
 10014d9:	8d 46 04             	lea    0x4(%esi),%eax
 10014dc:	83 38 00             	cmpl   $0x0,(%eax)
 10014df:	75 04                	jne    10014e5 <__qdivrem+0x1ed>
 10014e1:	89 c6                	mov    %eax,%esi
 10014e3:	eb f1                	jmp    10014d6 <__qdivrem+0x1de>
 10014e5:	89 4c 24 14          	mov    %ecx,0x14(%esp)
 10014e9:	bf 04 00 00 00       	mov    $0x4,%edi
 10014ee:	2b 7c 24 14          	sub    0x14(%esp),%edi
 10014f2:	89 f8                	mov    %edi,%eax
 10014f4:	83 e8 01             	sub    $0x1,%eax
 10014f7:	78 13                	js     100150c <__qdivrem+0x214>
 10014f9:	8d 4c 24 30          	lea    0x30(%esp),%ecx
 10014fd:	c7 04 81 00 00 00 00 	movl   $0x0,(%ecx,%eax,4)
 1001504:	83 e8 01             	sub    $0x1,%eax
 1001507:	83 f8 ff             	cmp    $0xffffffff,%eax
 100150a:	75 f1                	jne    10014fd <__qdivrem+0x205>
 100150c:	8d 7c bc 30          	lea    0x30(%esp,%edi,4),%edi
 1001510:	89 7c 24 04          	mov    %edi,0x4(%esp)
 1001514:	c7 44 24 10 00 00 00 	movl   $0x0,0x10(%esp)
 100151b:	00 
 100151c:	81 fa ff 7f 00 00    	cmp    $0x7fff,%edx
 1001522:	77 3e                	ja     1001562 <__qdivrem+0x26a>
 1001524:	8b 44 24 10          	mov    0x10(%esp),%eax
 1001528:	83 c0 01             	add    $0x1,%eax
 100152b:	01 d2                	add    %edx,%edx
 100152d:	81 fa ff 7f 00 00    	cmp    $0x7fff,%edx
 1001533:	76 f3                	jbe    1001528 <__qdivrem+0x230>
 1001535:	89 44 24 10          	mov    %eax,0x10(%esp)
 1001539:	89 c7                	mov    %eax,%edi
 100153b:	85 c0                	test   %eax,%eax
 100153d:	7e 23                	jle    1001562 <__qdivrem+0x26a>
 100153f:	8b 54 24 14          	mov    0x14(%esp),%edx
 1001543:	03 54 24 20          	add    0x20(%esp),%edx
 1001547:	89 c1                	mov    %eax,%ecx
 1001549:	89 f0                	mov    %esi,%eax
 100154b:	e8 40 fd ff ff       	call   1001290 <shl>
 1001550:	8b 54 24 20          	mov    0x20(%esp),%edx
 1001554:	83 ea 01             	sub    $0x1,%edx
 1001557:	89 f9                	mov    %edi,%ecx
 1001559:	8b 44 24 28          	mov    0x28(%esp),%eax
 100155d:	e8 2e fd ff ff       	call   1001290 <shl>
 1001562:	8b 7c 24 28          	mov    0x28(%esp),%edi
 1001566:	8b 3f                	mov    (%edi),%edi
 1001568:	89 7c 24 18          	mov    %edi,0x18(%esp)
 100156c:	8b 44 24 2c          	mov    0x2c(%esp),%eax
 1001570:	8b 40 08             	mov    0x8(%eax),%eax
 1001573:	89 44 24 08          	mov    %eax,0x8(%esp)
 1001577:	8b 54 24 20          	mov    0x20(%esp),%edx
 100157b:	8d 14 96             	lea    (%esi,%edx,4),%edx
 100157e:	89 54 24 0c          	mov    %edx,0xc(%esp)
 1001582:	c7 44 24 28 00 00 00 	movl   $0x0,0x28(%esp)
 1001589:	00 
 100158a:	89 74 24 24          	mov    %esi,0x24(%esp)
 100158e:	8b 4c 24 2c          	mov    0x2c(%esp),%ecx
 1001592:	89 1c 24             	mov    %ebx,(%esp)
 1001595:	8b 5c 24 28          	mov    0x28(%esp),%ebx
 1001599:	89 5c 24 1c          	mov    %ebx,0x1c(%esp)
 100159d:	89 de                	mov    %ebx,%esi
 100159f:	8b 7c 24 24          	mov    0x24(%esp),%edi
 10015a3:	8b 1c 9f             	mov    (%edi,%ebx,4),%ebx
 10015a6:	8b 54 b7 04          	mov    0x4(%edi,%esi,4),%edx
 10015aa:	8b 7c b7 08          	mov    0x8(%edi,%esi,4),%edi
 10015ae:	3b 5c 24 18          	cmp    0x18(%esp),%ebx
 10015b2:	74 12                	je     10015c6 <__qdivrem+0x2ce>
 10015b4:	89 d8                	mov    %ebx,%eax
 10015b6:	c1 e0 10             	shl    $0x10,%eax
 10015b9:	09 d0                	or     %edx,%eax
 10015bb:	ba 00 00 00 00       	mov    $0x0,%edx
 10015c0:	f7 74 24 18          	divl   0x18(%esp)
 10015c4:	eb 14                	jmp    10015da <__qdivrem+0x2e2>
 10015c6:	b8 00 00 01 00       	mov    $0x10000,%eax
 10015cb:	83 e8 01             	sub    $0x1,%eax
 10015ce:	03 54 24 18          	add    0x18(%esp),%edx
 10015d2:	81 fa ff ff 00 00    	cmp    $0xffff,%edx
 10015d8:	77 12                	ja     10015ec <__qdivrem+0x2f4>
 10015da:	8b 74 24 08          	mov    0x8(%esp),%esi
 10015de:	0f af f0             	imul   %eax,%esi
 10015e1:	89 d3                	mov    %edx,%ebx
 10015e3:	c1 e3 10             	shl    $0x10,%ebx
 10015e6:	09 fb                	or     %edi,%ebx
 10015e8:	39 de                	cmp    %ebx,%esi
 10015ea:	77 df                	ja     10015cb <__qdivrem+0x2d3>
 10015ec:	be 00 00 00 00       	mov    $0x0,%esi
 10015f1:	83 7c 24 20 00       	cmpl   $0x0,0x20(%esp)
 10015f6:	7e 44                	jle    100163c <__qdivrem+0x344>
 10015f8:	8b 5c 24 0c          	mov    0xc(%esp),%ebx
 10015fc:	8b 54 24 20          	mov    0x20(%esp),%edx
 1001600:	89 44 24 2c          	mov    %eax,0x2c(%esp)
 1001604:	8b 7c 24 2c          	mov    0x2c(%esp),%edi
 1001608:	0f af 3c 91          	imul   (%ecx,%edx,4),%edi
 100160c:	8b 03                	mov    (%ebx),%eax
 100160e:	29 f8                	sub    %edi,%eax
 1001610:	89 c7                	mov    %eax,%edi
 1001612:	29 f7                	sub    %esi,%edi
 1001614:	89 fe                	mov    %edi,%esi
 1001616:	81 e7 ff ff 00 00    	and    $0xffff,%edi
 100161c:	89 3b                	mov    %edi,(%ebx)
 100161e:	c1 ee 10             	shr    $0x10,%esi
 1001621:	bf 00 00 01 00       	mov    $0x10000,%edi
 1001626:	29 f7                	sub    %esi,%edi
 1001628:	89 fe                	mov    %edi,%esi
 100162a:	81 e6 ff ff 00 00    	and    $0xffff,%esi
 1001630:	83 eb 04             	sub    $0x4,%ebx
 1001633:	83 ea 01             	sub    $0x1,%edx
 1001636:	75 cc                	jne    1001604 <__qdivrem+0x30c>
 1001638:	8b 44 24 2c          	mov    0x2c(%esp),%eax
 100163c:	8b 5c 24 1c          	mov    0x1c(%esp),%ebx
 1001640:	8b 7c 24 24          	mov    0x24(%esp),%edi
 1001644:	8b 14 9f             	mov    (%edi,%ebx,4),%edx
 1001647:	29 f2                	sub    %esi,%edx
 1001649:	0f b7 da             	movzwl %dx,%ebx
 100164c:	8b 74 24 1c          	mov    0x1c(%esp),%esi
 1001650:	89 1c b7             	mov    %ebx,(%edi,%esi,4)
 1001653:	c1 ea 10             	shr    $0x10,%edx
 1001656:	85 d2                	test   %edx,%edx
 1001658:	74 48                	je     10016a2 <__qdivrem+0x3aa>
 100165a:	be 00 00 00 00       	mov    $0x0,%esi
 100165f:	83 7c 24 20 00       	cmpl   $0x0,0x20(%esp)
 1001664:	7e 25                	jle    100168b <__qdivrem+0x393>
 1001666:	8b 5c 24 0c          	mov    0xc(%esp),%ebx
 100166a:	8b 54 24 20          	mov    0x20(%esp),%edx
 100166e:	89 c7                	mov    %eax,%edi
 1001670:	89 f0                	mov    %esi,%eax
 1001672:	03 04 91             	add    (%ecx,%edx,4),%eax
 1001675:	03 03                	add    (%ebx),%eax
 1001677:	0f b7 f0             	movzwl %ax,%esi
 100167a:	89 33                	mov    %esi,(%ebx)
 100167c:	c1 e8 10             	shr    $0x10,%eax
 100167f:	83 eb 04             	sub    $0x4,%ebx
 1001682:	83 ea 01             	sub    $0x1,%edx
 1001685:	75 eb                	jne    1001672 <__qdivrem+0x37a>
 1001687:	89 c6                	mov    %eax,%esi
 1001689:	89 f8                	mov    %edi,%eax
 100168b:	83 e8 01             	sub    $0x1,%eax
 100168e:	8b 7c 24 1c          	mov    0x1c(%esp),%edi
 1001692:	8b 54 24 24          	mov    0x24(%esp),%edx
 1001696:	03 34 ba             	add    (%edx,%edi,4),%esi
 1001699:	81 e6 ff ff 00 00    	and    $0xffff,%esi
 100169f:	89 34 ba             	mov    %esi,(%edx,%edi,4)
 10016a2:	8b 5c 24 1c          	mov    0x1c(%esp),%ebx
 10016a6:	8b 74 24 04          	mov    0x4(%esp),%esi
 10016aa:	89 04 9e             	mov    %eax,(%esi,%ebx,4)
 10016ad:	83 44 24 28 01       	addl   $0x1,0x28(%esp)
 10016b2:	83 44 24 0c 04       	addl   $0x4,0xc(%esp)
 10016b7:	8b 7c 24 14          	mov    0x14(%esp),%edi
 10016bb:	39 7c 24 28          	cmp    %edi,0x28(%esp)
 10016bf:	0f 8e d0 fe ff ff    	jle    1001595 <__qdivrem+0x29d>
 10016c5:	8b 74 24 24          	mov    0x24(%esp),%esi
 10016c9:	8b 1c 24             	mov    (%esp),%ebx
 10016cc:	85 db                	test   %ebx,%ebx
 10016ce:	74 76                	je     1001746 <__qdivrem+0x44e>
 10016d0:	83 7c 24 10 00       	cmpl   $0x0,0x10(%esp)
 10016d5:	74 54                	je     100172b <__qdivrem+0x433>
 10016d7:	89 f8                	mov    %edi,%eax
 10016d9:	03 44 24 20          	add    0x20(%esp),%eax
 10016dd:	39 f8                	cmp    %edi,%eax
 10016df:	7e 43                	jle    1001724 <__qdivrem+0x42c>
 10016e1:	ba 10 00 00 00       	mov    $0x10,%edx
 10016e6:	2b 54 24 10          	sub    0x10(%esp),%edx
 10016ea:	8b 7c 24 10          	mov    0x10(%esp),%edi
 10016ee:	89 5c 24 28          	mov    %ebx,0x28(%esp)
 10016f2:	89 54 24 24          	mov    %edx,0x24(%esp)
 10016f6:	8b 54 86 fc          	mov    -0x4(%esi,%eax,4),%edx
 10016fa:	0f b6 4c 24 24       	movzbl 0x24(%esp),%ecx
 10016ff:	d3 e2                	shl    %cl,%edx
 1001701:	81 e2 ff ff 00 00    	and    $0xffff,%edx
 1001707:	8b 1c 86             	mov    (%esi,%eax,4),%ebx
 100170a:	89 f9                	mov    %edi,%ecx
 100170c:	d3 eb                	shr    %cl,%ebx
 100170e:	09 da                	or     %ebx,%edx
 1001710:	89 14 86             	mov    %edx,(%esi,%eax,4)
 1001713:	83 e8 01             	sub    $0x1,%eax
 1001716:	3b 44 24 14          	cmp    0x14(%esp),%eax
 100171a:	7f da                	jg     10016f6 <__qdivrem+0x3fe>
 100171c:	8b 5c 24 28          	mov    0x28(%esp),%ebx
 1001720:	8b 44 24 14          	mov    0x14(%esp),%eax
 1001724:	c7 04 86 00 00 00 00 	movl   $0x0,(%esi,%eax,4)
 100172b:	8b 44 24 5c          	mov    0x5c(%esp),%eax
 100172f:	c1 e0 10             	shl    $0x10,%eax
 1001732:	0b 44 24 60          	or     0x60(%esp),%eax
 1001736:	8b 54 24 64          	mov    0x64(%esp),%edx
 100173a:	c1 e2 10             	shl    $0x10,%edx
 100173d:	0b 54 24 68          	or     0x68(%esp),%edx
 1001741:	89 13                	mov    %edx,(%ebx)
 1001743:	89 43 04             	mov    %eax,0x4(%ebx)
 1001746:	8b 44 24 34          	mov    0x34(%esp),%eax
 100174a:	c1 e0 10             	shl    $0x10,%eax
 100174d:	8b 54 24 3c          	mov    0x3c(%esp),%edx
 1001751:	c1 e2 10             	shl    $0x10,%edx
 1001754:	89 d3                	mov    %edx,%ebx
 1001756:	0b 5c 24 40          	or     0x40(%esp),%ebx
 100175a:	89 c1                	mov    %eax,%ecx
 100175c:	0b 4c 24 38          	or     0x38(%esp),%ecx
 1001760:	89 d8                	mov    %ebx,%eax
 1001762:	89 ca                	mov    %ecx,%edx
 1001764:	83 c4 6c             	add    $0x6c,%esp
 1001767:	5b                   	pop    %ebx
 1001768:	5e                   	pop    %esi
 1001769:	5f                   	pop    %edi
 100176a:	5d                   	pop    %ebp
 100176b:	c3                   	ret    

0100176c <__umoddi3>:
 100176c:	55                   	push   %ebp
 100176d:	89 e5                	mov    %esp,%ebp
 100176f:	83 ec 1c             	sub    $0x1c,%esp
 1001772:	8d 44 24 14          	lea    0x14(%esp),%eax
 1001776:	89 44 24 10          	mov    %eax,0x10(%esp)
 100177a:	8b 45 10             	mov    0x10(%ebp),%eax
 100177d:	8b 55 14             	mov    0x14(%ebp),%edx
 1001780:	89 44 24 08          	mov    %eax,0x8(%esp)
 1001784:	89 54 24 0c          	mov    %edx,0xc(%esp)
 1001788:	8b 45 08             	mov    0x8(%ebp),%eax
 100178b:	8b 55 0c             	mov    0xc(%ebp),%edx
 100178e:	89 04 24             	mov    %eax,(%esp)
 1001791:	89 54 24 04          	mov    %edx,0x4(%esp)
 1001795:	e8 5e fb ff ff       	call   10012f8 <__qdivrem>
 100179a:	8b 44 24 14          	mov    0x14(%esp),%eax
 100179e:	8b 54 24 18          	mov    0x18(%esp),%edx
 10017a2:	c9                   	leave  
 10017a3:	c3                   	ret    

010017a4 <__udivdi3>:
 10017a4:	55                   	push   %ebp
 10017a5:	89 e5                	mov    %esp,%ebp
 10017a7:	83 ec 14             	sub    $0x14,%esp
 10017aa:	c7 44 24 10 00 00 00 	movl   $0x0,0x10(%esp)
 10017b1:	00 
 10017b2:	8b 45 10             	mov    0x10(%ebp),%eax
 10017b5:	8b 55 14             	mov    0x14(%ebp),%edx
 10017b8:	89 44 24 08          	mov    %eax,0x8(%esp)
 10017bc:	89 54 24 0c          	mov    %edx,0xc(%esp)
 10017c0:	8b 45 08             	mov    0x8(%ebp),%eax
 10017c3:	8b 55 0c             	mov    0xc(%ebp),%edx
 10017c6:	89 04 24             	mov    %eax,(%esp)
 10017c9:	89 54 24 04          	mov    %edx,0x4(%esp)
 10017cd:	e8 26 fb ff ff       	call   10012f8 <__qdivrem>
 10017d2:	c9                   	leave  
 10017d3:	c3                   	ret    

Disassembly of section .rodata:

010017d4 <digits.1059-0x218>:
 10017d4:	49                   	dec    %ecx
 10017d5:	6e                   	outsb  %ds:(%esi),(%dx)
 10017d6:	73 69                	jae    1001841 <__udivdi3+0x9d>
 10017d8:	64 65 20 6d 61       	fs and %ch,%fs:%gs:0x61(%ebp)
 10017dd:	69 6e 20 0a 00 42 34 	imul   $0x3442000a,0x20(%esi),%ebp
 10017e4:	20 73 6c             	and    %dh,0x6c(%ebx)
 10017e7:	65                   	gs
 10017e8:	65                   	gs
 10017e9:	70 20                	jo     100180b <__udivdi3+0x67>
 10017eb:	0a 00                	or     (%eax),%al
 10017ed:	41                   	inc    %ecx
 10017ee:	66                   	data16
 10017ef:	74 65                	je     1001856 <__udivdi3+0xb2>
 10017f1:	72 20                	jb     1001813 <__udivdi3+0x6f>
 10017f3:	73 6c                	jae    1001861 <__udivdi3+0xbd>
 10017f5:	65                   	gs
 10017f6:	65                   	gs
 10017f7:	70 20                	jo     1001819 <__udivdi3+0x75>
 10017f9:	0a 00                	or     (%eax),%al
 10017fb:	30 00                	xor    %al,(%eax)
 10017fd:	30 78 00             	xor    %bh,0x0(%eax)
 1001800:	e0 10                	loopne 1001812 <__udivdi3+0x6e>
 1001802:	00 01                	add    %al,(%ecx)
 1001804:	eb 10                	jmp    1001816 <__udivdi3+0x72>
 1001806:	00 01                	add    %al,(%ecx)
 1001808:	eb 10                	jmp    100181a <__udivdi3+0x76>
 100180a:	00 01                	add    %al,(%ecx)
 100180c:	eb 10                	jmp    100181e <__udivdi3+0x7a>
 100180e:	00 01                	add    %al,(%ecx)
 1001810:	eb 10                	jmp    1001822 <__udivdi3+0x7e>
 1001812:	00 01                	add    %al,(%ecx)
 1001814:	eb 10                	jmp    1001826 <__udivdi3+0x82>
 1001816:	00 01                	add    %al,(%ecx)
 1001818:	eb 10                	jmp    100182a <__udivdi3+0x86>
 100181a:	00 01                	add    %al,(%ecx)
 100181c:	eb 10                	jmp    100182e <__udivdi3+0x8a>
 100181e:	00 01                	add    %al,(%ecx)
 1001820:	eb 10                	jmp    1001832 <__udivdi3+0x8e>
 1001822:	00 01                	add    %al,(%ecx)
 1001824:	eb 10                	jmp    1001836 <__udivdi3+0x92>
 1001826:	00 01                	add    %al,(%ecx)
 1001828:	eb 10                	jmp    100183a <__udivdi3+0x96>
 100182a:	00 01                	add    %al,(%ecx)
 100182c:	eb 10                	jmp    100183e <__udivdi3+0x9a>
 100182e:	00 01                	add    %al,(%ecx)
 1001830:	eb 10                	jmp    1001842 <__udivdi3+0x9e>
 1001832:	00 01                	add    %al,(%ecx)
 1001834:	eb 10                	jmp    1001846 <__udivdi3+0xa2>
 1001836:	00 01                	add    %al,(%ecx)
 1001838:	eb 10                	jmp    100184a <__udivdi3+0xa6>
 100183a:	00 01                	add    %al,(%ecx)
 100183c:	eb 10                	jmp    100184e <__udivdi3+0xaa>
 100183e:	00 01                	add    %al,(%ecx)
 1001840:	eb 10                	jmp    1001852 <__udivdi3+0xae>
 1001842:	00 01                	add    %al,(%ecx)
 1001844:	eb 10                	jmp    1001856 <__udivdi3+0xb2>
 1001846:	00 01                	add    %al,(%ecx)
 1001848:	eb 10                	jmp    100185a <__udivdi3+0xb6>
 100184a:	00 01                	add    %al,(%ecx)
 100184c:	eb 10                	jmp    100185e <__udivdi3+0xba>
 100184e:	00 01                	add    %al,(%ecx)
 1001850:	eb 10                	jmp    1001862 <__udivdi3+0xbe>
 1001852:	00 01                	add    %al,(%ecx)
 1001854:	eb 10                	jmp    1001866 <__udivdi3+0xc2>
 1001856:	00 01                	add    %al,(%ecx)
 1001858:	eb 10                	jmp    100186a <__udivdi3+0xc6>
 100185a:	00 01                	add    %al,(%ecx)
 100185c:	eb 10                	jmp    100186e <__udivdi3+0xca>
 100185e:	00 01                	add    %al,(%ecx)
 1001860:	eb 10                	jmp    1001872 <__udivdi3+0xce>
 1001862:	00 01                	add    %al,(%ecx)
 1001864:	eb 10                	jmp    1001876 <__udivdi3+0xd2>
 1001866:	00 01                	add    %al,(%ecx)
 1001868:	eb 10                	jmp    100187a <__udivdi3+0xd6>
 100186a:	00 01                	add    %al,(%ecx)
 100186c:	eb 10                	jmp    100187e <__udivdi3+0xda>
 100186e:	00 01                	add    %al,(%ecx)
 1001870:	eb 10                	jmp    1001882 <__udivdi3+0xde>
 1001872:	00 01                	add    %al,(%ecx)
 1001874:	eb 10                	jmp    1001886 <__udivdi3+0xe2>
 1001876:	00 01                	add    %al,(%ecx)
 1001878:	eb 10                	jmp    100188a <__udivdi3+0xe6>
 100187a:	00 01                	add    %al,(%ecx)
 100187c:	eb 10                	jmp    100188e <__udivdi3+0xea>
 100187e:	00 01                	add    %al,(%ecx)
 1001880:	eb 10                	jmp    1001892 <__udivdi3+0xee>
 1001882:	00 01                	add    %al,(%ecx)
 1001884:	eb 10                	jmp    1001896 <__udivdi3+0xf2>
 1001886:	00 01                	add    %al,(%ecx)
 1001888:	eb 10                	jmp    100189a <__udivdi3+0xf6>
 100188a:	00 01                	add    %al,(%ecx)
 100188c:	eb 10                	jmp    100189e <__udivdi3+0xfa>
 100188e:	00 01                	add    %al,(%ecx)
 1001890:	eb 10                	jmp    10018a2 <__udivdi3+0xfe>
 1001892:	00 01                	add    %al,(%ecx)
 1001894:	eb 10                	jmp    10018a6 <__udivdi3+0x102>
 1001896:	00 01                	add    %al,(%ecx)
 1001898:	eb 10                	jmp    10018aa <__udivdi3+0x106>
 100189a:	00 01                	add    %al,(%ecx)
 100189c:	eb 10                	jmp    10018ae <__udivdi3+0x10a>
 100189e:	00 01                	add    %al,(%ecx)
 10018a0:	eb 10                	jmp    10018b2 <__udivdi3+0x10e>
 10018a2:	00 01                	add    %al,(%ecx)
 10018a4:	eb 10                	jmp    10018b6 <__udivdi3+0x112>
 10018a6:	00 01                	add    %al,(%ecx)
 10018a8:	eb 10                	jmp    10018ba <__udivdi3+0x116>
 10018aa:	00 01                	add    %al,(%ecx)
 10018ac:	eb 10                	jmp    10018be <__udivdi3+0x11a>
 10018ae:	00 01                	add    %al,(%ecx)
 10018b0:	eb 10                	jmp    10018c2 <__udivdi3+0x11e>
 10018b2:	00 01                	add    %al,(%ecx)
 10018b4:	eb 10                	jmp    10018c6 <__udivdi3+0x122>
 10018b6:	00 01                	add    %al,(%ecx)
 10018b8:	eb 10                	jmp    10018ca <__udivdi3+0x126>
 10018ba:	00 01                	add    %al,(%ecx)
 10018bc:	eb 10                	jmp    10018ce <__udivdi3+0x12a>
 10018be:	00 01                	add    %al,(%ecx)
 10018c0:	eb 10                	jmp    10018d2 <__udivdi3+0x12e>
 10018c2:	00 01                	add    %al,(%ecx)
 10018c4:	eb 10                	jmp    10018d6 <__udivdi3+0x132>
 10018c6:	00 01                	add    %al,(%ecx)
 10018c8:	eb 10                	jmp    10018da <__udivdi3+0x136>
 10018ca:	00 01                	add    %al,(%ecx)
 10018cc:	eb 10                	jmp    10018de <__udivdi3+0x13a>
 10018ce:	00 01                	add    %al,(%ecx)
 10018d0:	eb 10                	jmp    10018e2 <__udivdi3+0x13e>
 10018d2:	00 01                	add    %al,(%ecx)
 10018d4:	eb 10                	jmp    10018e6 <__udivdi3+0x142>
 10018d6:	00 01                	add    %al,(%ecx)
 10018d8:	eb 10                	jmp    10018ea <__udivdi3+0x146>
 10018da:	00 01                	add    %al,(%ecx)
 10018dc:	eb 10                	jmp    10018ee <__udivdi3+0x14a>
 10018de:	00 01                	add    %al,(%ecx)
 10018e0:	eb 10                	jmp    10018f2 <__udivdi3+0x14e>
 10018e2:	00 01                	add    %al,(%ecx)
 10018e4:	eb 10                	jmp    10018f6 <__udivdi3+0x152>
 10018e6:	00 01                	add    %al,(%ecx)
 10018e8:	eb 10                	jmp    10018fa <__udivdi3+0x156>
 10018ea:	00 01                	add    %al,(%ecx)
 10018ec:	eb 10                	jmp    10018fe <__udivdi3+0x15a>
 10018ee:	00 01                	add    %al,(%ecx)
 10018f0:	eb 10                	jmp    1001902 <__udivdi3+0x15e>
 10018f2:	00 01                	add    %al,(%ecx)
 10018f4:	eb 10                	jmp    1001906 <__udivdi3+0x162>
 10018f6:	00 01                	add    %al,(%ecx)
 10018f8:	eb 10                	jmp    100190a <__udivdi3+0x166>
 10018fa:	00 01                	add    %al,(%ecx)
 10018fc:	eb 10                	jmp    100190e <__udivdi3+0x16a>
 10018fe:	00 01                	add    %al,(%ecx)
 1001900:	eb 10                	jmp    1001912 <__udivdi3+0x16e>
 1001902:	00 01                	add    %al,(%ecx)
 1001904:	eb 10                	jmp    1001916 <__udivdi3+0x172>
 1001906:	00 01                	add    %al,(%ecx)
 1001908:	37                   	aaa    
 1001909:	05 00 01 eb 10       	add    $0x10eb0100,%eax
 100190e:	00 01                	add    %al,(%ecx)
 1001910:	15 05 00 01 eb       	adc    $0xeb010005,%eax
 1001915:	10 00                	adc    %al,(%eax)
 1001917:	01 eb                	add    %ebp,%ebx
 1001919:	10 00                	adc    %al,(%eax)
 100191b:	01 eb                	add    %ebp,%ebx
 100191d:	10 00                	adc    %al,(%eax)
 100191f:	01 eb                	add    %ebp,%ebx
 1001921:	10 00                	adc    %al,(%eax)
 1001923:	01 eb                	add    %ebp,%ebx
 1001925:	10 00                	adc    %al,(%eax)
 1001927:	01 eb                	add    %ebp,%ebx
 1001929:	10 00                	adc    %al,(%eax)
 100192b:	01 eb                	add    %ebp,%ebx
 100192d:	10 00                	adc    %al,(%eax)
 100192f:	01 eb                	add    %ebp,%ebx
 1001931:	10 00                	adc    %al,(%eax)
 1001933:	01 eb                	add    %ebp,%ebx
 1001935:	10 00                	adc    %al,(%eax)
 1001937:	01 e6                	add    %esp,%esi
 1001939:	04 00                	add    $0x0,%al
 100193b:	01 04 05 00 01 eb 10 	add    %eax,0x10eb0100(,%eax,1)
 1001942:	00 01                	add    %al,(%ecx)
 1001944:	eb 10                	jmp    1001956 <__udivdi3+0x1b2>
 1001946:	00 01                	add    %al,(%ecx)
 1001948:	f5                   	cmc    
 1001949:	04 00                	add    $0x0,%al
 100194b:	01 eb                	add    %ebp,%ebx
 100194d:	10 00                	adc    %al,(%eax)
 100194f:	01 eb                	add    %ebp,%ebx
 1001951:	10 00                	adc    %al,(%eax)
 1001953:	01 26                	add    %esp,(%esi)
 1001955:	05 00 01 eb 10       	add    $0x10eb0100,%eax
 100195a:	00 01                	add    %al,(%ecx)
 100195c:	eb 10                	jmp    100196e <__udivdi3+0x1ca>
 100195e:	00 01                	add    %al,(%ecx)
 1001960:	bf 0e 00 01 eb       	mov    $0xeb01000e,%edi
 1001965:	10 00                	adc    %al,(%eax)
 1001967:	01 5d 0e             	add    %ebx,0xe(%ebp)
 100196a:	00 01                	add    %al,(%ecx)
 100196c:	eb 10                	jmp    100197e <__udivdi3+0x1da>
 100196e:	00 01                	add    %al,(%ecx)
 1001970:	eb 10                	jmp    1001982 <__udivdi3+0x1de>
 1001972:	00 01                	add    %al,(%ecx)
 1001974:	eb 10                	jmp    1001986 <__udivdi3+0x1e2>
 1001976:	00 01                	add    %al,(%ecx)
 1001978:	eb 10                	jmp    100198a <__udivdi3+0x1e6>
 100197a:	00 01                	add    %al,(%ecx)
 100197c:	eb 10                	jmp    100198e <__udivdi3+0x1ea>
 100197e:	00 01                	add    %al,(%ecx)
 1001980:	eb 10                	jmp    1001992 <__udivdi3+0x1ee>
 1001982:	00 01                	add    %al,(%ecx)
 1001984:	eb 10                	jmp    1001996 <__udivdi3+0x1f2>
 1001986:	00 01                	add    %al,(%ecx)
 1001988:	37                   	aaa    
 1001989:	05 00 01 e6 06       	add    $0x6e60100,%eax
 100198e:	00 01                	add    %al,(%ecx)
 1001990:	cc                   	int3   
 1001991:	0d 00 01 eb 10       	or     $0x10eb0100,%eax
 1001996:	00 01                	add    %al,(%ecx)
 1001998:	eb 10                	jmp    10019aa <__udivdi3+0x206>
 100199a:	00 01                	add    %al,(%ecx)
 100199c:	eb 10                	jmp    10019ae <__udivdi3+0x20a>
 100199e:	00 01                	add    %al,(%ecx)
 10019a0:	eb 10                	jmp    10019b2 <__udivdi3+0x20e>
 10019a2:	00 01                	add    %al,(%ecx)
 10019a4:	eb 10                	jmp    10019b6 <__udivdi3+0x212>
 10019a6:	00 01                	add    %al,(%ecx)
 10019a8:	eb 10                	jmp    10019ba <__udivdi3+0x216>
 10019aa:	00 01                	add    %al,(%ecx)
 10019ac:	eb 10                	jmp    10019be <__udivdi3+0x21a>
 10019ae:	00 01                	add    %al,(%ecx)
 10019b0:	eb 10                	jmp    10019c2 <__udivdi3+0x21e>
 10019b2:	00 01                	add    %al,(%ecx)
 10019b4:	eb 10                	jmp    10019c6 <__udivdi3+0x222>
 10019b6:	00 01                	add    %al,(%ecx)
 10019b8:	4f                   	dec    %edi
 10019b9:	0e                   	push   %cs
 10019ba:	00 01                	add    %al,(%ecx)
 10019bc:	b9 0d 00 01 f1       	mov    $0xf101000d,%ecx
 10019c1:	0d 00 01 eb 10       	or     $0x10eb0100,%eax
 10019c6:	00 01                	add    %al,(%ecx)
 10019c8:	41                   	inc    %ecx
 10019c9:	0e                   	push   %cs
 10019ca:	00 01                	add    %al,(%ecx)
 10019cc:	c6                   	(bad)  
 10019cd:	0b 00                	or     (%eax),%eax
 10019cf:	01 07                	add    %eax,(%edi)
 10019d1:	07                   	pop    %es
 10019d2:	00 01                	add    %al,(%ecx)
 10019d4:	df 0d 00 01 eb 10    	fisttp 0x10eb0100
 10019da:	00 01                	add    %al,(%ecx)
 10019dc:	eb 10                	jmp    10019ee <digits.1059+0x2>
 10019de:	00 01                	add    %al,(%ecx)
 10019e0:	1e                   	push   %ds
 10019e1:	0e                   	push   %cs
 10019e2:	00 01                	add    %al,(%ecx)
 10019e4:	eb 10                	jmp    10019f6 <digits.1059+0xa>
 10019e6:	00 01                	add    %al,(%ecx)
 10019e8:	31 0e                	xor    %ecx,(%esi)
 10019ea:	00 01                	add    %al,(%ecx)

010019ec <digits.1059>:
 10019ec:	30 31                	xor    %dh,(%ecx)
 10019ee:	32 33                	xor    (%ebx),%dh
 10019f0:	34 35                	xor    $0x35,%al
 10019f2:	36                   	ss
 10019f3:	37                   	aaa    
 10019f4:	38 39                	cmp    %bh,(%ecx)
 10019f6:	61                   	popa   
 10019f7:	62 63 64             	bound  %esp,0x64(%ebx)
 10019fa:	65                   	gs
 10019fb:	66                   	data16
	...

010019fd <digs>:
 10019fd:	30 31                	xor    %dh,(%ecx)
 10019ff:	32 33                	xor    (%ebx),%dh
 1001a01:	34 35                	xor    $0x35,%al
 1001a03:	36                   	ss
 1001a04:	37                   	aaa    
 1001a05:	38 39                	cmp    %bh,(%ecx)
 1001a07:	61                   	popa   
 1001a08:	62 63 64             	bound  %esp,0x64(%ebx)
 1001a0b:	65                   	gs
 1001a0c:	66                   	data16
	...

Disassembly of section .data:

01002a10 <zero.839>:
 1002a10:	00 00                	add    %al,(%eax)
	...

Disassembly of section .bss:

01002a14 <_doprnt_truncates>:
 1002a14:	00 00                	add    %al,(%eax)
	...

01002a18 <placate_the_compiler>:
 1002a18:	00 00                	add    %al,(%eax)
	...

Disassembly of section .debug_aranges:

00000000 <.debug_aranges>:
   0:	1c 00                	sbb    $0x0,%al
   2:	00 00                	add    %al,(%eax)
   4:	02 00                	add    (%eax),%al
   6:	00 00                	add    %al,(%eax)
   8:	00 00                	add    %al,(%eax)
   a:	04 00                	add    $0x0,%al
   c:	00 00                	add    %al,(%eax)
   e:	00 00                	add    %al,(%eax)
  10:	00 00                	add    %al,(%eax)
  12:	00 01                	add    %al,(%ecx)
  14:	3d 00 00 00 00       	cmp    $0x0,%eax
  19:	00 00                	add    %al,(%eax)
  1b:	00 00                	add    %al,(%eax)
  1d:	00 00                	add    %al,(%eax)
  1f:	00 1c 00             	add    %bl,(%eax,%eax,1)
  22:	00 00                	add    %al,(%eax)
  24:	02 00                	add    (%eax),%al
  26:	6c                   	insb   (%dx),%es:(%edi)
  27:	00 00                	add    %al,(%eax)
  29:	00 04 00             	add    %al,(%eax,%eax,1)
  2c:	00 00                	add    %al,(%eax)
  2e:	00 00                	add    %al,(%eax)
  30:	40                   	inc    %eax
  31:	00 00                	add    %al,(%eax)
  33:	01 32                	add    %esi,(%edx)
	...
  3d:	00 00                	add    %al,(%eax)
  3f:	00 1c 00             	add    %bl,(%eax,%eax,1)
  42:	00 00                	add    %al,(%eax)
  44:	02 00                	add    (%eax),%al
  46:	0e                   	push   %cs
  47:	01 00                	add    %eax,(%eax)
  49:	00 04 00             	add    %al,(%eax,%eax,1)
  4c:	00 00                	add    %al,(%eax)
  4e:	00 00                	add    %al,(%eax)
  50:	74 00                	je     52 <main-0xffffae>
  52:	00 01                	add    %al,(%ecx)
  54:	13 01                	adc    (%ecx),%eax
	...
  5e:	00 00                	add    %al,(%eax)
  60:	1c 00                	sbb    $0x0,%al
  62:	00 00                	add    %al,(%eax)
  64:	02 00                	add    (%eax),%al
  66:	d6                   	(bad)  
  67:	02 00                	add    (%eax),%al
  69:	00 04 00             	add    %al,(%eax,%eax,1)
  6c:	00 00                	add    %al,(%eax)
  6e:	00 00                	add    %al,(%eax)
  70:	88 01                	mov    %al,(%ecx)
  72:	00 01                	add    %al,(%ecx)
  74:	16                   	push   %ss
	...
  7d:	00 00                	add    %al,(%eax)
  7f:	00 1c 00             	add    %bl,(%eax,%eax,1)
  82:	00 00                	add    %al,(%eax)
  84:	02 00                	add    (%eax),%al
  86:	5d                   	pop    %ebp
  87:	03 00                	add    (%eax),%eax
  89:	00 04 00             	add    %al,(%eax,%eax,1)
  8c:	00 00                	add    %al,(%eax)
  8e:	00 00                	add    %al,(%eax)
  90:	a0 01 00 01 07       	mov    0x7010001,%al
  95:	01 00                	add    %eax,(%eax)
	...
  9f:	00 1c 00             	add    %bl,(%eax,%eax,1)
  a2:	00 00                	add    %al,(%eax)
  a4:	02 00                	add    (%eax),%al
  a6:	a6                   	cmpsb  %es:(%edi),%ds:(%esi)
  a7:	05 00 00 04 00       	add    $0x40000,%eax
  ac:	00 00                	add    %al,(%eax)
  ae:	00 00                	add    %al,(%eax)
  b0:	b0 02                	mov    $0x2,%al
  b2:	00 01                	add    %al,(%ecx)
  b4:	d2 0e                	rorb   %cl,(%esi)
	...
  be:	00 00                	add    %al,(%eax)
  c0:	1c 00                	sbb    $0x0,%al
  c2:	00 00                	add    %al,(%eax)
  c4:	02 00                	add    (%eax),%al
  c6:	a5                   	movsl  %ds:(%esi),%es:(%edi)
  c7:	0a 00                	or     (%eax),%al
  c9:	00 04 00             	add    %al,(%eax,%eax,1)
  cc:	00 00                	add    %al,(%eax)
  ce:	00 00                	add    %al,(%eax)
  d0:	84 11                	test   %dl,(%ecx)
  d2:	00 01                	add    %al,(%ecx)
  d4:	16                   	push   %ss
	...
  dd:	00 00                	add    %al,(%eax)
  df:	00 1c 00             	add    %bl,(%eax,%eax,1)
  e2:	00 00                	add    %al,(%eax)
  e4:	02 00                	add    (%eax),%al
  e6:	01 0b                	add    %ecx,(%ebx)
  e8:	00 00                	add    %al,(%eax)
  ea:	04 00                	add    $0x0,%al
  ec:	00 00                	add    %al,(%eax)
  ee:	00 00                	add    %al,(%eax)
  f0:	9c                   	pushf  
  f1:	11 00                	adc    %eax,(%eax)
  f3:	01 18                	add    %ebx,(%eax)
	...
  fd:	00 00                	add    %al,(%eax)
  ff:	00 1c 00             	add    %bl,(%eax,%eax,1)
 102:	00 00                	add    %al,(%eax)
 104:	02 00                	add    (%eax),%al
 106:	75 0b                	jne    113 <main-0xfffeed>
 108:	00 00                	add    %al,(%eax)
 10a:	04 00                	add    $0x0,%al
 10c:	00 00                	add    %al,(%eax)
 10e:	00 00                	add    %al,(%eax)
 110:	b4 11                	mov    $0x11,%ah
 112:	00 01                	add    %al,(%ecx)
 114:	be 00 00 00 00       	mov    $0x0,%esi
 119:	00 00                	add    %al,(%eax)
 11b:	00 00                	add    %al,(%eax)
 11d:	00 00                	add    %al,(%eax)
 11f:	00 1c 00             	add    %bl,(%eax,%eax,1)
 122:	00 00                	add    %al,(%eax)
 124:	02 00                	add    (%eax),%al
 126:	14 11                	adc    $0x11,%al
 128:	00 00                	add    %al,(%eax)
 12a:	04 00                	add    $0x0,%al
 12c:	00 00                	add    %al,(%eax)
 12e:	00 00                	add    %al,(%eax)
 130:	74 12                	je     144 <main-0xfffebc>
 132:	00 01                	add    %al,(%ecx)
 134:	03 00                	add    (%eax),%eax
	...
 13e:	00 00                	add    %al,(%eax)
 140:	1c 00                	sbb    $0x0,%al
 142:	00 00                	add    %al,(%eax)
 144:	02 00                	add    (%eax),%al
 146:	99                   	cltd   
 147:	11 00                	adc    %eax,(%eax)
 149:	00 04 00             	add    %al,(%eax,%eax,1)
 14c:	00 00                	add    %al,(%eax)
 14e:	00 00                	add    %al,(%eax)
 150:	78 12                	js     164 <main-0xfffe9c>
 152:	00 01                	add    %al,(%ecx)
 154:	03 00                	add    (%eax),%eax
	...
 15e:	00 00                	add    %al,(%eax)
 160:	1c 00                	sbb    $0x0,%al
 162:	00 00                	add    %al,(%eax)
 164:	02 00                	add    (%eax),%al
 166:	1d 12 00 00 04       	sbb    $0x4000012,%eax
 16b:	00 00                	add    %al,(%eax)
 16d:	00 00                	add    %al,(%eax)
 16f:	00 7c 12 00          	add    %bh,0x0(%edx,%edx,1)
 173:	01 05 00 00 00 00    	add    %eax,0x0
 179:	00 00                	add    %al,(%eax)
 17b:	00 00                	add    %al,(%eax)
 17d:	00 00                	add    %al,(%eax)
 17f:	00 1c 00             	add    %bl,(%eax,%eax,1)
 182:	00 00                	add    %al,(%eax)
 184:	02 00                	add    (%eax),%al
 186:	7b 12                	jnp    19a <main-0xfffe66>
 188:	00 00                	add    %al,(%eax)
 18a:	04 00                	add    $0x0,%al
 18c:	00 00                	add    %al,(%eax)
 18e:	00 00                	add    %al,(%eax)
 190:	90                   	nop
 191:	12 00                	adc    (%eax),%al
 193:	01 44 05 00          	add    %eax,0x0(%ebp,%eax,1)
	...

Disassembly of section .debug_pubnames:

00000000 <.debug_pubnames>:
   0:	17                   	pop    %ss
   1:	00 00                	add    %al,(%eax)
   3:	00 02                	add    %al,(%edx)
   5:	00 00                	add    %al,(%eax)
   7:	00 00                	add    %al,(%eax)
   9:	00 6c 00 00          	add    %ch,0x0(%eax,%eax,1)
   d:	00 3a                	add    %bh,(%edx)
   f:	00 00                	add    %al,(%eax)
  11:	00 6d 61             	add    %ch,0x61(%ebp)
  14:	69 6e 00 00 00 00 00 	imul   $0x0,0x0(%esi),%ebp
  1b:	18 00                	sbb    %al,(%eax)
  1d:	00 00                	add    %al,(%eax)
  1f:	02 00                	add    (%eax),%al
  21:	6c                   	insb   (%dx),%es:(%edi)
  22:	00 00                	add    %al,(%eax)
  24:	00 a2 00 00 00 35    	add    %ah,0x35000000(%edx)
  2a:	00 00                	add    %al,(%eax)
  2c:	00 5f 6d             	add    %bl,0x6d(%edi)
  2f:	61                   	popa   
  30:	69 6e 00 00 00 00 00 	imul   $0x0,0x0(%esi),%ebp
  37:	ab                   	stos   %eax,%es:(%edi)
  38:	00 00                	add    %al,(%eax)
  3a:	00 02                	add    %al,(%edx)
  3c:	00 0e                	add    %cl,(%esi)
  3e:	01 00                	add    %eax,(%eax)
  40:	00 c8                	add    %cl,%al
  42:	01 00                	add    %eax,(%eax)
  44:	00 4f 00             	add    %cl,0x0(%edi)
  47:	00 00                	add    %al,(%eax)
  49:	73 69                	jae    b4 <main-0xffff4c>
  4b:	6d                   	insl   (%dx),%es:(%edi)
  4c:	5f                   	pop    %edi
  4d:	66                   	data16
  4e:	72 5f                	jb     af <main-0xffff51>
  50:	68 65 72 65 00       	push   $0x657265
  55:	64 00 00             	add    %al,%fs:(%eax)
  58:	00 73 69             	add    %dh,0x69(%ebx)
  5b:	6d                   	insl   (%dx),%es:(%edi)
  5c:	5f                   	pop    %edi
  5d:	66                   	data16
  5e:	72 5f                	jb     bf <main-0xffff41>
  60:	70 72                	jo     d4 <main-0xffff2c>
  62:	6f                   	outsl  %ds:(%esi),(%dx)
  63:	67 00 91 00 00       	add    %dl,0x0(%bx,%di)
  68:	00 73 69             	add    %dh,0x69(%ebx)
  6b:	6d                   	insl   (%dx),%es:(%edi)
  6c:	5f                   	pop    %edi
  6d:	63 6b 31             	arpl   %bp,0x31(%ebx)
  70:	00 a6 00 00 00 73    	add    %ah,0x73000000(%esi)
  76:	69 6d 5f 68 61 6c 74 	imul   $0x746c6168,0x5f(%ebp),%ebp
  7d:	00 bb 00 00 00 73    	add    %bh,0x73000000(%ebx)
  83:	69 6d 5f 62 72 65 61 	imul   $0x61657262,0x5f(%ebp),%ebp
  8a:	6b 70 6f 69          	imul   $0x69,0x6f(%eax),%esi
  8e:	6e                   	outsb  %ds:(%esi),(%dx)
  8f:	74 00                	je     91 <main-0xffff6f>
  91:	d0 00                	rolb   (%eax)
  93:	00 00                	add    %al,(%eax)
  95:	73 69                	jae    100 <main-0xffff00>
  97:	6d                   	insl   (%dx),%es:(%edi)
  98:	5f                   	pop    %edi
  99:	70 75                	jo     110 <main-0xfffef0>
  9b:	74 73                	je     110 <main-0xfffef0>
  9d:	00 03                	add    %al,(%ebx)
  9f:	01 00                	add    %eax,(%eax)
  a1:	00 73 69             	add    %dh,0x69(%ebx)
  a4:	6d                   	insl   (%dx),%es:(%edi)
  a5:	5f                   	pop    %edi
  a6:	6d                   	insl   (%dx),%es:(%edi)
  a7:	65                   	gs
  a8:	6d                   	insl   (%dx),%es:(%edi)
  a9:	73 69                	jae    114 <main-0xfffeec>
  ab:	7a 65                	jp     112 <main-0xfffeee>
  ad:	00 1c 01             	add    %bl,(%ecx,%eax,1)
  b0:	00 00                	add    %al,(%eax)
  b2:	73 69                	jae    11d <main-0xfffee3>
  b4:	6d                   	insl   (%dx),%es:(%edi)
  b5:	5f                   	pop    %edi
  b6:	69 6e 5f 73 69 6d 69 	imul   $0x696d6973,0x5f(%esi),%ebp
  bd:	63 73 00             	arpl   %si,0x0(%ebx)
  c0:	35 01 00 00 6d       	xor    $0x6d000001,%eax
  c5:	61                   	popa   
  c6:	67 69 63 5f 72 65 61 	imul   $0x64616572,0x5f(%bp,%di),%esp
  cd:	64 
  ce:	6c                   	insb   (%dx),%es:(%edi)
  cf:	69 6e 65 00 75 01 00 	imul   $0x17500,0x65(%esi),%ebp
  d6:	00 73 69             	add    %dh,0x69(%ebx)
  d9:	6d                   	insl   (%dx),%es:(%edi)
  da:	5f                   	pop    %edi
  db:	70 72                	jo     14f <main-0xfffeb1>
  dd:	69 6e 74 66 00 00 00 	imul   $0x66,0x74(%esi),%ebp
  e4:	00 00                	add    %al,(%eax)
  e6:	42                   	inc    %edx
  e7:	00 00                	add    %al,(%eax)
  e9:	00 02                	add    %al,(%edx)
  eb:	00 5d 03             	add    %bl,0x3(%ebp)
  ee:	00 00                	add    %al,(%eax)
  f0:	49                   	dec    %ecx
  f1:	02 00                	add    (%eax),%al
  f3:	00 d3                	add    %dl,%bl
  f5:	00 00                	add    %al,(%eax)
  f7:	00 76 73             	add    %dh,0x73(%esi)
  fa:	6e                   	outsb  %ds:(%esi),(%dx)
  fb:	70 72                	jo     16f <main-0xfffe91>
  fd:	69 6e 74 66 00 40 01 	imul   $0x1400066,0x74(%esi),%ebp
 104:	00 00                	add    %al,(%eax)
 106:	73 6e                	jae    176 <main-0xfffe8a>
 108:	70 72                	jo     17c <main-0xfffe84>
 10a:	69 6e 74 66 00 a3 01 	imul   $0x1a30066,0x74(%esi),%ebp
 111:	00 00                	add    %al,(%eax)
 113:	76 73                	jbe    188 <main-0xfffe78>
 115:	70 72                	jo     189 <main-0xfffe77>
 117:	69 6e 74 66 00 f7 01 	imul   $0x1f70066,0x74(%esi),%ebp
 11e:	00 00                	add    %al,(%eax)
 120:	73 70                	jae    192 <main-0xfffe6e>
 122:	72 69                	jb     18d <main-0xfffe73>
 124:	6e                   	outsb  %ds:(%esi),(%dx)
 125:	74 66                	je     18d <main-0xfffe73>
 127:	00 00                	add    %al,(%eax)
 129:	00 00                	add    %al,(%eax)
 12b:	00 30                	add    %dh,(%eax)
 12d:	00 00                	add    %al,(%eax)
 12f:	00 02                	add    %al,(%edx)
 131:	00 a6 05 00 00 ff    	add    %ah,-0xfffffb(%esi)
 137:	04 00                	add    $0x0,%al
 139:	00 80 01 00 00 5f    	add    %al,0x5f000001(%eax)
 13f:	64 6f                	outsl  %fs:(%esi),(%dx)
 141:	70 72                	jo     1b5 <main-0xfffe4b>
 143:	6e                   	outsb  %ds:(%esi),(%dx)
 144:	74 00                	je     146 <main-0xfffeba>
 146:	ec                   	in     (%dx),%al
 147:	04 00                	add    $0x0,%al
 149:	00 5f 64             	add    %bl,0x64(%edi)
 14c:	6f                   	outsl  %ds:(%esi),(%dx)
 14d:	70 72                	jo     1c1 <main-0xfffe3f>
 14f:	6e                   	outsb  %ds:(%esi),(%dx)
 150:	74 5f                	je     1b1 <main-0xfffe4f>
 152:	74 72                	je     1c6 <main-0xfffe3a>
 154:	75 6e                	jne    1c4 <main-0xfffe3c>
 156:	63 61 74             	arpl   %sp,0x74(%ecx)
 159:	65                   	gs
 15a:	73 00                	jae    15c <main-0xfffea4>
 15c:	00 00                	add    %al,(%eax)
 15e:	00 00                	add    %al,(%eax)
 160:	17                   	pop    %ss
 161:	00 00                	add    %al,(%eax)
 163:	00 02                	add    %al,(%edx)
 165:	00 a5 0a 00 00 5c    	add    %ah,0x5c00000a(%ebp)
 16b:	00 00                	add    %al,(%eax)
 16d:	00 2c 00             	add    %ch,(%eax,%eax,1)
 170:	00 00                	add    %al,(%eax)
 172:	65                   	gs
 173:	78 69                	js     1de <main-0xfffe22>
 175:	74 00                	je     177 <main-0xfffe89>
 177:	00 00                	add    %al,(%eax)
 179:	00 00                	add    %al,(%eax)
 17b:	19 00                	sbb    %eax,(%eax)
 17d:	00 00                	add    %al,(%eax)
 17f:	02 00                	add    (%eax),%al
 181:	01 0b                	add    %ecx,(%ebx)
 183:	00 00                	add    %al,(%eax)
 185:	74 00                	je     187 <main-0xfffe79>
 187:	00 00                	add    %al,(%eax)
 189:	25 00 00 00 73       	and    $0x73000000,%eax
 18e:	74 72                	je     202 <main-0xfffdfe>
 190:	6c                   	insb   (%dx),%es:(%edi)
 191:	65 6e                	outsb  %gs:(%esi),(%dx)
 193:	00 00                	add    %al,(%eax)
 195:	00 00                	add    %al,(%eax)
 197:	00 45 01             	add    %al,0x1(%ebp)
 19a:	00 00                	add    %al,(%eax)
 19c:	02 00                	add    (%eax),%al
 19e:	75 0b                	jne    1ab <main-0xfffe55>
 1a0:	00 00                	add    %al,(%eax)
 1a2:	9f                   	lahf   
 1a3:	05 00 00 80 01       	add    $0x1800000,%eax
 1a8:	00 00                	add    %al,(%eax)
 1aa:	65                   	gs
 1ab:	78 65                	js     212 <main-0xfffdee>
 1ad:	63 00                	arpl   %ax,(%eax)
 1af:	d4 01                	aam    $0x1
 1b1:	00 00                	add    %al,(%eax)
 1b3:	73 65                	jae    21a <main-0xfffde6>
 1b5:	74 5f                	je     216 <main-0xfffdea>
 1b7:	73 74                	jae    22d <main-0xfffdd3>
 1b9:	61                   	popa   
 1ba:	74 75                	je     231 <main-0xfffdcf>
 1bc:	73 00                	jae    1be <main-0xfffe42>
 1be:	fc                   	cld    
 1bf:	01 00                	add    %eax,(%eax)
 1c1:	00 77 61             	add    %dh,0x61(%edi)
 1c4:	69 74 00 2e 02 00 00 	imul   $0x79000002,0x2e(%eax,%eax,1),%esi
 1cb:	79 
 1cc:	69 65 6c 64 00 5a 02 	imul   $0x25a0064,0x6c(%ebp),%esp
 1d3:	00 00                	add    %al,(%eax)
 1d5:	64                   	fs
 1d6:	65                   	gs
 1d7:	73 63                	jae    23c <main-0xfffdc4>
 1d9:	68 65 64 75 6c       	push   $0x6c756465
 1de:	65 00 86 02 00 00 6d 	add    %al,%gs:0x6d000002(%esi)
 1e5:	61                   	popa   
 1e6:	6b 65 5f 72          	imul   $0x72,0x5f(%ebp),%esp
 1ea:	75 6e                	jne    25a <main-0xfffda6>
 1ec:	6e                   	outsb  %ds:(%esi),(%dx)
 1ed:	61                   	popa   
 1ee:	62 6c 65 00          	bound  %ebp,0x0(%ebp,%eiz,2)
 1f2:	b2 02                	mov    $0x2,%dl
 1f4:	00 00                	add    %al,(%eax)
 1f6:	67                   	addr16
 1f7:	65                   	gs
 1f8:	74 74                	je     26e <main-0xfffd92>
 1fa:	69 64 00 cb 02 00 00 	imul   $0x73000002,-0x35(%eax,%eax,1),%esp
 201:	73 
 202:	77 65                	ja     269 <main-0xfffd97>
 204:	78 6e                	js     274 <main-0xfffd8c>
 206:	00 21                	add    %ah,(%ecx)
 208:	03 00                	add    (%eax),%eax
 20a:	00 67 65             	add    %ah,0x65(%edi)
 20d:	74 63                	je     272 <main-0xfffd8e>
 20f:	68 61 72 00 3a       	push   $0x3a007261
 214:	03 00                	add    (%eax),%eax
 216:	00 72 65             	add    %dh,0x65(%edx)
 219:	61                   	popa   
 21a:	64                   	fs
 21b:	6c                   	insb   (%dx),%es:(%edi)
 21c:	69 6e 65 00 74 03 00 	imul   $0x37400,0x65(%esi),%ebp
 223:	00 70 72             	add    %dh,0x72(%eax)
 226:	69 6e 74 00 ae 03 00 	imul   $0x3ae00,0x74(%esi),%ebp
 22d:	00 73 65             	add    %dh,0x65(%ebx)
 230:	74 5f                	je     291 <main-0xfffd6f>
 232:	74 65                	je     299 <main-0xfffd67>
 234:	72 6d                	jb     2a3 <main-0xfffd5d>
 236:	5f                   	pop    %edi
 237:	63 6f 6c             	arpl   %bp,0x6c(%edi)
 23a:	6f                   	outsl  %ds:(%esi),(%dx)
 23b:	72 00                	jb     23d <main-0xfffdc3>
 23d:	da 03                	fiaddl (%ebx)
 23f:	00 00                	add    %al,(%eax)
 241:	67                   	addr16
 242:	65                   	gs
 243:	74 5f                	je     2a4 <main-0xfffd5c>
 245:	63 75 72             	arpl   %si,0x72(%ebp)
 248:	73 6f                	jae    2b9 <main-0xfffd47>
 24a:	72 5f                	jb     2ab <main-0xfffd55>
 24c:	70 6f                	jo     2bd <main-0xfffd43>
 24e:	73 00                	jae    250 <main-0xfffdb0>
 250:	14 04                	adc    $0x4,%al
 252:	00 00                	add    %al,(%eax)
 254:	73 65                	jae    2bb <main-0xfffd45>
 256:	74 5f                	je     2b7 <main-0xfffd49>
 258:	63 75 72             	arpl   %si,0x72(%ebp)
 25b:	73 6f                	jae    2cc <main-0xfffd34>
 25d:	72 5f                	jb     2be <main-0xfffd42>
 25f:	70 6f                	jo     2d0 <main-0xfffd30>
 261:	73 00                	jae    263 <main-0xfffd9d>
 263:	4e                   	dec    %esi
 264:	04 00                	add    $0x0,%al
 266:	00 68 61             	add    %ch,0x61(%eax)
 269:	6c                   	insb   (%dx),%es:(%edi)
 26a:	74 00                	je     26c <main-0xfffd94>
 26c:	63 04 00             	arpl   %ax,(%eax,%eax,1)
 26f:	00 72 65             	add    %dh,0x65(%edx)
 272:	61                   	popa   
 273:	64 66 69 6c 65 00 b9 	imul   $0x4b9,%fs:0x0(%ebp,%eiz,2),%bp
 27a:	04 
 27b:	00 00                	add    %al,(%eax)
 27d:	74 61                	je     2e0 <main-0xfffd20>
 27f:	73 6b                	jae    2ec <main-0xfffd14>
 281:	5f                   	pop    %edi
 282:	76 61                	jbe    2e5 <main-0xfffd1b>
 284:	6e                   	outsb  %ds:(%esi),(%dx)
 285:	69 73 68 00 e1 04 00 	imul   $0x4e100,0x68(%ebx),%esi
 28c:	00 6e 65             	add    %ch,0x65(%esi)
 28f:	77 5f                	ja     2f0 <main-0xfffd10>
 291:	70 61                	jo     2f4 <main-0xfffd0c>
 293:	67                   	addr16
 294:	65                   	gs
 295:	73 00                	jae    297 <main-0xfffd69>
 297:	1b 05 00 00 72 65    	sbb    0x65720000,%eax
 29d:	6d                   	insl   (%dx),%es:(%edi)
 29e:	6f                   	outsl  %ds:(%esi),(%dx)
 29f:	76 65                	jbe    306 <main-0xfffcfa>
 2a1:	5f                   	pop    %edi
 2a2:	70 61                	jo     305 <main-0xfffcfb>
 2a4:	67                   	addr16
 2a5:	65                   	gs
 2a6:	73 00                	jae    2a8 <main-0xfffd58>
 2a8:	47                   	inc    %edi
 2a9:	05 00 00 67 65       	add    $0x65670000,%eax
 2ae:	74 5f                	je     30f <main-0xfffcf1>
 2b0:	74 69                	je     31b <main-0xfffce5>
 2b2:	63 6b 73             	arpl   %bp,0x73(%ebx)
 2b5:	00 5f 05             	add    %bl,0x5(%edi)
 2b8:	00 00                	add    %al,(%eax)
 2ba:	6d                   	insl   (%dx),%es:(%edi)
 2bb:	69 73 62 65 68 61 76 	imul   $0x76616865,0x62(%ebx),%esi
 2c2:	65 00 87 05 00 00 70 	add    %al,%gs:0x70000005(%edi)
 2c9:	6c                   	insb   (%dx),%es:(%edi)
 2ca:	61                   	popa   
 2cb:	63 61 74             	arpl   %sp,0x74(%ecx)
 2ce:	65                   	gs
 2cf:	5f                   	pop    %edi
 2d0:	74 68                	je     33a <main-0xfffcc6>
 2d2:	65                   	gs
 2d3:	5f                   	pop    %edi
 2d4:	63 6f 6d             	arpl   %bp,0x6d(%edi)
 2d7:	70 69                	jo     342 <main-0xfffcbe>
 2d9:	6c                   	insb   (%dx),%es:(%edi)
 2da:	65                   	gs
 2db:	72 00                	jb     2dd <main-0xfffd23>
 2dd:	00 00                	add    %al,(%eax)
 2df:	00 00                	add    %al,(%eax)
 2e1:	24 00                	and    $0x0,%al
 2e3:	00 00                	add    %al,(%eax)
 2e5:	02 00                	add    (%eax),%al
 2e7:	1d 12 00 00 5e       	sbb    $0x5e000012,%eax
 2ec:	00 00                	add    %al,(%eax)
 2ee:	00 25 00 00 00 69    	add    %ah,0x69000000
 2f4:	6e                   	outsb  %ds:(%esi),(%dx)
 2f5:	73 74                	jae    36b <main-0xfffc95>
 2f7:	61                   	popa   
 2f8:	6c                   	insb   (%dx),%es:(%edi)
 2f9:	6c                   	insb   (%dx),%es:(%edi)
 2fa:	5f                   	pop    %edi
 2fb:	61                   	popa   
 2fc:	75 74                	jne    372 <main-0xfffc8e>
 2fe:	6f                   	outsl  %ds:(%esi),(%dx)
 2ff:	73 74                	jae    375 <main-0xfffc8b>
 301:	61                   	popa   
 302:	63 6b 00             	arpl   %bp,0x0(%ebx)
 305:	00 00                	add    %al,(%eax)
 307:	00 00                	add    %al,(%eax)
 309:	38 00                	cmp    %al,(%eax)
 30b:	00 00                	add    %al,(%eax)
 30d:	02 00                	add    (%eax),%al
 30f:	7b 12                	jnp    323 <main-0xfffcdd>
 311:	00 00                	add    %al,(%eax)
 313:	9e                   	sahf   
 314:	03 00                	add    (%eax),%eax
 316:	00 1b                	add    %bl,(%ebx)
 318:	01 00                	add    %eax,(%eax)
 31a:	00 5f 5f             	add    %bl,0x5f(%edi)
 31d:	71 64                	jno    383 <main-0xfffc7d>
 31f:	69 76 72 65 6d 00 21 	imul   $0x21006d65,0x72(%esi),%esi
 326:	03 00                	add    (%eax),%eax
 328:	00 5f 5f             	add    %bl,0x5f(%edi)
 32b:	75 6d                	jne    39a <main-0xfffc66>
 32d:	6f                   	outsl  %ds:(%esi),(%dx)
 32e:	64 64 69 33 00 68 03 	fs imul $0x36800,%fs:(%ebx),%esi
 335:	00 
 336:	00 5f 5f             	add    %bl,0x5f(%edi)
 339:	75 64                	jne    39f <main-0xfffc61>
 33b:	69 76 64 69 33 00 00 	imul   $0x3369,0x64(%esi),%esi
 342:	00 00                	add    %al,(%eax)
	...

Disassembly of section .debug_info:

00000000 <.debug_info>:
       0:	68 00 00 00 02       	push   $0x2000000
       5:	00 00                	add    %al,(%eax)
       7:	00 00                	add    %al,(%eax)
       9:	00 04 01             	add    %al,(%ecx,%eax,1)
       c:	1d 00 00 00 01       	sbb    $0x1000000,%eax
      11:	0a 00                	or     (%eax),%al
      13:	00 00                	add    %al,(%eax)
      15:	44                   	inc    %esp
      16:	00 00                	add    %al,(%eax)
      18:	00 00                	add    %al,(%eax)
      1a:	00 00                	add    %al,(%eax)
      1c:	01 3d 00 00 01 00    	add    %edi,0x10000
      22:	00 00                	add    %al,(%eax)
      24:	00 02                	add    %al,(%edx)
      26:	04 07                	add    $0x7,%al
      28:	ee                   	out    %al,(%dx)
      29:	02 00                	add    (%eax),%al
      2b:	00 02                	add    %al,(%edx)
      2d:	04 07                	add    $0x7,%al
      2f:	e9 02 00 00 02       	jmp    2000036 <_end+0xffd61a>
      34:	01 06                	add    %eax,(%esi)
      36:	74 02                	je     3a <main-0xffffc6>
      38:	00 00                	add    %al,(%eax)
      3a:	03 01                	add    (%ecx),%eax
      3c:	84 00                	test   %al,(%eax)
      3e:	00 00                	add    %al,(%eax)
      40:	01 06                	add    %eax,(%esi)
      42:	64 00 00             	add    %al,%fs:(%eax)
      45:	00 00                	add    %al,(%eax)
      47:	00 00                	add    %al,(%eax)
      49:	01 3d 00 00 01 00    	add    %edi,0x10000
      4f:	00 00                	add    %al,(%eax)
      51:	00 64 00 00          	add    %ah,0x0(%eax,%eax,1)
      55:	00 04 00             	add    %al,(%eax,%eax,1)
      58:	00 00                	add    %al,(%eax)
      5a:	00 01                	add    %al,(%ecx)
      5c:	08 64 00 00          	or     %ah,0x0(%eax,%eax,1)
      60:	00 e8                	add    %ch,%al
      62:	03 00                	add    (%eax),%eax
      64:	05 04 05 69 6e       	add    $0x6e690504,%eax
      69:	74 00                	je     6b <main-0xffff95>
      6b:	00 9e 00 00 00 02    	add    %bl,0x2000000(%esi)
      71:	00 50 00             	add    %dl,0x0(%eax)
      74:	00 00                	add    %al,(%eax)
      76:	04 01                	add    $0x1,%al
      78:	1d 00 00 00 01       	sbb    $0x1000000,%eax
      7d:	89 00                	mov    %eax,(%eax)
      7f:	00 00                	add    %al,(%eax)
      81:	44                   	inc    %esp
      82:	00 00                	add    %al,(%eax)
      84:	00 40 00             	add    %al,0x0(%eax)
      87:	00 01                	add    %al,(%ecx)
      89:	72 00                	jb     8b <main-0xffff75>
      8b:	00 01                	add    %al,(%ecx)
      8d:	45                   	inc    %ebp
      8e:	00 00                	add    %al,(%eax)
      90:	00 02                	add    %al,(%edx)
      92:	04 07                	add    $0x7,%al
      94:	ee                   	out    %al,(%dx)
      95:	02 00                	add    (%eax),%al
      97:	00 02                	add    %al,(%edx)
      99:	04 07                	add    $0x7,%al
      9b:	e9 02 00 00 03       	jmp    30000a2 <_end+0x1ffd686>
      a0:	04 04                	add    $0x4,%al
      a2:	01 83 00 00 00 01    	add    %eax,0x1000000(%ebx)
      a8:	0f 01 40 00          	sgdtl  0x0(%eax)
      ac:	00 01                	add    %al,(%ecx)
      ae:	72 00                	jb     b0 <main-0xffff50>
      b0:	00 01                	add    %al,(%ecx)
      b2:	38 00                	cmp    %al,(%eax)
      b4:	00 00                	add    %al,(%eax)
      b6:	87 00                	xchg   %eax,(%eax)
      b8:	00 00                	add    %al,(%eax)
      ba:	05 a3 00 00 00       	add    $0xa3,%eax
      bf:	01 0f                	add    %ecx,(%edi)
      c1:	87 00                	xchg   %eax,(%eax)
      c3:	00 00                	add    %al,(%eax)
      c5:	02 91 00 05 b2 00    	add    0xb20500(%ecx),%dl
      cb:	00 00                	add    %al,(%eax)
      cd:	01 0f                	add    %ecx,(%edi)
      cf:	8e 00                	mov    (%eax),%es
      d1:	00 00                	add    %al,(%eax)
      d3:	02 91 04 05 98 00    	add    0x980504(%ecx),%dl
      d9:	00 00                	add    %al,(%eax)
      db:	01 0f                	add    %ecx,(%edi)
      dd:	33 00                	xor    (%eax),%eax
      df:	00 00                	add    %al,(%eax)
      e1:	02 91 08 05 a8 00    	add    0xa80508(%ecx),%dl
      e7:	00 00                	add    %al,(%eax)
      e9:	01 0f                	add    %ecx,(%edi)
      eb:	33 00                	xor    (%eax),%eax
      ed:	00 00                	add    %al,(%eax)
      ef:	02 91 0c 00 06 04    	add    0x406000c(%ecx),%dl
      f5:	05 69 6e 74 00       	add    $0x746e69,%eax
      fa:	07                   	pop    %es
      fb:	04 94                	add    $0x94,%al
      fd:	00 00                	add    %al,(%eax)
      ff:	00 07                	add    %al,(%edi)
     101:	04 9a                	add    $0x9a,%al
     103:	00 00                	add    %al,(%eax)
     105:	00 02                	add    %al,(%edx)
     107:	01 06                	add    %eax,(%esi)
     109:	74 02                	je     10d <main-0xfffef3>
     10b:	00 00                	add    %al,(%eax)
     10d:	00 c4                	add    %al,%ah
     10f:	01 00                	add    %eax,(%eax)
     111:	00 02                	add    %al,(%edx)
     113:	00 b0 00 00 00 04    	add    %dh,0x4000000(%eax)
     119:	01 1d 00 00 00 01    	add    %ebx,0x1000000
     11f:	04 01                	add    $0x1,%al
     121:	00 00                	add    %al,(%eax)
     123:	44                   	inc    %esp
     124:	00 00                	add    %al,(%eax)
     126:	00 74 00 00          	add    %dh,0x0(%eax,%eax,1)
     12a:	01 87 01 00 01 86    	add    %eax,-0x79feffff(%edi)
     130:	00 00                	add    %al,(%eax)
     132:	00 02                	add    %al,(%edx)
     134:	c1 00 00             	roll   $0x0,(%eax)
     137:	00 02                	add    %al,(%edx)
     139:	09 30                	or     %esi,(%eax)
     13b:	00 00                	add    %al,(%eax)
     13d:	00 03                	add    %al,(%ebx)
     13f:	04 b7                	add    $0xb7,%al
     141:	00 00                	add    %al,(%eax)
     143:	00 3a                	add    %bh,(%edx)
     145:	00 00                	add    %al,(%eax)
     147:	00 04 01             	add    %al,(%ecx,%eax,1)
     14a:	06                   	push   %es
     14b:	74 02                	je     14f <main-0xfffeb1>
     14d:	00 00                	add    %al,(%eax)
     14f:	04 04                	add    $0x4,%al
     151:	07                   	pop    %es
     152:	ee                   	out    %al,(%dx)
     153:	02 00                	add    (%eax),%al
     155:	00 04 04             	add    %al,(%esp,%eax,1)
     158:	07                   	pop    %es
     159:	e9 02 00 00 05       	jmp    5000160 <_end+0x3ffd744>
     15e:	01 40 01             	add    %eax,0x1(%eax)
     161:	00 00                	add    %al,(%eax)
     163:	01 22                	add    %esp,(%edx)
     165:	01 74 00 00          	add    %esi,0x0(%eax,%eax,1)
     169:	01 88 00 00 01 64    	add    %ecx,0x64010000(%eax)
     16f:	00 00                	add    %al,(%eax)
     171:	00 06                	add    %al,(%esi)
     173:	01 f8                	add    %edi,%eax
     175:	00 00                	add    %al,(%eax)
     177:	00 01                	add    %al,(%ecx)
     179:	1e                   	push   %ds
     17a:	01 88 00 00 01 a3    	add    %ecx,-0x5cff0000(%eax)
     180:	00 00                	add    %al,(%eax)
     182:	01 9c 00 00 00 8a 00 	add    %ebx,0x8a0000(%eax,%eax,1)
     189:	00 00                	add    %al,(%eax)
     18b:	07                   	pop    %es
     18c:	61                   	popa   
     18d:	00 01                	add    %al,(%ecx)
     18f:	1e                   	push   %ds
     190:	8a 00                	mov    (%eax),%al
     192:	00 00                	add    %al,(%eax)
     194:	02 91 00 00 08 04    	add    0x4080000(%ecx),%dl
     19a:	05 69 6e 74 00       	add    $0x746e69,%eax
     19f:	05 01 38 01 00       	add    $0x13801,%eax
     1a4:	00 01                	add    %al,(%ecx)
     1a6:	1a 01                	sbb    (%ecx),%al
     1a8:	a3 00 00 01 b7       	mov    %eax,0xb7010000
     1ad:	00 00                	add    %al,(%eax)
     1af:	01 d4                	add    %edx,%esp
     1b1:	00 00                	add    %al,(%eax)
     1b3:	00 05 01 ef 00 00    	add    %al,0xef01
     1b9:	00 01                	add    %al,(%ecx)
     1bb:	16                   	push   %ss
     1bc:	01 b7 00 00 01 cb    	add    %esi,-0x34ff0000(%edi)
     1c2:	00 00                	add    %al,(%eax)
     1c4:	01 0c 01             	add    %ecx,(%ecx,%eax,1)
     1c7:	00 00                	add    %al,(%eax)
     1c9:	05 01 4c 01 00       	add    $0x14c01,%eax
     1ce:	00 01                	add    %al,(%ecx)
     1d0:	12 01                	adc    (%ecx),%al
     1d2:	cb                   	lret   
     1d3:	00 00                	add    %al,(%eax)
     1d5:	01 df                	add    %ebx,%edi
     1d7:	00 00                	add    %al,(%eax)
     1d9:	01 44 01 00          	add    %eax,0x0(%ecx,%eax,1)
     1dd:	00 06                	add    %al,(%esi)
     1df:	01 d8                	add    %ebx,%eax
     1e1:	00 00                	add    %al,(%eax)
     1e3:	00 01                	add    %al,(%ecx)
     1e5:	0e                   	push   %cs
     1e6:	01 df                	add    %ebx,%edi
     1e8:	00 00                	add    %al,(%eax)
     1ea:	01 fa                	add    %edi,%edx
     1ec:	00 00                	add    %al,(%eax)
     1ee:	01 7c 01 00          	add    %edi,0x0(%ecx,%eax,1)
     1f2:	00 f8                	add    %bh,%al
     1f4:	00 00                	add    %al,(%eax)
     1f6:	00 07                	add    %al,(%edi)
     1f8:	61                   	popa   
     1f9:	72 67                	jb     262 <main-0xfffd9e>
     1fb:	00 01                	add    %al,(%ecx)
     1fd:	0e                   	push   %cs
     1fe:	f8                   	clc    
     1ff:	00 00                	add    %al,(%eax)
     201:	00 02                	add    %al,(%edx)
     203:	91                   	xchg   %eax,%ecx
     204:	00 00                	add    %al,(%eax)
     206:	09 04 fe             	or     %eax,(%esi,%edi,8)
     209:	00 00                	add    %al,(%eax)
     20b:	00 0a                	add    %cl,(%edx)
     20d:	3a 00                	cmp    (%eax),%al
     20f:	00 00                	add    %al,(%eax)
     211:	0b 01                	or     (%ecx),%eax
     213:	21 01                	and    %eax,(%ecx)
     215:	00 00                	add    %al,(%eax)
     217:	01 0a                	add    %ecx,(%edx)
     219:	01 8a 00 00 00 fa    	add    %ecx,-0x6000000(%edx)
     21f:	00 00                	add    %al,(%eax)
     221:	01 0e                	add    %ecx,(%esi)
     223:	01 00                	add    %eax,(%eax)
     225:	01 b4 01 00 00 0b 01 	add    %esi,0x10b0000(%ecx,%eax,1)
     22c:	e1 00                	loope  22e <main-0xfffdd2>
     22e:	00 00                	add    %al,(%eax)
     230:	01 06                	add    %eax,(%esi)
     232:	01 8a 00 00 00 0e    	add    %ecx,0xe000000(%edx)
     238:	01 00                	add    %eax,(%eax)
     23a:	01 22                	add    %esp,(%edx)
     23c:	01 00                	add    %eax,(%eax)
     23e:	01 ec                	add    %ebp,%esp
     240:	01 00                	add    %eax,(%eax)
     242:	00 0c 01             	add    %cl,(%ecx,%eax,1)
     245:	c9                   	leave  
     246:	00 00                	add    %al,(%eax)
     248:	00 01                	add    %al,(%ecx)
     24a:	31 01                	xor    %eax,(%ecx)
     24c:	8a 00                	mov    (%eax),%al
     24e:	00 00                	add    %al,(%eax)
     250:	22 01                	and    (%ecx),%al
     252:	00 01                	add    %al,(%ecx)
     254:	48                   	dec    %eax
     255:	01 00                	add    %eax,(%eax)
     257:	01 24 02             	add    %esp,(%edx,%eax,1)
     25a:	00 00                	add    %al,(%eax)
     25c:	6f                   	outsl  %ds:(%esi),(%dx)
     25d:	01 00                	add    %eax,(%eax)
     25f:	00 0d 28 01 00 00    	add    %cl,0x128
     265:	01 31                	add    %esi,(%ecx)
     267:	8a 00                	mov    (%eax),%al
     269:	00 00                	add    %al,(%eax)
     26b:	02 91 00 07 62 75    	add    0x75620700(%ecx),%dl
     271:	66                   	data16
     272:	00 01                	add    %al,(%ecx)
     274:	31 6f 01             	xor    %ebp,0x1(%edi)
     277:	00 00                	add    %al,(%eax)
     279:	02 91 04 00 09 04    	add    0x4090004(%ecx),%dl
     27f:	3a 00                	cmp    (%eax),%al
     281:	00 00                	add    %al,(%eax)
     283:	06                   	push   %es
     284:	01 2d 01 00 00 01    	add    %ebp,0x1000001
     28a:	26 01 48 01          	add    %ecx,%es:0x1(%eax)
     28e:	00 01                	add    %al,(%ecx)
     290:	87 01                	xchg   %eax,(%ecx)
     292:	00 01                	add    %al,(%ecx)
     294:	5c                   	pop    %esp
     295:	02 00                	add    (%eax),%al
     297:	00 bb 01 00 00 07    	add    %bh,0x7000001(%ebx)
     29d:	66 6d                	insw   (%dx),%es:(%edi)
     29f:	74 00                	je     2a1 <main-0xfffd5f>
     2a1:	01 26                	add    %esp,(%esi)
     2a3:	f8                   	clc    
     2a4:	00 00                	add    %al,(%eax)
     2a6:	00 02                	add    %al,(%edx)
     2a8:	91                   	xchg   %eax,%ecx
     2a9:	00 0e                	add    %cl,(%esi)
     2ab:	0f 73                	(bad)  
     2ad:	74 72                	je     321 <main-0xfffcdf>
     2af:	00 01                	add    %al,(%ecx)
     2b1:	27                   	daa    
     2b2:	bb 01 00 00 03       	mov    $0x3000001,%ebx
     2b7:	91                   	xchg   %eax,%ecx
     2b8:	f4                   	hlt    
     2b9:	7d 10                	jge    2cb <main-0xfffd35>
     2bb:	61                   	popa   
     2bc:	70 00                	jo     2be <main-0xfffd42>
     2be:	01 28                	add    %ebp,(%eax)
     2c0:	25 00 00 00 94       	and    $0x94000000,%eax
     2c5:	02 00                	add    (%eax),%al
     2c7:	00 00                	add    %al,(%eax)
     2c9:	11 3a                	adc    %edi,(%edx)
     2cb:	00 00                	add    %al,(%eax)
     2cd:	00 12                	add    %dl,(%edx)
     2cf:	41                   	inc    %ecx
     2d0:	00 00                	add    %al,(%eax)
     2d2:	00 ff                	add    %bh,%bh
     2d4:	00 00                	add    %al,(%eax)
     2d6:	83 00 00             	addl   $0x0,(%eax)
     2d9:	00 02                	add    %al,(%edx)
     2db:	00 af 01 00 00 04    	add    %ch,0x4000001(%edi)
     2e1:	01 20                	add    %esp,(%eax)
     2e3:	01 00                	add    %eax,(%eax)
     2e5:	00 88 01 00 01 9e    	add    %cl,-0x61feffff(%eax)
     2eb:	01 00                	add    %eax,(%eax)
     2ed:	01 34 31             	add    %esi,(%ecx,%esi,1)
     2f0:	30 75 73             	xor    %dh,0x73(%ebp)
     2f3:	65                   	gs
     2f4:	72 2f                	jb     325 <main-0xfffcdb>
     2f6:	6c                   	insb   (%dx),%es:(%edi)
     2f7:	69 62 73 69 6d 69 63 	imul   $0x63696d69,0x73(%edx),%esp
     2fe:	73 2f                	jae    32f <main-0xfffcd1>
     300:	73 69                	jae    36b <main-0xfffc95>
     302:	6d                   	insl   (%dx),%es:(%edi)
     303:	69 63 73 2e 53 00 2f 	imul   $0x2f00532e,0x73(%ebx),%esp
     30a:	61                   	popa   
     30b:	66                   	data16
     30c:	73 2f                	jae    33d <main-0xfffcc3>
     30e:	61                   	popa   
     30f:	6e                   	outsb  %ds:(%esi),(%dx)
     310:	64                   	fs
     311:	72 65                	jb     378 <main-0xfffc88>
     313:	77 2e                	ja     343 <main-0xfffcbd>
     315:	63 6d 75             	arpl   %bp,0x75(%ebp)
     318:	2e                   	cs
     319:	65                   	gs
     31a:	64                   	fs
     31b:	75 2f                	jne    34c <main-0xfffcb4>
     31d:	75 73                	jne    392 <main-0xfffc6e>
     31f:	72 32                	jb     353 <main-0xfffcad>
     321:	33 2f                	xor    (%edi),%ebp
     323:	61                   	popa   
     324:	6e                   	outsb  %ds:(%esi),(%dx)
     325:	6b 75 72 73          	imul   $0x73,0x72(%ebp),%esi
     329:	68 61 2f 44 65       	push   $0x65442f61
     32e:	73 6b                	jae    39b <main-0xfffc65>
     330:	74 6f                	je     3a1 <main-0xfffc5f>
     332:	70 2f                	jo     363 <main-0xfffc9d>
     334:	73 74                	jae    3aa <main-0xfffc56>
     336:	75 64                	jne    39c <main-0xfffc64>
     338:	69 65 73 2f 31 35 34 	imul   $0x3435312f,0x73(%ebp),%esp
     33f:	31 30                	xor    %esi,(%eax)
     341:	2f                   	das    
     342:	50                   	push   %eax
     343:	32 2f                	xor    (%edi),%ch
     345:	70 32                	jo     379 <main-0xfffc87>
     347:	00 47 4e             	add    %al,0x4e(%edi)
     34a:	55                   	push   %ebp
     34b:	20 41 53             	and    %al,0x53(%ecx)
     34e:	20 32                	and    %dh,(%edx)
     350:	2e 32 30             	xor    %cs:(%eax),%dh
     353:	2e                   	cs
     354:	35 31 2e 30 2e       	xor    $0x2e302e31,%eax
     359:	32 00                	xor    (%eax),%al
     35b:	01 80 45 02 00 00    	add    %eax,0x245(%eax)
     361:	02 00                	add    (%eax),%al
     363:	c3                   	ret    
     364:	01 00                	add    %eax,(%eax)
     366:	00 04 01             	add    %al,(%ecx,%eax,1)
     369:	1d 00 00 00 01       	sbb    $0x1000000,%eax
     36e:	5b                   	pop    %ebx
     36f:	01 00                	add    %eax,(%eax)
     371:	00 44 00 00          	add    %al,0x0(%eax,%eax,1)
     375:	00 a0 01 00 01 a7    	add    %ah,-0x58feffff(%eax)
     37b:	02 00                	add    (%eax),%al
     37d:	01 6f 01             	add    %ebp,0x1(%edi)
     380:	00 00                	add    %al,(%eax)
     382:	02 c1                	add    %cl,%al
     384:	00 00                	add    %al,(%eax)
     386:	00 02                	add    %al,(%edx)
     388:	09 30                	or     %esi,(%eax)
     38a:	00 00                	add    %al,(%eax)
     38c:	00 03                	add    %al,(%ebx)
     38e:	04 b7                	add    $0xb7,%al
     390:	00 00                	add    %al,(%eax)
     392:	00 3a                	add    %bh,(%edx)
     394:	00 00                	add    %al,(%eax)
     396:	00 04 01             	add    %al,(%ecx,%eax,1)
     399:	06                   	push   %es
     39a:	74 02                	je     39e <main-0xfffc62>
     39c:	00 00                	add    %al,(%eax)
     39e:	05 92 01 00 00       	add    $0x192,%eax
     3a3:	0c 01                	or     $0x1,%al
     3a5:	1f                   	pop    %ds
     3a6:	78 00                	js     3a8 <main-0xfffc58>
     3a8:	00 00                	add    %al,(%eax)
     3aa:	06                   	push   %es
     3ab:	62 75 66             	bound  %esi,0x66(%ebp)
     3ae:	00 01                	add    %al,(%ecx)
     3b0:	20 78 00             	and    %bh,0x0(%eax)
     3b3:	00 00                	add    %al,(%eax)
     3b5:	02 23                	add    (%ebx),%ah
     3b7:	00 06                	add    %al,(%esi)
     3b9:	6c                   	insb   (%dx),%es:(%edi)
     3ba:	65 6e                	outsb  %gs:(%esi),(%dx)
     3bc:	00 01                	add    %al,(%ecx)
     3be:	21 7e 00             	and    %edi,0x0(%esi)
     3c1:	00 00                	add    %al,(%eax)
     3c3:	02 23                	add    (%ebx),%ah
     3c5:	04 06                	add    $0x6,%al
     3c7:	6d                   	insl   (%dx),%es:(%edi)
     3c8:	61                   	popa   
     3c9:	78 00                	js     3cb <main-0xfffc35>
     3cb:	01 22                	add    %esp,(%edx)
     3cd:	7e 00                	jle    3cf <main-0xfffc31>
     3cf:	00 00                	add    %al,(%eax)
     3d1:	02 23                	add    (%ebx),%ah
     3d3:	08 00                	or     %al,(%eax)
     3d5:	07                   	pop    %es
     3d6:	04 3a                	add    $0x3a,%al
     3d8:	00 00                	add    %al,(%eax)
     3da:	00 04 04             	add    %al,(%esp,%eax,1)
     3dd:	07                   	pop    %es
     3de:	ee                   	out    %al,(%dx)
     3df:	02 00                	add    (%eax),%al
     3e1:	00 08                	add    %cl,(%eax)
     3e3:	89 01                	mov    %eax,(%ecx)
     3e5:	00 00                	add    %al,(%eax)
     3e7:	01 26                	add    %esp,(%esi)
     3e9:	01 a0 01 00 01 c3    	add    %esp,-0x3cfeffff(%eax)
     3ef:	01 00                	add    %eax,(%eax)
     3f1:	01 c0                	add    %eax,%eax
     3f3:	02 00                	add    (%eax),%al
     3f5:	00 c6                	add    %al,%dh
     3f7:	00 00                	add    %al,(%eax)
     3f9:	00 09                	add    %cl,(%ecx)
     3fb:	61                   	popa   
     3fc:	72 67                	jb     465 <main-0xfffb9b>
     3fe:	00 01                	add    %al,(%ecx)
     400:	26                   	es
     401:	78 00                	js     403 <main-0xfffbfd>
     403:	00 00                	add    %al,(%eax)
     405:	02 91 00 09 63 00    	add    0x630900(%ecx),%dl
     40b:	01 26                	add    %esp,(%esi)
     40d:	c6 00 00             	movb   $0x0,(%eax)
     410:	00 02                	add    %al,(%edx)
     412:	91                   	xchg   %eax,%ecx
     413:	04 0a                	add    $0xa,%al
     415:	9a 01 00 00 01 28 cd 	lcall  $0xcd28,$0x1000001
     41c:	00 00                	add    %al,(%eax)
     41e:	00 02                	add    %al,(%edx)
     420:	91                   	xchg   %eax,%ecx
     421:	00 00                	add    %al,(%eax)
     423:	0b 04 05 69 6e 74 00 	or     0x746e69(,%eax,1),%eax
     42a:	07                   	pop    %es
     42b:	04 41                	add    $0x41,%al
     42d:	00 00                	add    %al,(%eax)
     42f:	00 0c 01             	add    %cl,(%ecx,%eax,1)
     432:	7f 01                	jg     435 <main-0xfffbcb>
     434:	00 00                	add    %al,(%eax)
     436:	01 42 01             	add    %eax,0x1(%edx)
     439:	c6 00 00             	movb   $0x0,(%eax)
     43c:	00 c3                	add    %al,%bl
     43e:	01 00                	add    %eax,(%eax)
     440:	01 10                	add    %edx,(%eax)
     442:	02 00                	add    (%eax),%al
     444:	01 f8                	add    %edi,%eax
     446:	02 00                	add    (%eax),%al
     448:	00 35 01 00 00 09    	add    %dh,0x9000001
     44e:	73 00                	jae    450 <main-0xfffbb0>
     450:	01 42 78             	add    %eax,0x78(%edx)
     453:	00 00                	add    %al,(%eax)
     455:	00 02                	add    %al,(%edx)
     457:	91                   	xchg   %eax,%ecx
     458:	00 0d 28 01 00 00    	add    %cl,0x128
     45e:	01 42 c6             	add    %eax,-0x3a(%edx)
     461:	00 00                	add    %al,(%eax)
     463:	00 02                	add    %al,(%edx)
     465:	91                   	xchg   %eax,%ecx
     466:	04 09                	add    $0x9,%al
     468:	66 6d                	insw   (%dx),%es:(%edi)
     46a:	74 00                	je     46c <main-0xfffb94>
     46c:	01 42 35             	add    %eax,0x35(%edx)
     46f:	01 00                	add    %eax,(%eax)
     471:	00 02                	add    %al,(%edx)
     473:	91                   	xchg   %eax,%ecx
     474:	08 0d a0 01 00 00    	or     %cl,0x1a0
     47a:	01 42 25             	add    %eax,0x25(%edx)
     47d:	00 00                	add    %al,(%eax)
     47f:	00 02                	add    %al,(%edx)
     481:	91                   	xchg   %eax,%ecx
     482:	0c 0a                	or     $0xa,%al
     484:	9a 01 00 00 01 44 41 	lcall  $0x4144,$0x1000001
     48b:	00 00                	add    %al,(%eax)
     48d:	00 02                	add    %al,(%edx)
     48f:	91                   	xchg   %eax,%ecx
     490:	6c                   	insb   (%dx),%es:(%edi)
     491:	00 07                	add    %al,(%edi)
     493:	04 3b                	add    $0x3b,%al
     495:	01 00                	add    %eax,(%eax)
     497:	00 0e                	add    %cl,(%esi)
     499:	3a 00                	cmp    (%eax),%al
     49b:	00 00                	add    %al,(%eax)
     49d:	0c 01                	or     $0x1,%al
     49f:	80 01 00             	addb   $0x0,(%ecx)
     4a2:	00 01                	add    %al,(%ecx)
     4a4:	5b                   	pop    %ebx
     4a5:	01 c6                	add    %eax,%esi
     4a7:	00 00                	add    %al,(%eax)
     4a9:	00 10                	add    %dl,(%eax)
     4ab:	02 00                	add    (%eax),%al
     4ad:	01 38                	add    %edi,(%eax)
     4af:	02 00                	add    (%eax),%al
     4b1:	01 30                	add    %esi,(%eax)
     4b3:	03 00                	add    (%eax),%eax
     4b5:	00 a3 01 00 00 09    	add    %ah,0x9000001(%ebx)
     4bb:	73 00                	jae    4bd <main-0xfffb43>
     4bd:	01 5b 78             	add    %ebx,0x78(%ebx)
     4c0:	00 00                	add    %al,(%eax)
     4c2:	00 02                	add    %al,(%edx)
     4c4:	91                   	xchg   %eax,%ecx
     4c5:	00 0d 28 01 00 00    	add    %cl,0x128
     4cb:	01 5b c6             	add    %ebx,-0x3a(%ebx)
     4ce:	00 00                	add    %al,(%eax)
     4d0:	00 02                	add    %al,(%edx)
     4d2:	91                   	xchg   %eax,%ecx
     4d3:	04 09                	add    $0x9,%al
     4d5:	66 6d                	insw   (%dx),%es:(%edi)
     4d7:	74 00                	je     4d9 <main-0xfffb27>
     4d9:	01 5b 35             	add    %ebx,0x35(%ebx)
     4dc:	01 00                	add    %eax,(%eax)
     4de:	00 02                	add    %al,(%edx)
     4e0:	91                   	xchg   %eax,%ecx
     4e1:	08 0f                	or     %cl,(%edi)
     4e3:	10 a0 01 00 00 01    	adc    %ah,0x1000001(%eax)
     4e9:	5d                   	pop    %ebp
     4ea:	25 00 00 00 68       	and    $0x68000000,%eax
     4ef:	03 00                	add    (%eax),%eax
     4f1:	00 11                	add    %dl,(%ecx)
     4f3:	65                   	gs
     4f4:	72 72                	jb     568 <main-0xfffa98>
     4f6:	00 01                	add    %al,(%ecx)
     4f8:	5e                   	pop    %esi
     4f9:	c6 00 00             	movb   $0x0,(%eax)
     4fc:	00 01                	add    %al,(%ecx)
     4fe:	50                   	push   %eax
     4ff:	00 0c 01             	add    %cl,(%ecx,%eax,1)
     502:	76 01                	jbe    505 <main-0xfffafb>
     504:	00 00                	add    %al,(%eax)
     506:	01 35 01 c6 00 00    	add    %esi,0xc601
     50c:	00 38                	add    %bh,(%eax)
     50e:	02 00                	add    (%eax),%al
     510:	01 86 02 00 01 94    	add    %eax,-0x6bfefffe(%esi)
     516:	03 00                	add    (%eax),%eax
     518:	00 f7                	add    %dh,%bh
     51a:	01 00                	add    %eax,(%eax)
     51c:	00 09                	add    %cl,(%ecx)
     51e:	73 00                	jae    520 <main-0xfffae0>
     520:	01 35 78 00 00 00    	add    %esi,0x78
     526:	02 91 00 09 66 6d    	add    0x6d660900(%ecx),%dl
     52c:	74 00                	je     52e <main-0xfffad2>
     52e:	01 35 35 01 00 00    	add    %esi,0x135
     534:	02 91 04 0d a0 01    	add    0x1a00d04(%ecx),%dl
     53a:	00 00                	add    %al,(%eax)
     53c:	01 35 25 00 00 00    	add    %esi,0x25
     542:	02 91 08 0a 9a 01    	add    0x19a0a08(%ecx),%dl
     548:	00 00                	add    %al,(%eax)
     54a:	01 37                	add    %esi,(%edi)
     54c:	41                   	inc    %ecx
     54d:	00 00                	add    %al,(%eax)
     54f:	00 02                	add    %al,(%edx)
     551:	91                   	xchg   %eax,%ecx
     552:	6c                   	insb   (%dx),%es:(%edi)
     553:	00 12                	add    %dl,(%edx)
     555:	01 77 01             	add    %esi,0x1(%edi)
     558:	00 00                	add    %al,(%eax)
     55a:	01 4f 01             	add    %ecx,0x1(%edi)
     55d:	c6 00 00             	movb   $0x0,(%eax)
     560:	00 86 02 00 01 a7    	add    %al,-0x58fefffe(%esi)
     566:	02 00                	add    (%eax),%al
     568:	01 cc                	add    %ecx,%esp
     56a:	03 00                	add    (%eax),%eax
     56c:	00 09                	add    %cl,(%ecx)
     56e:	73 00                	jae    570 <main-0xfffa90>
     570:	01 4f 78             	add    %ecx,0x78(%edi)
     573:	00 00                	add    %al,(%eax)
     575:	00 02                	add    %al,(%edx)
     577:	91                   	xchg   %eax,%ecx
     578:	00 09                	add    %cl,(%ecx)
     57a:	66 6d                	insw   (%dx),%es:(%edi)
     57c:	74 00                	je     57e <main-0xfffa82>
     57e:	01 4f 35             	add    %ecx,0x35(%edi)
     581:	01 00                	add    %eax,(%eax)
     583:	00 02                	add    %al,(%edx)
     585:	91                   	xchg   %eax,%ecx
     586:	04 0f                	add    $0xf,%al
     588:	10 a0 01 00 00 01    	adc    %ah,0x1000001(%eax)
     58e:	51                   	push   %ecx
     58f:	25 00 00 00 04       	and    $0x4000000,%eax
     594:	04 00                	add    $0x0,%al
     596:	00 11                	add    %dl,(%ecx)
     598:	65                   	gs
     599:	72 72                	jb     60d <main-0xfff9f3>
     59b:	00 01                	add    %al,(%ecx)
     59d:	52                   	push   %edx
     59e:	c6 00 00             	movb   $0x0,(%eax)
     5a1:	00 01                	add    %al,(%ecx)
     5a3:	50                   	push   %eax
     5a4:	00 00                	add    %al,(%eax)
     5a6:	fb                   	sti    
     5a7:	04 00                	add    $0x0,%al
     5a9:	00 02                	add    %al,(%edx)
     5ab:	00 c8                	add    %cl,%al
     5ad:	02 00                	add    (%eax),%al
     5af:	00 04 01             	add    %al,(%ecx,%eax,1)
     5b2:	1d 00 00 00 01       	sbb    $0x1000000,%eax
     5b7:	3e 02 00             	add    %ds:(%eax),%al
     5ba:	00 44 00 00          	add    %al,0x0(%eax,%eax,1)
     5be:	00 b0 02 00 01 82    	add    %dh,-0x7dfefffe(%eax)
     5c4:	11 00                	adc    %eax,(%eax)
     5c6:	01 fc                	add    %edi,%esp
     5c8:	01 00                	add    %eax,(%eax)
     5ca:	00 02                	add    %al,(%edx)
     5cc:	c1 00 00             	roll   $0x0,(%eax)
     5cf:	00 02                	add    %al,(%edx)
     5d1:	09 30                	or     %esi,(%eax)
     5d3:	00 00                	add    %al,(%eax)
     5d5:	00 03                	add    %al,(%ebx)
     5d7:	04 b7                	add    $0xb7,%al
     5d9:	00 00                	add    %al,(%eax)
     5db:	00 3a                	add    %bh,(%edx)
     5dd:	00 00                	add    %al,(%eax)
     5df:	00 04 01             	add    %al,(%ecx,%eax,1)
     5e2:	06                   	push   %es
     5e3:	74 02                	je     5e7 <main-0xfffa19>
     5e5:	00 00                	add    %al,(%eax)
     5e7:	04 04                	add    $0x4,%al
     5e9:	07                   	pop    %es
     5ea:	ee                   	out    %al,(%dx)
     5eb:	02 00                	add    (%eax),%al
     5ed:	00 04 04             	add    %al,(%esp,%eax,1)
     5f0:	07                   	pop    %es
     5f1:	e9 02 00 00 05       	jmp    50005f8 <_end+0x3ffdbdc>
     5f6:	04 03                	add    $0x3,%al
     5f8:	12 64 00 00          	adc    0x0(%eax,%eax,1),%ah
     5fc:	00 06                	add    %al,(%esi)
     5fe:	0e                   	push   %cs
     5ff:	02 00                	add    (%eax),%al
     601:	00 00                	add    %al,(%eax)
     603:	06                   	push   %es
     604:	b0 02                	mov    $0x2,%al
     606:	00 00                	add    %al,(%eax)
     608:	01 00                	add    %eax,(%eax)
     60a:	02 b3 01 00 00 03    	add    0x3000001(%ebx),%dh
     610:	15 4f 00 00 00       	adc    $0x4f,%eax
     615:	07                   	pop    %es
     616:	a2 02 00 00 01       	mov    %al,0x1000002
     61b:	95                   	xchg   %eax,%ebp
     61c:	b0 02                	mov    $0x2,%al
     61e:	00 01                	add    %al,(%ecx)
     620:	05 03 00 01 30       	add    $0x30010003,%eax
     625:	04 00                	add    $0x0,%al
     627:	00 db                	add    %bl,%bl
     629:	00 00                	add    %al,(%eax)
     62b:	00 08                	add    %cl,(%eax)
     62d:	75 00                	jne    62f <main-0xfff9d1>
     62f:	01 96 48 00 00 00    	add    %edx,0x48(%esi)
     635:	68 04 00 00 09       	push   $0x9000004
     63a:	6a 02                	push   $0x2
     63c:	00 00                	add    %al,(%eax)
     63e:	01 97 db 00 00 00    	add    %edx,0xdb(%edi)
     644:	86 04 00             	xchg   %al,(%eax,%eax,1)
     647:	00 09                	add    %cl,(%ecx)
     649:	ab                   	stos   %eax,%es:(%edi)
     64a:	02 00                	add    (%eax),%al
     64c:	00 01                	add    %al,(%ecx)
     64e:	98                   	cwtl   
     64f:	e9 00 00 00 a5       	jmp    a5000654 <_end+0xa3ffdc38>
     654:	04 00                	add    $0x0,%al
     656:	00 0a                	add    %cl,(%edx)
     658:	c3                   	ret    
     659:	01 00                	add    %eax,(%eax)
     65b:	00 01                	add    %al,(%ecx)
     65d:	99                   	cltd   
     65e:	ef                   	out    %eax,(%dx)
     65f:	00 00                	add    %al,(%eax)
     661:	00 02                	add    %al,(%edx)
     663:	91                   	xchg   %eax,%ecx
     664:	00 0b                	add    %cl,(%ebx)
     666:	62 75 66             	bound  %esi,0x66(%ebp)
     669:	00 01                	add    %al,(%ecx)
     66b:	9b                   	fwait
     66c:	f5                   	cmc    
     66d:	00 00                	add    %al,(%eax)
     66f:	00 02                	add    %al,(%edx)
     671:	91                   	xchg   %eax,%ecx
     672:	4c                   	dec    %esp
     673:	0c 70                	or     $0x70,%al
     675:	00 01                	add    %al,(%ecx)
     677:	9c                   	pushf  
     678:	ef                   	out    %eax,(%dx)
     679:	00 00                	add    %al,(%eax)
     67b:	00 c4                	add    %al,%ah
     67d:	04 00                	add    $0x0,%al
     67f:	00 00                	add    %al,(%eax)
     681:	0d 04 05 69 6e       	or     $0x6e690504,%eax
     686:	74 00                	je     688 <main-0xfff978>
     688:	0e                   	push   %cs
     689:	e9 00 00 00 0f       	jmp    f00068e <_end+0xdffdc72>
     68e:	00 10                	add    %dl,(%eax)
     690:	04 e2                	add    $0xe2,%al
     692:	00 00                	add    %al,(%eax)
     694:	00 10                	add    %dl,(%eax)
     696:	04 3a                	add    $0x3a,%al
     698:	00 00                	add    %al,(%eax)
     69a:	00 11                	add    %dl,(%ecx)
     69c:	3a 00                	cmp    (%eax),%al
     69e:	00 00                	add    %al,(%eax)
     6a0:	05 01 00 00 12       	add    $0x12000001,%eax
     6a5:	41                   	inc    %ecx
     6a6:	00 00                	add    %al,(%eax)
     6a8:	00 1f                	add    %bl,(%edi)
     6aa:	00 07                	add    %al,(%edi)
     6ac:	84 02                	test   %al,(%edx)
     6ae:	00 00                	add    %al,(%eax)
     6b0:	01 a8 05 03 00 01    	add    %ebp,0x1000305(%eax)
     6b6:	5d                   	pop    %ebp
     6b7:	03 00                	add    (%eax),%eax
     6b9:	01 e4                	add    %esp,%esp
     6bb:	04 00                	add    $0x0,%al
     6bd:	00 70 01             	add    %dh,0x1(%eax)
     6c0:	00 00                	add    %al,(%eax)
     6c2:	08 75 00             	or     %dh,0x0(%ebp)
     6c5:	01 a9 48 00 00 00    	add    %ebp,0x48(%ecx)
     6cb:	1c 05                	sbb    $0x5,%al
     6cd:	00 00                	add    %al,(%eax)
     6cf:	09 ab 02 00 00 01    	or     %ebp,0x1000002(%ebx)
     6d5:	aa                   	stos   %al,%es:(%edi)
     6d6:	e9 00 00 00 2f       	jmp    2f0006db <_end+0x2dffdcbf>
     6db:	05 00 00 09 c3       	add    $0xc3090000,%eax
     6e0:	01 00                	add    %eax,(%eax)
     6e2:	00 01                	add    %al,(%ecx)
     6e4:	ab                   	stos   %eax,%es:(%edi)
     6e5:	ef                   	out    %eax,(%dx)
     6e6:	00 00                	add    %al,(%eax)
     6e8:	00 4e 05             	add    %cl,0x5(%esi)
     6eb:	00 00                	add    %al,(%eax)
     6ed:	0b 62 75             	or     0x75(%edx),%esp
     6f0:	66                   	data16
     6f1:	00 01                	add    %al,(%ecx)
     6f3:	ad                   	lods   %ds:(%esi),%eax
     6f4:	70 01                	jo     6f7 <main-0xfff909>
     6f6:	00 00                	add    %al,(%eax)
     6f8:	02 91 64 0c 70 00    	add    0x700c64(%ecx),%dl
     6fe:	01 ae ef 00 00 00    	add    %ebp,0xef(%esi)
     704:	6d                   	insl   (%dx),%es:(%edi)
     705:	05 00 00 0c 69       	add    $0x690c0000,%eax
     70a:	00 01                	add    %al,(%ecx)
     70c:	af                   	scas   %es:(%edi),%eax
     70d:	db 00                	fildl  (%eax)
     70f:	00 00                	add    %al,(%eax)
     711:	8d 05 00 00 00 11    	lea    0x11000000,%eax
     717:	3a 00                	cmp    (%eax),%al
     719:	00 00                	add    %al,(%eax)
     71b:	80 01 00             	addb   $0x0,(%ecx)
     71e:	00 12                	add    %dl,(%edx)
     720:	41                   	inc    %ecx
     721:	00 00                	add    %al,(%eax)
     723:	00 07                	add    %al,(%edi)
     725:	00 13                	add    %dl,(%ebx)
     727:	01 62 02             	add    %esp,0x2(%edx)
     72a:	00 00                	add    %al,(%eax)
     72c:	01 bd 01 5d 03 00    	add    %edi,0x35d01(%ebp)
     732:	01 82 11 00 01 ac    	add    %eax,-0x53feffef(%edx)
     738:	05 00 00 9b 04       	add    $0x49b0000,%eax
     73d:	00 00                	add    %al,(%eax)
     73f:	08 66 6d             	or     %ah,0x6d(%esi)
     742:	74 00                	je     744 <main-0xfff8bc>
     744:	01 be 9b 04 00 00    	add    %edi,0x49b(%esi)
     74a:	e4 05                	in     $0x5,%al
     74c:	00 00                	add    %al,(%eax)
     74e:	09 a0 01 00 00 01    	or     %esp,0x1000001(%eax)
     754:	bf 25 00 00 00       	mov    $0x25,%edi
     759:	56                   	push   %esi
     75a:	06                   	push   %es
     75b:	00 00                	add    %al,(%eax)
     75d:	0a d9                	or     %cl,%bl
     75f:	01 00                	add    %eax,(%eax)
     761:	00 01                	add    %al,(%ecx)
     763:	c0 db 00             	rcr    $0x0,%bl
     766:	00 00                	add    %al,(%eax)
     768:	02 91 08 0a ab 02    	add    0x2ab0a08(%ecx),%dl
     76e:	00 00                	add    %al,(%eax)
     770:	01 c1                	add    %eax,%ecx
     772:	e9 00 00 00 02       	jmp    2000777 <_end+0xffdd5b>
     777:	91                   	xchg   %eax,%ecx
     778:	0c 0a                	or     $0xa,%al
     77a:	c3                   	ret    
     77b:	01 00                	add    %eax,(%eax)
     77d:	00 01                	add    %al,(%ecx)
     77f:	c2 ef 00             	ret    $0xef
     782:	00 00                	add    %al,(%eax)
     784:	02 91 10 14 dd 02    	add    0x2dd1410(%ecx),%dl
     78a:	00 00                	add    %al,(%eax)
     78c:	01 c4                	add    %eax,%esp
     78e:	db 00                	fildl  (%eax)
     790:	00 00                	add    %al,(%eax)
     792:	be 07 00 00 14       	mov    $0x14000007,%esi
     797:	14 02                	adc    $0x2,%al
     799:	00 00                	add    %al,(%eax)
     79b:	01 c5                	add    %eax,%ebp
     79d:	db 00                	fildl  (%eax)
     79f:	00 00                	add    %al,(%eax)
     7a1:	f1                   	icebp  
     7a2:	08 00                	or     %al,(%eax)
     7a4:	00 14 06             	add    %dl,(%esi,%eax,1)
     7a7:	02 00                	add    (%eax),%al
     7a9:	00 01                	add    %al,(%ecx)
     7ab:	c6                   	(bad)  
     7ac:	64 00 00             	add    %al,%fs:(%eax)
     7af:	00 b2 09 00 00 14    	add    %dh,0x14000009(%edx)
     7b5:	f2 01 00             	repnz add %eax,(%eax)
     7b8:	00 01                	add    %al,(%ecx)
     7ba:	c7                   	(bad)  
     7bb:	3a 00                	cmp    (%eax),%al
     7bd:	00 00                	add    %al,(%eax)
     7bf:	05 0a 00 00 0c       	add    $0xc00000a,%eax
     7c4:	6e                   	outsb  %ds:(%esi),(%dx)
     7c5:	00 01                	add    %al,(%ecx)
     7c7:	c8 a6 04 00          	enter  $0x4a6,$0x0
     7cb:	00 5b 0a             	add    %bl,0xa(%ebx)
     7ce:	00 00                	add    %al,(%eax)
     7d0:	0c 6d                	or     $0x6d,%al
     7d2:	00 01                	add    %al,(%ecx)
     7d4:	c8 a6 04 00          	enter  $0x4a6,$0x0
     7d8:	00 bf 0b 00 00 0c    	add    %bh,0xc00000b(%edi)
     7de:	75 00                	jne    7e0 <main-0xfff820>
     7e0:	01 c9                	add    %ecx,%ecx
     7e2:	ad                   	lods   %ds:(%esi),%eax
     7e3:	04 00                	add    $0x0,%al
     7e5:	00 f5                	add    %dh,%ch
     7e7:	0b 00                	or     (%eax),%eax
     7e9:	00 14 58             	add    %dl,(%eax,%ebx,2)
     7ec:	02 00                	add    (%eax),%al
     7ee:	00 01                	add    %al,(%ecx)
     7f0:	ca db 00             	lret   $0xdb
     7f3:	00 00                	add    %al,(%eax)
     7f5:	5d                   	pop    %ebp
     7f6:	0c 00                	or     $0x0,%al
     7f8:	00 14 6f             	add    %dl,(%edi,%ebp,2)
     7fb:	02 00                	add    (%eax),%al
     7fd:	00 01                	add    %al,(%ecx)
     7ff:	cb                   	lret   
     800:	db 00                	fildl  (%eax)
     802:	00 00                	add    %al,(%eax)
     804:	f5                   	cmc    
     805:	0c 00                	or     $0x0,%al
     807:	00 14 df             	add    %dl,(%edi,%ebx,8)
     80a:	01 00                	add    %eax,(%eax)
     80c:	00 01                	add    %al,(%ecx)
     80e:	cc                   	int3   
     80f:	64 00 00             	add    %al,%fs:(%eax)
     812:	00 52 0d             	add    %dl,0xd(%edx)
     815:	00 00                	add    %al,(%eax)
     817:	14 ba                	adc    $0xba,%al
     819:	02 00                	add    (%eax),%al
     81b:	00 01                	add    %al,(%ecx)
     81d:	cc                   	int3   
     81e:	64 00 00             	add    %al,%fs:(%eax)
     821:	00 8a 0d 00 00 14    	add    %cl,0x1400000d(%edx)
     827:	6a 02                	push   $0x2
     829:	00 00                	add    %al,(%eax)
     82b:	01 cd                	add    %ecx,%ebp
     82d:	db 00                	fildl  (%eax)
     82f:	00 00                	add    %al,(%eax)
     831:	99                   	cltd   
     832:	0e                   	push   %cs
     833:	00 00                	add    %al,(%eax)
     835:	0c 63                	or     $0x63,%al
     837:	00 01                	add    %al,(%ecx)
     839:	ce                   	into   
     83a:	3a 00                	cmp    (%eax),%al
     83c:	00 00                	add    %al,(%eax)
     83e:	db 0e                	fisttpl (%esi)
     840:	00 00                	add    %al,(%eax)
     842:	14 cd                	adc    $0xcd,%al
     844:	02 00                	add    (%eax),%al
     846:	00 01                	add    %al,(%ecx)
     848:	cf                   	iret   
     849:	db 00                	fildl  (%eax)
     84b:	00 00                	add    %al,(%eax)
     84d:	42                   	inc    %edx
     84e:	0f 00 00             	sldt   (%eax)
     851:	15 f7 01 00 00       	adc    $0x1f7,%eax
     856:	01 38                	add    %edi,(%eax)
     858:	02 cb                	add    %bl,%cl
     85a:	0e                   	push   %cs
     85b:	00 01                	add    %al,(%ecx)
     85d:	15 cc 01 00 00       	adc    $0x1cc,%eax
     862:	01 29                	add    %ebp,(%ecx)
     864:	02 69 0e             	add    0xe(%ecx),%ch
     867:	00 01                	add    %al,(%ecx)
     869:	15 c3 02 00 00       	adc    $0x2c3,%eax
     86e:	01 3f                	add    %edi,(%edi)
     870:	02 04 0f             	add    (%edi,%ecx,1),%al
     873:	00 01                	add    %al,(%ecx)
     875:	16                   	push   %ss
     876:	00 00                	add    %al,(%eax)
     878:	00 00                	add    %al,(%eax)
     87a:	18 03                	sbb    %al,(%ebx)
     87c:	00 00                	add    %al,(%eax)
     87e:	17                   	pop    %ss
     87f:	62 75 66             	bound  %esi,0x66(%ebp)
     882:	00 01                	add    %al,(%ecx)
     884:	41                   	inc    %ecx
     885:	02 f5                	add    %ch,%dh
     887:	00 00                	add    %al,(%eax)
     889:	00 02                	add    %al,(%edx)
     88b:	91                   	xchg   %eax,%ecx
     88c:	4c                   	dec    %esp
     88d:	18 70 00             	sbb    %dh,0x0(%eax)
     890:	01 42 02             	add    %eax,0x2(%edx)
     893:	ef                   	out    %eax,(%dx)
     894:	00 00                	add    %al,(%eax)
     896:	00 61 0f             	add    %ah,0xf(%ecx)
     899:	00 00                	add    %al,(%eax)
     89b:	19 e6                	sbb    %esp,%esi
     89d:	01 00                	add    %eax,(%eax)
     89f:	00 01                	add    %al,(%ecx)
     8a1:	43                   	inc    %ebx
     8a2:	02 c4                	add    %ah,%al
     8a4:	04 00                	add    $0x0,%al
     8a6:	00 05 03 ec 19 00    	add    %al,0x19ec03
     8ac:	01 1a                	add    %ebx,(%edx)
     8ae:	2a 02                	sub    (%edx),%al
     8b0:	00 00                	add    %al,(%eax)
     8b2:	01 44 02 ef          	add    %eax,-0x11(%edx,%eax,1)
     8b6:	00 00                	add    %al,(%eax)
     8b8:	00 99 0f 00 00 00    	add    %bl,0xf(%ecx)
     8be:	1b 37                	sbb    (%edi),%esi
     8c0:	05 00 01 e6 06       	add    $0x6e60100,%eax
     8c5:	00 01                	add    %al,(%ecx)
     8c7:	6a 03                	push   $0x3
     8c9:	00 00                	add    %al,(%eax)
     8cb:	18 70 00             	sbb    %dh,0x0(%eax)
     8ce:	01 22                	add    %esp,(%edx)
     8d0:	01 ef                	add    %ebp,%edi
     8d2:	00 00                	add    %al,(%eax)
     8d4:	00 c5                	add    %al,%ch
     8d6:	0f 00 00             	sldt   (%eax)
     8d9:	18 61 6e             	sbb    %ah,0x6e(%ecx)
     8dc:	79 00                	jns    8de <main-0xfff722>
     8de:	01 23                	add    %esp,(%ebx)
     8e0:	01 64 00 00          	add    %esp,0x0(%eax,%eax,1)
     8e4:	00 3c 10             	add    %bh,(%eax,%edx,1)
     8e7:	00 00                	add    %al,(%eax)
     8e9:	18 69 00             	sbb    %ch,0x0(%ecx)
     8ec:	01 24 01             	add    %esp,(%ecx,%eax,1)
     8ef:	db 00                	fildl  (%eax)
     8f1:	00 00                	add    %al,(%eax)
     8f3:	83 10 00             	adcl   $0x0,(%eax)
     8f6:	00 1c a5 05 00 01 43 	add    %bl,0x43010005(,%eiz,4)
     8fd:	06                   	push   %es
     8fe:	00 01                	add    %al,(%ecx)
     900:	18 6a 00             	sbb    %ch,0x0(%edx)
     903:	01 35 01 db 00 00    	add    %esi,0xdb01
     909:	00 b9 10 00 00 00    	add    %bh,0x10(%ecx)
     90f:	00 16                	add    %dl,(%esi)
     911:	18 00                	sbb    %al,(%eax)
     913:	00 00                	add    %al,(%eax)
     915:	77 04                	ja     91b <main-0xfff6e5>
     917:	00 00                	add    %al,(%eax)
     919:	1d 08 01 5d 01       	sbb    $0x15d0108,%eax
     91e:	fb                   	sti    
     91f:	03 00                	add    (%eax),%eax
     921:	00 1e                	add    %bl,(%esi)
     923:	19 02                	sbb    %eax,(%edx)
     925:	00 00                	add    %al,(%eax)
     927:	01 5e 01             	add    %ebx,0x1(%esi)
     92a:	41                   	inc    %ecx
     92b:	00 00                	add    %al,(%eax)
     92d:	00 04 0a             	add    %al,(%edx,%ecx,1)
     930:	16                   	push   %ss
     931:	02 23                	add    (%ebx),%ah
     933:	00 1e                	add    %bl,(%esi)
     935:	d5 02                	aad    $0x2
     937:	00 00                	add    %al,(%eax)
     939:	01 5f 01             	add    %ebx,0x1(%edi)
     93c:	41                   	inc    %ecx
     93d:	00 00                	add    %al,(%eax)
     93f:	00 04 07             	add    %al,(%edi,%eax,1)
     942:	0f 02 23             	lar    (%ebx),%esp
     945:	00 1e                	add    %bl,(%esi)
     947:	b5 02                	mov    $0x2,%ch
     949:	00 00                	add    %al,(%eax)
     94b:	01 60 01             	add    %esp,0x1(%eax)
     94e:	41                   	inc    %ecx
     94f:	00 00                	add    %al,(%eax)
     951:	00 04 0b             	add    %al,(%ebx,%ecx,1)
     954:	04 02                	add    $0x2,%al
     956:	23 00                	and    (%eax),%eax
     958:	1e                   	push   %ds
     959:	31 02                	xor    %eax,(%edx)
     95b:	00 00                	add    %al,(%eax)
     95d:	01 61 01             	add    %esp,0x1(%ecx)
     960:	41                   	inc    %ecx
     961:	00 00                	add    %al,(%eax)
     963:	00 04 04             	add    %al,(%esp,%eax,1)
     966:	00 02                	add    %al,(%edx)
     968:	23 00                	and    (%eax),%eax
     96a:	1e                   	push   %ds
     96b:	fb                   	sti    
     96c:	02 00                	add    (%eax),%al
     96e:	00 01                	add    %al,(%ecx)
     970:	62 01                	bound  %eax,(%ecx)
     972:	41                   	inc    %ecx
     973:	00 00                	add    %al,(%eax)
     975:	00 04 11             	add    %al,(%ecx,%edx,1)
     978:	0f 02 23             	lar    (%ebx),%esp
     97b:	04 1e                	add    $0x1e,%al
     97d:	7e 02                	jle    981 <main-0xfff67f>
     97f:	00 00                	add    %al,(%eax)
     981:	01 63 01             	add    %esp,0x1(%ebx)
     984:	41                   	inc    %ecx
     985:	00 00                	add    %al,(%eax)
     987:	00 04 0b             	add    %al,(%ebx,%ecx,1)
     98a:	04 02                	add    $0x2,%al
     98c:	23 04 1e             	and    (%esi,%ebx,1),%eax
     98f:	79 02                	jns    993 <main-0xfff66d>
     991:	00 00                	add    %al,(%eax)
     993:	01 64 01 41          	add    %esp,0x41(%ecx,%eax,1)
     997:	00 00                	add    %al,(%eax)
     999:	00 04 04             	add    %al,(%esp,%eax,1)
     99c:	00 02                	add    %al,(%edx)
     99e:	23 04 00             	and    (%eax,%eax,1),%eax
     9a1:	1f                   	pop    %ds
     9a2:	bd 01 00 00 01       	mov    $0x1000001,%ebp
     9a7:	65 01 73 03          	add    %esi,%gs:0x3(%ebx)
     9ab:	00 00                	add    %al,(%eax)
     9ad:	1d 08 01 66 01       	sbb    $0x1660108,%eax
     9b2:	2f                   	das    
     9b3:	04 00                	add    $0x0,%al
     9b5:	00 20                	add    %ah,(%eax)
     9b7:	9e                   	sahf   
     9b8:	00 00                	add    %al,(%eax)
     9ba:	00 01                	add    %al,(%ecx)
     9bc:	67 01 41 00          	add    %eax,0x0(%bx,%di)
     9c0:	00 00                	add    %al,(%eax)
     9c2:	02 23                	add    (%ebx),%ah
     9c4:	00 21                	add    %ah,(%ecx)
     9c6:	6c                   	insb   (%dx),%es:(%edi)
     9c7:	6f                   	outsl  %ds:(%esi),(%dx)
     9c8:	77 00                	ja     9ca <main-0xfff636>
     9ca:	01 68 01             	add    %ebp,0x1(%eax)
     9cd:	41                   	inc    %ecx
     9ce:	00 00                	add    %al,(%eax)
     9d0:	00 02                	add    %al,(%edx)
     9d2:	23 04 00             	and    (%eax,%eax,1),%eax
     9d5:	1f                   	pop    %ds
     9d6:	25 02 00 00 01       	and    $0x1000002,%eax
     9db:	69 01 07 04 00 00    	imul   $0x407,(%ecx),%eax
     9e1:	22 bd 01 00 00 08    	and    0x8000001(%ebp),%bh
     9e7:	01 6a 01             	add    %ebp,0x1(%edx)
     9ea:	5f                   	pop    %edi
     9eb:	04 00                	add    $0x0,%al
     9ed:	00 23                	add    %ah,(%ebx)
     9ef:	69 64 00 01 6b 01 fb 	imul   $0x3fb016b,0x1(%eax,%eax,1),%esp
     9f6:	03 
     9f7:	00 00                	add    %al,(%eax)
     9f9:	23 6c 68 00          	and    0x0(%eax,%ebp,2),%ebp
     9fd:	01 6c 01 2f          	add    %ebp,0x2f(%ecx,%eax,1)
     a01:	04 00                	add    $0x0,%al
     a03:	00 00                	add    %al,(%eax)
     a05:	17                   	pop    %ss
     a06:	74 69                	je     a71 <main-0xfff58f>
     a08:	64 00 01             	add    %al,%fs:(%ecx)
     a0b:	6d                   	insl   (%dx),%es:(%edi)
     a0c:	01 3b                	add    %edi,(%ebx)
     a0e:	04 00                	add    $0x0,%al
     a10:	00 0a                	add    %cl,(%edx)
     a12:	75 a0                	jne    9b4 <main-0xfff64c>
     a14:	7f 93                	jg     9a9 <main-0xfff657>
     a16:	04 75                	add    $0x75,%al
     a18:	a4                   	movsb  %ds:(%esi),%es:(%edi)
     a19:	7f 93                	jg     9ae <main-0xfff652>
     a1b:	04 00                	add    $0x0,%al
     a1d:	1c c6                	sbb    $0xc6,%al
     a1f:	0b 00                	or     (%eax),%eax
     a21:	01 b9 0d 00 01 18    	add    %edi,0x1801000d(%ecx)
     a27:	70 00                	jo     a29 <main-0xfff5d7>
     a29:	01 c7                	add    %eax,%edi
     a2b:	01 ef                	add    %ebp,%edi
     a2d:	00 00                	add    %al,(%eax)
     a2f:	00 d9                	add    %bl,%cl
     a31:	10 00                	adc    %al,(%eax)
     a33:	00 24 70             	add    %ah,(%eax,%esi,2)
     a36:	32 00                	xor    (%eax),%al
     a38:	01 c8                	add    %ecx,%eax
     a3a:	01 ef                	add    %ebp,%edi
     a3c:	00 00                	add    %al,(%eax)
     a3e:	00 00                	add    %al,(%eax)
     a40:	00 10                	add    %dl,(%eax)
     a42:	04 a1                	add    $0xa1,%al
     a44:	04 00                	add    $0x0,%al
     a46:	00 25 3a 00 00 00    	add    %ah,0x3a
     a4c:	04 08                	add    $0x8,%al
     a4e:	05 a5 01 00 00       	add    $0x1a5,%eax
     a53:	04 08                	add    $0x8,%al
     a55:	07                   	pop    %es
     a56:	e4 02                	in     $0x2,%al
     a58:	00 00                	add    %al,(%eax)
     a5a:	11 3a                	adc    %edi,(%edx)
     a5c:	00 00                	add    %al,(%eax)
     a5e:	00 c4                	add    %al,%ah
     a60:	04 00                	add    $0x0,%al
     a62:	00 12                	add    %dl,(%edx)
     a64:	41                   	inc    %ecx
     a65:	00 00                	add    %al,(%eax)
     a67:	00 10                	add    %dl,(%eax)
     a69:	00 25 b4 04 00 00    	add    %ah,0x4b4
     a6f:	26                   	es
     a70:	ed                   	in     (%dx),%eax
     a71:	01 00                	add    %eax,(%eax)
     a73:	00 01                	add    %al,(%ecx)
     a75:	92                   	xchg   %eax,%edx
     a76:	da 04 00             	fiaddl (%eax,%eax,1)
     a79:	00 05 03 fd 19 00    	add    %al,0x19fd03
     a7f:	01 25 b4 04 00 00    	add    %esp,0x4b4
     a85:	27                   	daa    
     a86:	90                   	nop
     a87:	02 00                	add    (%eax),%al
     a89:	00 01                	add    %al,(%ecx)
     a8b:	bb 64 00 00 00       	mov    $0x64,%ebx
     a90:	01 01                	add    %eax,(%ecx)
     a92:	28 90 02 00 00 01    	sub    %dl,0x1000002(%eax)
     a98:	bb 64 00 00 00       	mov    $0x64,%ebx
     a9d:	01 05 03 14 2a 00    	add    %eax,0x2a1403
     aa3:	01 00                	add    %eax,(%eax)
     aa5:	58                   	pop    %eax
     aa6:	00 00                	add    %al,(%eax)
     aa8:	00 02                	add    %al,(%edx)
     aaa:	00 df                	add    %bl,%bh
     aac:	04 00                	add    $0x0,%al
     aae:	00 04 01             	add    %al,(%ecx,%eax,1)
     ab1:	1d 00 00 00 01       	sbb    $0x1000000,%eax
     ab6:	05 03 00 00 44       	add    $0x44000003,%eax
     abb:	00 00                	add    %al,(%eax)
     abd:	00 84 11 00 01 9a 11 	add    %al,0x119a0100(%ecx,%edx,1)
     ac4:	00 01                	add    %al,(%ecx)
     ac6:	19 04 00             	sbb    %eax,(%eax,%eax,1)
     ac9:	00 02                	add    %al,(%edx)
     acb:	04 07                	add    $0x7,%al
     acd:	ee                   	out    %al,(%dx)
     ace:	02 00                	add    (%eax),%al
     ad0:	00 03                	add    %al,(%ebx)
     ad2:	01 00                	add    %eax,(%eax)
     ad4:	03 00                	add    (%eax),%eax
     ad6:	00 01                	add    %al,(%ecx)
     ad8:	0c 01                	or     $0x1,%al
     ada:	84 11                	test   %dl,(%ecx)
     adc:	00 01                	add    %al,(%ecx)
     ade:	9a 11 00 01 26 11 00 	lcall  $0x11,$0x26010011
     ae5:	00 54 00 00          	add    %dl,0x0(%eax,%eax,1)
     ae9:	00 04 8a             	add    %al,(%edx,%ecx,4)
     aec:	03 00                	add    (%eax),%eax
     aee:	00 01                	add    %al,(%ecx)
     af0:	0c 54                	or     $0x54,%al
     af2:	00 00                	add    %al,(%eax)
     af4:	00 02                	add    %al,(%edx)
     af6:	91                   	xchg   %eax,%ecx
     af7:	00 00                	add    %al,(%eax)
     af9:	05 04 05 69 6e       	add    $0x6e690504,%eax
     afe:	74 00                	je     b00 <main-0xfff500>
     b00:	00 70 00             	add    %dh,0x0(%eax)
     b03:	00 00                	add    %al,(%eax)
     b05:	02 00                	add    (%eax),%al
     b07:	2f                   	das    
     b08:	05 00 00 04 01       	add    $0x1040000,%eax
     b0d:	1d 00 00 00 01       	sbb    $0x1000000,%eax
     b12:	2c 03                	sub    $0x3,%al
     b14:	00 00                	add    %al,(%eax)
     b16:	44                   	inc    %esp
     b17:	00 00                	add    %al,(%eax)
     b19:	00 9c 11 00 01 b4 11 	add    %bl,0x11b40100(%ecx,%edx,1)
     b20:	00 01                	add    %al,(%ecx)
     b22:	63 04 00             	arpl   %ax,(%eax,%eax,1)
     b25:	00 02                	add    %al,(%edx)
     b27:	01 25 03 00 00 01    	add    %esp,0x1000003
     b2d:	24 5f                	and    $0x5f,%al
     b2f:	00 00                	add    %al,(%eax)
     b31:	00 9c 11 00 01 b4 11 	add    %bl,0x11b40100(%ecx,%edx,1)
     b38:	00 01                	add    %al,(%ecx)
     b3a:	52                   	push   %edx
     b3b:	11 00                	adc    %eax,(%eax)
     b3d:	00 5f 00             	add    %bl,0x0(%edi)
     b40:	00 00                	add    %al,(%eax)
     b42:	03 1e                	add    (%esi),%ebx
     b44:	03 00                	add    (%eax),%eax
     b46:	00 01                	add    %al,(%ecx)
     b48:	25 66 00 00 00       	and    $0x66,%eax
     b4d:	8a 11                	mov    (%ecx),%dl
     b4f:	00 00                	add    %al,(%eax)
     b51:	04 72                	add    $0x72,%al
     b53:	65                   	gs
     b54:	74 00                	je     b56 <main-0xfff4aa>
     b56:	01 27                	add    %esp,(%edi)
     b58:	66                   	data16
     b59:	00 00                	add    %al,(%eax)
     b5b:	00 02                	add    %al,(%edx)
     b5d:	91                   	xchg   %eax,%ecx
     b5e:	00 00                	add    %al,(%eax)
     b60:	05 04 05 69 6e       	add    $0x6e690504,%eax
     b65:	74 00                	je     b67 <main-0xfff499>
     b67:	06                   	push   %es
     b68:	04 6c                	add    $0x6c,%al
     b6a:	00 00                	add    %al,(%eax)
     b6c:	00 07                	add    %al,(%edi)
     b6e:	01 06                	add    %eax,(%esi)
     b70:	74 02                	je     b74 <main-0xfff48c>
     b72:	00 00                	add    %al,(%eax)
     b74:	00 9b 05 00 00 02    	add    %bl,0x2000005(%ebx)
     b7a:	00 97 05 00 00 04    	add    %dl,0x4000005(%edi)
     b80:	01 1d 00 00 00 01    	add    %ebx,0x1000000
     b86:	60                   	pusha  
     b87:	03 00                	add    (%eax),%eax
     b89:	00 44 00 00          	add    %al,0x0(%eax,%eax,1)
     b8d:	00 b4 11 00 01 72 12 	add    %dh,0x12720100(%ecx,%edx,1)
     b94:	00 01                	add    %al,(%ecx)
     b96:	b0 04                	mov    $0x4,%al
     b98:	00 00                	add    %al,(%eax)
     b9a:	02 52 03             	add    0x3(%edx),%dl
     b9d:	00 00                	add    %al,(%eax)
     b9f:	50                   	push   %eax
     ba0:	02 16                	add    (%esi),%dl
     ba2:	44                   	inc    %esp
     ba3:	01 00                	add    %eax,(%eax)
     ba5:	00 03                	add    %al,(%ebx)
     ba7:	43                   	inc    %ebx
     ba8:	04 00                	add    $0x0,%al
     baa:	00 02                	add    %al,(%edx)
     bac:	17                   	pop    %ss
     bad:	44                   	inc    %esp
     bae:	01 00                	add    %eax,(%eax)
     bb0:	00 02                	add    %al,(%edx)
     bb2:	23 00                	and    (%eax),%eax
     bb4:	04 63                	add    $0x63,%al
     bb6:	72 32                	jb     bea <main-0xfff416>
     bb8:	00 02                	add    %al,(%edx)
     bba:	18 44 01 00          	sbb    %al,0x0(%ecx,%eax,1)
     bbe:	00 02                	add    %al,(%edx)
     bc0:	23 04 04             	and    (%esp,%eax,1),%eax
     bc3:	64                   	fs
     bc4:	73 00                	jae    bc6 <main-0xfff43a>
     bc6:	02 1a                	add    (%edx),%bl
     bc8:	44                   	inc    %esp
     bc9:	01 00                	add    %eax,(%eax)
     bcb:	00 02                	add    %al,(%edx)
     bcd:	23 08                	and    (%eax),%ecx
     bcf:	04 65                	add    $0x65,%al
     bd1:	73 00                	jae    bd3 <main-0xfff42d>
     bd3:	02 1b                	add    (%ebx),%bl
     bd5:	44                   	inc    %esp
     bd6:	01 00                	add    %eax,(%eax)
     bd8:	00 02                	add    %al,(%edx)
     bda:	23 0c 04             	and    (%esp,%eax,1),%ecx
     bdd:	66                   	data16
     bde:	73 00                	jae    be0 <main-0xfff420>
     be0:	02 1c 44             	add    (%esp,%eax,2),%bl
     be3:	01 00                	add    %eax,(%eax)
     be5:	00 02                	add    %al,(%edx)
     be7:	23 10                	and    (%eax),%edx
     be9:	04 67                	add    $0x67,%al
     beb:	73 00                	jae    bed <main-0xfff413>
     bed:	02 1d 44 01 00 00    	add    0x144,%bl
     bf3:	02 23                	add    (%ebx),%ah
     bf5:	14 04                	adc    $0x4,%al
     bf7:	65 64 69 00 02 1f 44 	gs imul $0x1441f02,%fs:%gs:(%eax),%eax
     bfe:	01 
     bff:	00 00                	add    %al,(%eax)
     c01:	02 23                	add    (%ebx),%ah
     c03:	18 04 65 73 69 00 02 	sbb    %al,0x2006973(,%eiz,2)
     c0a:	20 44 01 00          	and    %al,0x0(%ecx,%eax,1)
     c0e:	00 02                	add    %al,(%edx)
     c10:	23 1c 04             	and    (%esp,%eax,1),%ebx
     c13:	65 62 70 00          	bound  %esi,%gs:0x0(%eax)
     c17:	02 21                	add    (%ecx),%ah
     c19:	44                   	inc    %esp
     c1a:	01 00                	add    %eax,(%eax)
     c1c:	00 02                	add    %al,(%edx)
     c1e:	23 20                	and    (%eax),%esp
     c20:	03 ad 03 00 00 02    	add    0x2000003(%ebp),%ebp
     c26:	22 44 01 00          	and    0x0(%ecx,%eax,1),%al
     c2a:	00 02                	add    %al,(%edx)
     c2c:	23 24 04             	and    (%esp,%eax,1),%esp
     c2f:	65 62 78 00          	bound  %edi,%gs:0x0(%eax)
     c33:	02 23                	add    (%ebx),%ah
     c35:	44                   	inc    %esp
     c36:	01 00                	add    %eax,(%eax)
     c38:	00 02                	add    %al,(%edx)
     c3a:	23 28                	and    (%eax),%ebp
     c3c:	04 65                	add    $0x65,%al
     c3e:	64                   	fs
     c3f:	78 00                	js     c41 <main-0xfff3bf>
     c41:	02 24 44             	add    (%esp,%eax,2),%ah
     c44:	01 00                	add    %eax,(%eax)
     c46:	00 02                	add    %al,(%edx)
     c48:	23 2c 04             	and    (%esp,%eax,1),%ebp
     c4b:	65 63 78 00          	arpl   %di,%gs:0x0(%eax)
     c4f:	02 25 44 01 00 00    	add    0x144,%ah
     c55:	02 23                	add    (%ebx),%ah
     c57:	30 04 65 61 78 00 02 	xor    %al,0x2007861(,%eiz,2)
     c5e:	26                   	es
     c5f:	44                   	inc    %esp
     c60:	01 00                	add    %eax,(%eax)
     c62:	00 02                	add    %al,(%edx)
     c64:	23 34 03             	and    (%ebx,%eax,1),%esi
     c67:	47                   	inc    %edi
     c68:	03 00                	add    (%eax),%eax
     c6a:	00 02                	add    %al,(%edx)
     c6c:	28 44 01 00          	sub    %al,0x0(%ecx,%eax,1)
     c70:	00 02                	add    %al,(%edx)
     c72:	23 38                	and    (%eax),%edi
     c74:	04 65                	add    $0x65,%al
     c76:	69 70 00 02 29 44 01 	imul   $0x1442902,0x0(%eax),%esi
     c7d:	00 00                	add    %al,(%eax)
     c7f:	02 23                	add    (%ebx),%ah
     c81:	3c 04                	cmp    $0x4,%al
     c83:	63 73 00             	arpl   %si,0x0(%ebx)
     c86:	02 2a                	add    (%edx),%ch
     c88:	44                   	inc    %esp
     c89:	01 00                	add    %eax,(%eax)
     c8b:	00 02                	add    %al,(%edx)
     c8d:	23 40 03             	and    0x3(%eax),%eax
     c90:	58                   	pop    %eax
     c91:	04 00                	add    $0x0,%al
     c93:	00 02                	add    %al,(%edx)
     c95:	2b 44 01 00          	sub    0x0(%ecx,%eax,1),%eax
     c99:	00 02                	add    %al,(%edx)
     c9b:	23 44 04 65          	and    0x65(%esp,%eax,1),%eax
     c9f:	73 70                	jae    d11 <main-0xfff2ef>
     ca1:	00 02                	add    %al,(%edx)
     ca3:	2c 44                	sub    $0x44,%al
     ca5:	01 00                	add    %eax,(%eax)
     ca7:	00 02                	add    %al,(%edx)
     ca9:	23 48 04             	and    0x4(%eax),%ecx
     cac:	73 73                	jae    d21 <main-0xfff2df>
     cae:	00 02                	add    %al,(%edx)
     cb0:	2d 44 01 00 00       	sub    $0x144,%eax
     cb5:	02 23                	add    (%ebx),%ah
     cb7:	4c                   	dec    %esp
     cb8:	00 05 04 07 ee 02    	add    %al,0x2ee0704
     cbe:	00 00                	add    %al,(%eax)
     cc0:	06                   	push   %es
     cc1:	52                   	push   %edx
     cc2:	03 00                	add    (%eax),%eax
     cc4:	00 02                	add    %al,(%edx)
     cc6:	2e                   	cs
     cc7:	25 00 00 00 06       	and    $0x6000000,%eax
     ccc:	96                   	xchg   %eax,%esi
     ccd:	04 00                	add    $0x0,%al
     ccf:	00 03                	add    %al,(%ebx)
     cd1:	50                   	push   %eax
     cd2:	61                   	popa   
     cd3:	01 00                	add    %eax,(%eax)
     cd5:	00 07                	add    %al,(%edi)
     cd7:	04 67                	add    $0x67,%al
     cd9:	01 00                	add    %eax,(%eax)
     cdb:	00 08                	add    %cl,(%eax)
     cdd:	01 78 01             	add    %edi,0x1(%eax)
     ce0:	00 00                	add    %al,(%eax)
     ce2:	09 78 01             	or     %edi,0x1(%eax)
     ce5:	00 00                	add    %al,(%eax)
     ce7:	09 7a 01             	or     %edi,0x1(%edx)
     cea:	00 00                	add    %al,(%eax)
     cec:	00 0a                	add    %cl,(%edx)
     cee:	04 07                	add    $0x7,%al
     cf0:	04 4b                	add    $0x4b,%al
     cf2:	01 00                	add    %eax,(%eax)
     cf4:	00 0b                	add    %cl,(%ebx)
     cf6:	01 22                	add    %esp,(%edx)
     cf8:	04 00                	add    $0x0,%al
     cfa:	00 01                	add    %al,(%ecx)
     cfc:	20 01                	and    %al,(%ecx)
     cfe:	ba 01 00 00 b4       	mov    $0xb4000001,%edx
     d03:	11 00                	adc    %eax,(%eax)
     d05:	01 be 11 00 01 b4    	add    %edi,-0x4bfeffef(%esi)
     d0b:	11 00                	adc    %eax,(%eax)
     d0d:	00 ba 01 00 00 0c    	add    %bh,0xc000001(%edx)
     d13:	b8 03 00 00 01       	mov    $0x1000003,%eax
     d18:	20 c1                	and    %al,%cl
     d1a:	01 00                	add    %eax,(%eax)
     d1c:	00 02                	add    %al,(%edx)
     d1e:	91                   	xchg   %eax,%ecx
     d1f:	00 0c 11             	add    %cl,(%ecx,%edx,1)
     d22:	04 00                	add    $0x0,%al
     d24:	00 01                	add    %al,(%ecx)
     d26:	20 ce                	and    %cl,%dh
     d28:	01 00                	add    %eax,(%eax)
     d2a:	00 02                	add    %al,(%edx)
     d2c:	91                   	xchg   %eax,%ecx
     d2d:	04 00                	add    $0x0,%al
     d2f:	0d 04 05 69 6e       	or     $0x6e690504,%eax
     d34:	74 00                	je     d36 <main-0xfff2ca>
     d36:	07                   	pop    %es
     d37:	04 c7                	add    $0xc7,%al
     d39:	01 00                	add    %eax,(%eax)
     d3b:	00 05 01 06 74 02    	add    %al,0x2740601
     d41:	00 00                	add    %al,(%eax)
     d43:	07                   	pop    %es
     d44:	04 c1                	add    $0xc1,%al
     d46:	01 00                	add    %eax,(%eax)
     d48:	00 0e                	add    %cl,(%esi)
     d4a:	01 86 03 00 00 01    	add    %eax,0x1000003(%esi)
     d50:	25 01 be 11 00       	and    $0x11be01,%eax
     d55:	01 c3                	add    %eax,%ebx
     d57:	11 00                	adc    %eax,(%eax)
     d59:	01 ec                	add    %ebp,%esp
     d5b:	11 00                	adc    %eax,(%eax)
     d5d:	00 fc                	add    %bh,%ah
     d5f:	01 00                	add    %eax,(%eax)
     d61:	00 0c 8a             	add    %cl,(%edx,%ecx,4)
     d64:	03 00                	add    (%eax),%eax
     d66:	00 01                	add    %al,(%ecx)
     d68:	25 ba 01 00 00       	and    $0x1ba,%eax
     d6d:	02 91 00 00 0b 01    	add    0x10b0000(%ecx),%dl
     d73:	18 04 00             	sbb    %al,(%eax,%eax,1)
     d76:	00 01                	add    %al,(%ecx)
     d78:	37                   	aaa    
     d79:	01 ba 01 00 00 c3    	add    %edi,-0x3cffffff(%edx)
     d7f:	11 00                	adc    %eax,(%eax)
     d81:	01 cd                	add    %ecx,%ebp
     d83:	11 00                	adc    %eax,(%eax)
     d85:	01 24 12             	add    %esp,(%edx,%edx,1)
     d88:	00 00                	add    %al,(%eax)
     d8a:	28 02                	sub    %al,(%edx)
     d8c:	00 00                	add    %al,(%eax)
     d8e:	0c e5                	or     $0xe5,%al
     d90:	03 00                	add    (%eax),%eax
     d92:	00 01                	add    %al,(%ecx)
     d94:	37                   	aaa    
     d95:	28 02                	sub    %al,(%edx)
     d97:	00 00                	add    %al,(%eax)
     d99:	02 91 00 00 07 04    	add    0x4070000(%ecx),%dl
     d9f:	ba 01 00 00 0b       	mov    $0xb000001,%edx
     da4:	01 df                	add    %ebx,%edi
     da6:	03 00                	add    (%eax),%eax
     da8:	00 01                	add    %al,(%ecx)
     daa:	3c 01                	cmp    $0x1,%al
     dac:	ba 01 00 00 cd       	mov    $0xcd000001,%edx
     db1:	11 00                	adc    %eax,(%eax)
     db3:	01 d7                	add    %edx,%edi
     db5:	11 00                	adc    %eax,(%eax)
     db7:	01 5c 12 00          	add    %ebx,0x0(%edx,%edx,1)
     dbb:	00 5a 02             	add    %bl,0x2(%edx)
     dbe:	00 00                	add    %al,(%eax)
     dc0:	0f 70 69 64 00       	pshufw $0x0,0x64(%ecx),%mm5
     dc5:	01 3c ba             	add    %edi,(%edx,%edi,4)
     dc8:	01 00                	add    %eax,(%eax)
     dca:	00 02                	add    %al,(%edx)
     dcc:	91                   	xchg   %eax,%ecx
     dcd:	00 00                	add    %al,(%eax)
     dcf:	0b 01                	or     (%ecx),%eax
     dd1:	06                   	push   %es
     dd2:	04 00                	add    $0x0,%al
     dd4:	00 01                	add    %al,(%ecx)
     dd6:	41                   	inc    %ecx
     dd7:	01 ba 01 00 00 d7    	add    %edi,-0x28ffffff(%edx)
     ddd:	11 00                	adc    %eax,(%eax)
     ddf:	01 e1                	add    %esp,%ecx
     de1:	11 00                	adc    %eax,(%eax)
     de3:	01 94 12 00 00 86 02 	add    %edx,0x2860000(%edx,%edx,1)
     dea:	00 00                	add    %al,(%eax)
     dec:	0c 1d                	or     $0x1d,%al
     dee:	04 00                	add    $0x0,%al
     df0:	00 01                	add    %al,(%ecx)
     df2:	41                   	inc    %ecx
     df3:	28 02                	sub    %al,(%edx)
     df5:	00 00                	add    %al,(%eax)
     df7:	02 91 00 00 0b 01    	add    0x10b0000(%ecx),%dl
     dfd:	79 04                	jns    e03 <main-0xfff1fd>
     dff:	00 00                	add    %al,(%eax)
     e01:	01 46 01             	add    %eax,0x1(%esi)
     e04:	ba 01 00 00 e1       	mov    $0xe1000001,%edx
     e09:	11 00                	adc    %eax,(%eax)
     e0b:	01 eb                	add    %ebp,%ebx
     e0d:	11 00                	adc    %eax,(%eax)
     e0f:	01 cc                	add    %ecx,%esp
     e11:	12 00                	adc    (%eax),%al
     e13:	00 b2 02 00 00 0f    	add    %dh,0xf000002(%edx)
     e19:	70 69                	jo     e84 <main-0xfff17c>
     e1b:	64 00 01             	add    %al,%fs:(%ecx)
     e1e:	46                   	inc    %esi
     e1f:	ba 01 00 00 02       	mov    $0x2000001,%edx
     e24:	91                   	xchg   %eax,%ecx
     e25:	00 00                	add    %al,(%eax)
     e27:	10 01                	adc    %al,(%ecx)
     e29:	f5                   	cmc    
     e2a:	03 00                	add    (%eax),%eax
     e2c:	00 01                	add    %al,(%ecx)
     e2e:	4b                   	dec    %ebx
     e2f:	01 ba 01 00 00 eb    	add    %edi,-0x14ffffff(%edx)
     e35:	11 00                	adc    %eax,(%eax)
     e37:	01 f5                	add    %esi,%ebp
     e39:	11 00                	adc    %eax,(%eax)
     e3b:	01 04 13             	add    %eax,(%ebx,%edx,1)
     e3e:	00 00                	add    %al,(%eax)
     e40:	0b 01                	or     (%ecx),%eax
     e42:	b2 03                	mov    $0x3,%dl
     e44:	00 00                	add    %al,(%eax)
     e46:	01 57 01             	add    %edx,0x1(%edi)
     e49:	ba 01 00 00 f5       	mov    $0xf5000001,%edx
     e4e:	11 00                	adc    %eax,(%eax)
     e50:	01 ff                	add    %edi,%edi
     e52:	11 00                	adc    %eax,(%eax)
     e54:	01 3c 13             	add    %edi,(%ebx,%edx,1)
     e57:	00 00                	add    %al,(%eax)
     e59:	21 03                	and    %eax,(%ebx)
     e5b:	00 00                	add    %al,(%eax)
     e5d:	0c a8                	or     $0xa8,%al
     e5f:	03 00                	add    (%eax),%eax
     e61:	00 01                	add    %al,(%ecx)
     e63:	57                   	push   %edi
     e64:	78 01                	js     e67 <main-0xfff199>
     e66:	00 00                	add    %al,(%eax)
     e68:	02 91 00 0f 65 69    	add    0x69650f00(%ecx),%dl
     e6e:	70 00                	jo     e70 <main-0xfff190>
     e70:	01 57 56             	add    %edx,0x56(%edi)
     e73:	01 00                	add    %eax,(%eax)
     e75:	00 02                	add    %al,(%edx)
     e77:	91                   	xchg   %eax,%ecx
     e78:	04 0f                	add    $0xf,%al
     e7a:	61                   	popa   
     e7b:	72 67                	jb     ee4 <main-0xfff11c>
     e7d:	00 01                	add    %al,(%ecx)
     e7f:	57                   	push   %edi
     e80:	78 01                	js     e83 <main-0xfff17d>
     e82:	00 00                	add    %al,(%eax)
     e84:	02 91 08 0c 91 03    	add    0x3910c08(%ecx),%dl
     e8a:	00 00                	add    %al,(%eax)
     e8c:	01 57 7a             	add    %edx,0x7a(%edi)
     e8f:	01 00                	add    %eax,(%eax)
     e91:	00 02                	add    %al,(%edx)
     e93:	91                   	xchg   %eax,%ecx
     e94:	0c 00                	or     $0x0,%al
     e96:	10 01                	adc    %al,(%ecx)
     e98:	3b 04 00             	cmp    (%eax,%eax,1),%eax
     e9b:	00 01                	add    %al,(%ecx)
     e9d:	5c                   	pop    %esp
     e9e:	01 c7                	add    %eax,%edi
     ea0:	01 00                	add    %eax,(%eax)
     ea2:	00 ff                	add    %bh,%bh
     ea4:	11 00                	adc    %eax,(%eax)
     ea6:	01 09                	add    %ecx,(%ecx)
     ea8:	12 00                	adc    (%eax),%al
     eaa:	01 74 13 00          	add    %esi,0x0(%ebx,%edx,1)
     eae:	00 0b                	add    %cl,(%ebx)
     eb0:	01 cf                	add    %ecx,%edi
     eb2:	00 00                	add    %al,(%eax)
     eb4:	00 01                	add    %al,(%ecx)
     eb6:	61                   	popa   
     eb7:	01 ba 01 00 00 09    	add    %edi,0x9000001(%edx)
     ebd:	12 00                	adc    (%eax),%al
     ebf:	01 13                	add    %edx,(%ebx)
     ec1:	12 00                	adc    (%eax),%al
     ec3:	01 ac 13 00 00 74 03 	add    %ebp,0x3740000(%ebx,%edx,1)
     eca:	00 00                	add    %al,(%eax)
     ecc:	0c 28                	or     $0x28,%al
     ece:	01 00                	add    %eax,(%eax)
     ed0:	00 01                	add    %al,(%ecx)
     ed2:	61                   	popa   
     ed3:	ba 01 00 00 02       	mov    $0x2000001,%edx
     ed8:	91                   	xchg   %eax,%ecx
     ed9:	00 0f                	add    %cl,(%edi)
     edb:	62 75 66             	bound  %esi,0x66(%ebp)
     ede:	00 01                	add    %al,(%ecx)
     ee0:	61                   	popa   
     ee1:	c1 01 00             	roll   $0x0,(%ecx)
     ee4:	00 02                	add    %al,(%edx)
     ee6:	91                   	xchg   %eax,%ecx
     ee7:	04 00                	add    $0x0,%al
     ee9:	0b 01                	or     (%ecx),%eax
     eeb:	5f                   	pop    %edi
     eec:	04 00                	add    $0x0,%al
     eee:	00 01                	add    %al,(%ecx)
     ef0:	66 01 ba 01 00 00 13 	add    %di,0x13000001(%edx)
     ef7:	12 00                	adc    (%eax),%al
     ef9:	01 1d 12 00 01 e4    	add    %ebx,0xe4010012
     eff:	13 00                	adc    (%eax),%eax
     f01:	00 ae 03 00 00 0c    	add    %ch,0xc000003(%esi)
     f07:	28 01                	sub    %al,(%ecx)
     f09:	00 00                	add    %al,(%eax)
     f0b:	01 66 ba             	add    %esp,-0x46(%esi)
     f0e:	01 00                	add    %eax,(%eax)
     f10:	00 02                	add    %al,(%edx)
     f12:	91                   	xchg   %eax,%ecx
     f13:	00 0f                	add    %cl,(%edi)
     f15:	62 75 66             	bound  %esi,0x66(%ebp)
     f18:	00 01                	add    %al,(%ecx)
     f1a:	66 c1 01 00          	rolw   $0x0,(%ecx)
     f1e:	00 02                	add    %al,(%edx)
     f20:	91                   	xchg   %eax,%ecx
     f21:	04 00                	add    $0x0,%al
     f23:	0b 01                	or     (%ecx),%eax
     f25:	87 04 00             	xchg   %eax,(%eax,%eax,1)
     f28:	00 01                	add    %al,(%ecx)
     f2a:	6b 01 ba             	imul   $0xffffffba,(%ecx),%eax
     f2d:	01 00                	add    %eax,(%eax)
     f2f:	00 1d 12 00 01 27    	add    %bl,0x27010012
     f35:	12 00                	adc    (%eax),%al
     f37:	01 1c 14             	add    %ebx,(%esp,%edx,1)
     f3a:	00 00                	add    %al,(%eax)
     f3c:	da 03                	fiaddl (%ebx)
     f3e:	00 00                	add    %al,(%eax)
     f40:	0c 90                	or     $0x90,%al
     f42:	04 00                	add    $0x0,%al
     f44:	00 01                	add    %al,(%ecx)
     f46:	6b ba 01 00 00 02 91 	imul   $0xffffff91,0x2000001(%edx),%edi
     f4d:	00 00                	add    %al,(%eax)
     f4f:	0b 01                	or     (%ecx),%eax
     f51:	99                   	cltd   
     f52:	03 00                	add    (%eax),%eax
     f54:	00 01                	add    %al,(%ecx)
     f56:	70 01                	jo     f59 <main-0xfff0a7>
     f58:	ba 01 00 00 27       	mov    $0x27000001,%edx
     f5d:	12 00                	adc    (%eax),%al
     f5f:	01 31                	add    %esi,(%ecx)
     f61:	12 00                	adc    (%eax),%al
     f63:	01 54 14 00          	add    %edx,0x0(%esp,%edx,1)
     f67:	00 14 04             	add    %dl,(%esp,%eax,1)
     f6a:	00 00                	add    %al,(%eax)
     f6c:	0f 72                	(bad)  
     f6e:	6f                   	outsl  %ds:(%esi),(%dx)
     f6f:	77 00                	ja     f71 <main-0xfff08f>
     f71:	01 70 28             	add    %esi,0x28(%eax)
     f74:	02 00                	add    (%eax),%al
     f76:	00 02                	add    %al,(%edx)
     f78:	91                   	xchg   %eax,%ecx
     f79:	00 0f                	add    %cl,(%edi)
     f7b:	63 6f 6c             	arpl   %bp,0x6c(%edi)
     f7e:	00 01                	add    %al,(%ecx)
     f80:	70 28                	jo     faa <main-0xfff056>
     f82:	02 00                	add    (%eax),%al
     f84:	00 02                	add    %al,(%edx)
     f86:	91                   	xchg   %eax,%ecx
     f87:	04 00                	add    $0x0,%al
     f89:	0b 01                	or     (%ecx),%eax
     f8b:	49                   	dec    %ecx
     f8c:	04 00                	add    $0x0,%al
     f8e:	00 01                	add    %al,(%ecx)
     f90:	75 01                	jne    f93 <main-0xfff06d>
     f92:	ba 01 00 00 31       	mov    $0x31000001,%edx
     f97:	12 00                	adc    (%eax),%al
     f99:	01 3b                	add    %edi,(%ebx)
     f9b:	12 00                	adc    (%eax),%al
     f9d:	01 8c 14 00 00 4e 04 	add    %ecx,0x44e0000(%esp,%edx,1)
     fa4:	00 00                	add    %al,(%eax)
     fa6:	0f 72                	(bad)  
     fa8:	6f                   	outsl  %ds:(%esi),(%dx)
     fa9:	77 00                	ja     fab <main-0xfff055>
     fab:	01 75 ba             	add    %esi,-0x46(%ebp)
     fae:	01 00                	add    %eax,(%eax)
     fb0:	00 02                	add    %al,(%edx)
     fb2:	91                   	xchg   %eax,%ecx
     fb3:	00 0f                	add    %cl,(%edi)
     fb5:	63 6f 6c             	arpl   %bp,0x6c(%edi)
     fb8:	00 01                	add    %al,(%ecx)
     fba:	75 ba                	jne    f76 <main-0xfff08a>
     fbc:	01 00                	add    %eax,(%eax)
     fbe:	00 02                	add    %al,(%edx)
     fc0:	91                   	xchg   %eax,%ecx
     fc1:	04 00                	add    $0x0,%al
     fc3:	11 01                	adc    %eax,(%ecx)
     fc5:	f3 00 00             	repz add %al,(%eax)
     fc8:	00 01                	add    %al,(%ecx)
     fca:	7a 01                	jp     fcd <main-0xfff033>
     fcc:	3b 12                	cmp    (%edx),%edx
     fce:	00 01                	add    %al,(%ecx)
     fd0:	40                   	inc    %eax
     fd1:	12 00                	adc    (%eax),%al
     fd3:	01 c4                	add    %eax,%esp
     fd5:	14 00                	adc    $0x0,%al
     fd7:	00 0b                	add    %cl,(%ebx)
     fd9:	01 c1                	add    %eax,%ecx
     fdb:	03 00                	add    (%eax),%eax
     fdd:	00 01                	add    %al,(%ecx)
     fdf:	80 01 ba             	addb   $0xba,(%ecx)
     fe2:	01 00                	add    %eax,(%eax)
     fe4:	00 40 12             	add    %al,0x12(%eax)
     fe7:	00 01                	add    %al,(%ecx)
     fe9:	4a                   	dec    %edx
     fea:	12 00                	adc    (%eax),%al
     fec:	01 f0                	add    %esi,%eax
     fee:	14 00                	adc    $0x0,%al
     ff0:	00 b9 04 00 00 0c    	add    %bh,0xc000004(%ecx)
     ff6:	70 04                	jo     ffc <main-0xfff004>
     ff8:	00 00                	add    %al,(%eax)
     ffa:	01 80 c1 01 00 00    	add    %eax,0x1c1(%eax)
    1000:	02 91 00 0f 62 75    	add    0x75620f00(%ecx),%dl
    1006:	66                   	data16
    1007:	00 01                	add    %al,(%ecx)
    1009:	80 c1 01             	add    $0x1,%cl
    100c:	00 00                	add    %al,(%eax)
    100e:	02 91 04 0c 6a 04    	add    0x46a0c04(%ecx),%dl
    1014:	00 00                	add    %al,(%eax)
    1016:	01 80 ba 01 00 00    	add    %eax,0x1ba(%eax)
    101c:	02 91 08 0c 59 03    	add    0x3590c08(%ecx),%dl
    1022:	00 00                	add    %al,(%eax)
    1024:	01 80 ba 01 00 00    	add    %eax,0x1ba(%eax)
    102a:	02 91 0c 00 0e 01    	add    0x10e000c(%ecx),%dl
    1030:	7a 03                	jp     1035 <main-0xffefcb>
    1032:	00 00                	add    %al,(%eax)
    1034:	01 85 01 4a 12 00    	add    %eax,0x124a01(%ebp)
    103a:	01 4f 12             	add    %ecx,0x12(%edi)
    103d:	00 01                	add    %al,(%ecx)
    103f:	28 15 00 00 e1 04    	sub    %dl,0x4e10000
    1045:	00 00                	add    %al,(%eax)
    1047:	0c 8a                	or     $0x8a,%al
    1049:	03 00                	add    (%eax),%eax
    104b:	00 01                	add    %al,(%ecx)
    104d:	85 ba 01 00 00 02    	test   %edi,0x2000001(%edx)
    1053:	91                   	xchg   %eax,%ecx
    1054:	00 00                	add    %al,(%eax)
    1056:	0b 01                	or     (%ecx),%eax
    1058:	27                   	daa    
    1059:	04 00                	add    $0x0,%al
    105b:	00 01                	add    %al,(%ecx)
    105d:	8d 01                	lea    (%ecx),%eax
    105f:	ba 01 00 00 4f       	mov    $0x4f000001,%edx
    1064:	12 00                	adc    (%eax),%al
    1066:	01 59 12             	add    %ebx,0x12(%ecx)
    1069:	00 01                	add    %al,(%ecx)
    106b:	54                   	push   %esp
    106c:	15 00 00 1b 05       	adc    $0x51b0000,%eax
    1071:	00 00                	add    %al,(%eax)
    1073:	0c f0                	or     $0xf0,%al
    1075:	03 00                	add    (%eax),%eax
    1077:	00 01                	add    %al,(%ecx)
    1079:	8d 78 01             	lea    0x1(%eax),%edi
    107c:	00 00                	add    %al,(%eax)
    107e:	02 91 00 0f 6c 65    	add    0x656c0f00(%ecx),%dl
    1084:	6e                   	outsb  %ds:(%esi),(%dx)
    1085:	00 01                	add    %al,(%ecx)
    1087:	8d ba 01 00 00 02    	lea    0x2000001(%edx),%edi
    108d:	91                   	xchg   %eax,%ecx
    108e:	04 00                	add    $0x0,%al
    1090:	0b 01                	or     (%ecx),%eax
    1092:	a6                   	cmpsb  %es:(%edi),%ds:(%esi)
    1093:	04 00                	add    $0x0,%al
    1095:	00 01                	add    %al,(%ecx)
    1097:	92                   	xchg   %eax,%edx
    1098:	01 ba 01 00 00 59    	add    %edi,0x59000001(%edx)
    109e:	12 00                	adc    (%eax),%al
    10a0:	01 63 12             	add    %esp,0x12(%ebx)
    10a3:	00 01                	add    %al,(%ecx)
    10a5:	8c 15 00 00 47 05    	mov    %ss,0x5470000
    10ab:	00 00                	add    %al,(%eax)
    10ad:	0c f0                	or     $0xf0,%al
    10af:	03 00                	add    (%eax),%eax
    10b1:	00 01                	add    %al,(%ecx)
    10b3:	92                   	xchg   %eax,%edx
    10b4:	78 01                	js     10b7 <main-0xffef49>
    10b6:	00 00                	add    %al,(%eax)
    10b8:	02 91 00 00 12 01    	add    0x1120000(%ecx),%dl
    10be:	fc                   	cld    
    10bf:	03 00                	add    (%eax),%eax
    10c1:	00 01                	add    %al,(%ecx)
    10c3:	97                   	xchg   %eax,%edi
    10c4:	ba 01 00 00 63       	mov    $0x63000001,%edx
    10c9:	12 00                	adc    (%eax),%al
    10cb:	01 6d 12             	add    %ebp,0x12(%ebp)
    10ce:	00 01                	add    %al,(%ecx)
    10d0:	c4 15 00 00 0e 01    	les    0x10e0000,%edx
    10d6:	31 04 00             	xor    %eax,(%eax,%eax,1)
    10d9:	00 01                	add    %al,(%ecx)
    10db:	9c                   	pushf  
    10dc:	01 6d 12             	add    %ebp,0x12(%ebp)
    10df:	00 01                	add    %al,(%ecx)
    10e1:	72 12                	jb     10f5 <main-0xffef0b>
    10e3:	00 01                	add    %al,(%ecx)
    10e5:	fc                   	cld    
    10e6:	15 00 00 87 05       	adc    $0x5870000,%eax
    10eb:	00 00                	add    %al,(%eax)
    10ed:	0c 65                	or     $0x65,%al
    10ef:	04 00                	add    $0x0,%al
    10f1:	00 01                	add    %al,(%ecx)
    10f3:	9c                   	pushf  
    10f4:	ba 01 00 00 02       	mov    $0x2000001,%edx
    10f9:	91                   	xchg   %eax,%ecx
    10fa:	00 00                	add    %al,(%eax)
    10fc:	13 ca                	adc    %edx,%ecx
    10fe:	03 00                	add    (%eax),%eax
    1100:	00 01                	add    %al,(%ecx)
    1102:	2a 99 05 00 00 01    	sub    0x1000005(%ecx),%bl
    1108:	05 03 18 2a 00       	add    $0x2a1803,%eax
    110d:	01 14 ba             	add    %edx,(%edx,%edi,4)
    1110:	01 00                	add    %eax,(%eax)
    1112:	00 00                	add    %al,(%eax)
    1114:	81 00 00 00 02 00    	addl   $0x20000,(%eax)
    111a:	c2 06 00             	ret    $0x6
    111d:	00 04 01             	add    %al,(%ecx,%eax,1)
    1120:	42                   	inc    %edx
    1121:	05 00 00 74 12       	add    $0x12740000,%eax
    1126:	00 01                	add    %al,(%ecx)
    1128:	77 12                	ja     113c <main-0xffeec4>
    112a:	00 01                	add    %al,(%ecx)
    112c:	75 73                	jne    11a1 <main-0xffee5f>
    112e:	65                   	gs
    112f:	72 2f                	jb     1160 <main-0xffeea0>
    1131:	6c                   	insb   (%dx),%es:(%edi)
    1132:	69 62 73 79 73 63 61 	imul   $0x61637379,0x73(%edx),%esp
    1139:	6c                   	insb   (%dx),%es:(%edi)
    113a:	6c                   	insb   (%dx),%es:(%edi)
    113b:	2f                   	das    
    113c:	76 61                	jbe    119f <main-0xffee61>
    113e:	6e                   	outsb  %ds:(%esi),(%dx)
    113f:	69 73 68 2e 53 00 2f 	imul   $0x2f00532e,0x68(%ebx),%esi
    1146:	61                   	popa   
    1147:	66                   	data16
    1148:	73 2f                	jae    1179 <main-0xffee87>
    114a:	61                   	popa   
    114b:	6e                   	outsb  %ds:(%esi),(%dx)
    114c:	64                   	fs
    114d:	72 65                	jb     11b4 <main-0xffee4c>
    114f:	77 2e                	ja     117f <main-0xffee81>
    1151:	63 6d 75             	arpl   %bp,0x75(%ebp)
    1154:	2e                   	cs
    1155:	65                   	gs
    1156:	64                   	fs
    1157:	75 2f                	jne    1188 <main-0xffee78>
    1159:	75 73                	jne    11ce <main-0xffee32>
    115b:	72 32                	jb     118f <main-0xffee71>
    115d:	33 2f                	xor    (%edi),%ebp
    115f:	61                   	popa   
    1160:	6e                   	outsb  %ds:(%esi),(%dx)
    1161:	6b 75 72 73          	imul   $0x73,0x72(%ebp),%esi
    1165:	68 61 2f 44 65       	push   $0x65442f61
    116a:	73 6b                	jae    11d7 <main-0xffee29>
    116c:	74 6f                	je     11dd <main-0xffee23>
    116e:	70 2f                	jo     119f <main-0xffee61>
    1170:	73 74                	jae    11e6 <main-0xffee1a>
    1172:	75 64                	jne    11d8 <main-0xffee28>
    1174:	69 65 73 2f 31 35 34 	imul   $0x3435312f,0x73(%ebp),%esp
    117b:	31 30                	xor    %esi,(%eax)
    117d:	2f                   	das    
    117e:	50                   	push   %eax
    117f:	32 2f                	xor    (%edi),%ch
    1181:	70 32                	jo     11b5 <main-0xffee4b>
    1183:	00 47 4e             	add    %al,0x4e(%edi)
    1186:	55                   	push   %ebp
    1187:	20 41 53             	and    %al,0x53(%ecx)
    118a:	20 32                	and    %dh,(%edx)
    118c:	2e 32 30             	xor    %cs:(%eax),%dh
    118f:	2e                   	cs
    1190:	35 31 2e 30 2e       	xor    $0x2e302e31,%eax
    1195:	32 00                	xor    (%eax),%al
    1197:	01 80 80 00 00 00    	add    %eax,0x80(%eax)
    119d:	02 00                	add    (%eax),%al
    119f:	d6                   	(bad)  
    11a0:	06                   	push   %es
    11a1:	00 00                	add    %al,(%eax)
    11a3:	04 01                	add    $0x1,%al
    11a5:	89 05 00 00 78 12    	mov    %eax,0x12780000
    11ab:	00 01                	add    %al,(%ecx)
    11ad:	7b 12                	jnp    11c1 <main-0xffee3f>
    11af:	00 01                	add    %al,(%ecx)
    11b1:	75 73                	jne    1226 <main-0xffedda>
    11b3:	65                   	gs
    11b4:	72 2f                	jb     11e5 <main-0xffee1b>
    11b6:	6c                   	insb   (%dx),%es:(%edi)
    11b7:	69 62 73 79 73 63 61 	imul   $0x61637379,0x73(%edx),%esp
    11be:	6c                   	insb   (%dx),%es:(%edi)
    11bf:	6c                   	insb   (%dx),%es:(%edi)
    11c0:	2f                   	das    
    11c1:	73 6c                	jae    122f <main-0xffedd1>
    11c3:	65                   	gs
    11c4:	65                   	gs
    11c5:	70 2e                	jo     11f5 <main-0xffee0b>
    11c7:	53                   	push   %ebx
    11c8:	00 2f                	add    %ch,(%edi)
    11ca:	61                   	popa   
    11cb:	66                   	data16
    11cc:	73 2f                	jae    11fd <main-0xffee03>
    11ce:	61                   	popa   
    11cf:	6e                   	outsb  %ds:(%esi),(%dx)
    11d0:	64                   	fs
    11d1:	72 65                	jb     1238 <main-0xffedc8>
    11d3:	77 2e                	ja     1203 <main-0xffedfd>
    11d5:	63 6d 75             	arpl   %bp,0x75(%ebp)
    11d8:	2e                   	cs
    11d9:	65                   	gs
    11da:	64                   	fs
    11db:	75 2f                	jne    120c <main-0xffedf4>
    11dd:	75 73                	jne    1252 <main-0xffedae>
    11df:	72 32                	jb     1213 <main-0xffeded>
    11e1:	33 2f                	xor    (%edi),%ebp
    11e3:	61                   	popa   
    11e4:	6e                   	outsb  %ds:(%esi),(%dx)
    11e5:	6b 75 72 73          	imul   $0x73,0x72(%ebp),%esi
    11e9:	68 61 2f 44 65       	push   $0x65442f61
    11ee:	73 6b                	jae    125b <main-0xffeda5>
    11f0:	74 6f                	je     1261 <main-0xffed9f>
    11f2:	70 2f                	jo     1223 <main-0xffeddd>
    11f4:	73 74                	jae    126a <main-0xffed96>
    11f6:	75 64                	jne    125c <main-0xffeda4>
    11f8:	69 65 73 2f 31 35 34 	imul   $0x3435312f,0x73(%ebp),%esp
    11ff:	31 30                	xor    %esi,(%eax)
    1201:	2f                   	das    
    1202:	50                   	push   %eax
    1203:	32 2f                	xor    (%edi),%ch
    1205:	70 32                	jo     1239 <main-0xffedc7>
    1207:	00 47 4e             	add    %al,0x4e(%edi)
    120a:	55                   	push   %ebp
    120b:	20 41 53             	and    %al,0x53(%ecx)
    120e:	20 32                	and    %dh,(%edx)
    1210:	2e 32 30             	xor    %cs:(%eax),%dh
    1213:	2e                   	cs
    1214:	35 31 2e 30 2e       	xor    $0x2e302e31,%eax
    1219:	32 00                	xor    (%eax),%al
    121b:	01 80 5a 00 00 00    	add    %eax,0x5a(%eax)
    1221:	02 00                	add    (%eax),%al
    1223:	ea 06 00 00 04 01 1d 	ljmp   $0x1d01,$0x4000006
    122a:	00 00                	add    %al,(%eax)
    122c:	00 01                	add    %al,(%ecx)
    122e:	b3 04                	mov    $0x4,%bl
    1230:	00 00                	add    %al,(%eax)
    1232:	44                   	inc    %esp
    1233:	00 00                	add    %al,(%eax)
    1235:	00 7c 12 00          	add    %bh,0x0(%edx,%edx,1)
    1239:	01 81 12 00 01 cf    	add    %eax,-0x30feffee(%ecx)
    123f:	05 00 00 02 01       	add    $0x1020000,%eax
    1244:	c4 04 00             	les    (%eax,%eax,1),%eax
    1247:	00 01                	add    %al,(%ecx)
    1249:	07                   	pop    %es
    124a:	01 7c 12 00          	add    %edi,0x0(%edx,%edx,1)
    124e:	01 81 12 00 01 34    	add    %eax,0x34010012(%ecx)
    1254:	16                   	push   %ss
    1255:	00 00                	add    %al,(%eax)
    1257:	5b                   	pop    %ebx
    1258:	00 00                	add    %al,(%eax)
    125a:	00 03                	add    %al,(%ebx)
    125c:	98                   	cwtl   
    125d:	00 00                	add    %al,(%eax)
    125f:	00 01                	add    %al,(%ecx)
    1261:	07                   	pop    %es
    1262:	5b                   	pop    %ebx
    1263:	00 00                	add    %al,(%eax)
    1265:	00 02                	add    %al,(%edx)
    1267:	91                   	xchg   %eax,%ecx
    1268:	00 03                	add    %al,(%ebx)
    126a:	a8 00                	test   $0x0,%al
    126c:	00 00                	add    %al,(%eax)
    126e:	01 07                	add    %eax,(%edi)
    1270:	5b                   	pop    %ebx
    1271:	00 00                	add    %al,(%eax)
    1273:	00 02                	add    %al,(%edx)
    1275:	91                   	xchg   %eax,%ecx
    1276:	04 00                	add    $0x0,%al
    1278:	04 04                	add    $0x4,%al
    127a:	00 9a 03 00 00 02    	add    %bl,0x2000003(%edx)
    1280:	00 2b                	add    %ch,(%ebx)
    1282:	07                   	pop    %es
    1283:	00 00                	add    %al,(%eax)
    1285:	04 01                	add    $0x1,%al
    1287:	1d 00 00 00 01       	sbb    $0x1000000,%eax
    128c:	2e                   	cs
    128d:	05 00 00 44 00       	add    $0x440000,%eax
    1292:	00 00                	add    %al,(%eax)
    1294:	90                   	nop
    1295:	12 00                	adc    (%eax),%al
    1297:	01 d4                	add    %edx,%esp
    1299:	17                   	pop    %ss
    129a:	00 01                	add    %al,(%ecx)
    129c:	0e                   	push   %cs
    129d:	06                   	push   %es
    129e:	00 00                	add    %al,(%eax)
    12a0:	02 28                	add    (%eax),%ch
    12a2:	05 00 00 01 3a       	add    $0x3a010000,%eax
    12a7:	30 00                	xor    %al,(%eax)
    12a9:	00 00                	add    %al,(%eax)
    12ab:	03 04 07             	add    (%edi,%eax,1),%eax
    12ae:	ee                   	out    %al,(%dx)
    12af:	02 00                	add    (%eax),%al
    12b1:	00 02                	add    %al,(%edx)
    12b3:	13 05 00 00 01 3c    	adc    0x3c010000,%eax
    12b9:	25 00 00 00 02       	and    $0x2000000,%eax
    12be:	f5                   	cmc    
    12bf:	04 00                	add    $0x0,%al
    12c1:	00 01                	add    %al,(%ecx)
    12c3:	3d 4d 00 00 00       	cmp    $0x4d,%eax
    12c8:	03 08                	add    (%eax),%ecx
    12ca:	05 a5 01 00 00       	add    $0x1a5,%eax
    12cf:	02 f3                	add    %bl,%dh
    12d1:	04 00                	add    $0x0,%al
    12d3:	00 01                	add    %al,(%ecx)
    12d5:	3e                   	ds
    12d6:	5f                   	pop    %edi
    12d7:	00 00                	add    %al,(%eax)
    12d9:	00 03                	add    %al,(%ebx)
    12db:	08 07                	or     %al,(%edi)
    12dd:	e4 02                	in     $0x2,%al
    12df:	00 00                	add    %al,(%eax)
    12e1:	04 75                	add    $0x75,%al
    12e3:	75 00                	jne    12e5 <main-0xffed1b>
    12e5:	08 01                	or     %al,(%ecx)
    12e7:	44                   	inc    %esp
    12e8:	99                   	cltd   
    12e9:	00 00                	add    %al,(%eax)
    12eb:	00 05 71 00 01 45    	add    %al,0x45010071
    12f1:	42                   	inc    %edx
    12f2:	00 00                	add    %al,(%eax)
    12f4:	00 05 75 71 00 01    	add    %al,0x1007175
    12fa:	46                   	inc    %esi
    12fb:	54                   	push   %esp
    12fc:	00 00                	add    %al,(%eax)
    12fe:	00 05 73 6c 00 01    	add    %al,0x1006c73
    1304:	47                   	inc    %edi
    1305:	99                   	cltd   
    1306:	00 00                	add    %al,(%eax)
    1308:	00 05 75 6c 00 01    	add    %al,0x1006c75
    130e:	48                   	dec    %eax
    130f:	b0 00                	mov    $0x0,%al
    1311:	00 00                	add    %al,(%eax)
    1313:	00 06                	add    %al,(%esi)
    1315:	a9 00 00 00 a9       	test   $0xa9000000,%eax
    131a:	00 00                	add    %al,(%eax)
    131c:	00 07                	add    %al,(%edi)
    131e:	30 00                	xor    %al,(%eax)
    1320:	00 00                	add    %al,(%eax)
    1322:	01 00                	add    %eax,(%eax)
    1324:	08 04 05 69 6e 74 00 	or     %al,0x746e69(,%eax,1)
    132b:	06                   	push   %es
    132c:	25 00 00 00 c0       	and    $0xc0000000,%eax
    1331:	00 00                	add    %al,(%eax)
    1333:	00 07                	add    %al,(%edi)
    1335:	30 00                	xor    %al,(%eax)
    1337:	00 00                	add    %al,(%eax)
    1339:	01 00                	add    %eax,(%eax)
    133b:	09 73 68             	or     %esi,0x68(%ebx)
    133e:	6c                   	insb   (%dx),%es:(%edi)
    133f:	00 01                	add    %al,(%ecx)
    1341:	23 01                	and    (%ecx),%eax
    1343:	01 90 12 00 01 f8    	add    %edx,-0x7feffee(%eax)
    1349:	12 00                	adc    (%eax),%al
    134b:	01 6c 16 00          	add    %ebp,0x0(%esi,%edx,1)
    134f:	00 15 01 00 00 0a    	add    %dl,0xa000001
    1355:	70 00                	jo     1357 <main-0xffeca9>
    1357:	01 23                	add    %esp,(%ebx)
    1359:	01 15 01 00 00 a4    	add    %edx,0xa4000001
    135f:	16                   	push   %ss
    1360:	00 00                	add    %al,(%eax)
    1362:	0a 6c 65 6e          	or     0x6e(%ebp,%eiz,2),%ch
    1366:	00 01                	add    %al,(%ecx)
    1368:	23 01                	and    (%ecx),%eax
    136a:	a9 00 00 00 b7       	test   $0xb7000000,%eax
    136f:	16                   	push   %ss
    1370:	00 00                	add    %al,(%eax)
    1372:	0a 73 68             	or     0x68(%ebx),%dh
    1375:	00 01                	add    %al,(%ecx)
    1377:	23 01                	and    (%ecx),%eax
    1379:	a9 00 00 00 e1       	test   $0xe1000000,%eax
    137e:	16                   	push   %ss
    137f:	00 00                	add    %al,(%eax)
    1381:	0b 69 00             	or     0x0(%ecx),%ebp
    1384:	01 25 01 a9 00 00    	add    %esp,0xa901
    138a:	00 ff                	add    %bh,%bh
    138c:	16                   	push   %ss
    138d:	00 00                	add    %al,(%eax)
    138f:	00 0c 04             	add    %cl,(%esp,%eax,1)
    1392:	37                   	aaa    
    1393:	00 00                	add    %al,(%eax)
    1395:	00 0d 01 09 05 00    	add    %cl,0x50901
    139b:	00 01                	add    %al,(%ecx)
    139d:	5a                   	pop    %edx
    139e:	01 54 00 00          	add    %edx,0x0(%eax,%eax,1)
    13a2:	00 f8                	add    %bh,%al
    13a4:	12 00                	adc    (%eax),%al
    13a6:	01 6c 17 00          	add    %ebp,0x0(%edi,%edx,1)
    13aa:	01 1e                	add    %ebx,(%esi)
    13ac:	17                   	pop    %ss
    13ad:	00 00                	add    %al,(%eax)
    13af:	01 03                	add    %eax,(%ebx)
    13b1:	00 00                	add    %al,(%eax)
    13b3:	0e                   	push   %cs
    13b4:	75 71                	jne    1427 <main-0xffebd9>
    13b6:	00 01                	add    %al,(%ecx)
    13b8:	5a                   	pop    %edx
    13b9:	54                   	push   %esp
    13ba:	00 00                	add    %al,(%eax)
    13bc:	00 02                	add    %al,(%edx)
    13be:	91                   	xchg   %eax,%ecx
    13bf:	00 0e                	add    %cl,(%esi)
    13c1:	76 71                	jbe    1434 <main-0xffebcc>
    13c3:	00 01                	add    %al,(%ecx)
    13c5:	5a                   	pop    %edx
    13c6:	54                   	push   %esp
    13c7:	00 00                	add    %al,(%eax)
    13c9:	00 02                	add    %al,(%edx)
    13cb:	91                   	xchg   %eax,%ecx
    13cc:	08 0e                	or     %cl,(%esi)
    13ce:	61                   	popa   
    13cf:	72 71                	jb     1442 <main-0xffebbe>
    13d1:	00 01                	add    %al,(%ecx)
    13d3:	5a                   	pop    %edx
    13d4:	01 03                	add    %eax,(%ebx)
    13d6:	00 00                	add    %al,(%eax)
    13d8:	02 91 10 0f 74 6d    	add    0x6d740f10(%ecx),%dl
    13de:	70 00                	jo     13e0 <main-0xffec20>
    13e0:	01 5c 66 00          	add    %ebx,0x0(%esi,%eiz,2)
    13e4:	00 00                	add    %al,(%eax)
    13e6:	10 75 00             	adc    %dh,0x0(%ebp)
    13e9:	01 5d 15             	add    %ebx,0x15(%ebp)
    13ec:	01 00                	add    %eax,(%eax)
    13ee:	00 56 17             	add    %dl,0x17(%esi)
    13f1:	00 00                	add    %al,(%eax)
    13f3:	10 76 00             	adc    %dh,0x0(%esi)
    13f6:	01 5d 15             	add    %ebx,0x15(%ebp)
    13f9:	01 00                	add    %eax,(%eax)
    13fb:	00 9b 17 00 00 10    	add    %bl,0x10000017(%ebx)
    1401:	71 00                	jno    1403 <main-0xffebfd>
    1403:	01 5d 15             	add    %ebx,0x15(%ebp)
    1406:	01 00                	add    %eax,(%eax)
    1408:	00 cd                	add    %cl,%ch
    140a:	17                   	pop    %ss
    140b:	00 00                	add    %al,(%eax)
    140d:	10 76 31             	adc    %dh,0x31(%esi)
    1410:	00 01                	add    %al,(%ecx)
    1412:	5e                   	pop    %esi
    1413:	37                   	aaa    
    1414:	00 00                	add    %al,(%eax)
    1416:	00 f9                	add    %bh,%cl
    1418:	17                   	pop    %ss
    1419:	00 00                	add    %al,(%eax)
    141b:	10 76 32             	adc    %dh,0x32(%esi)
    141e:	00 01                	add    %al,(%ecx)
    1420:	5e                   	pop    %esi
    1421:	37                   	aaa    
    1422:	00 00                	add    %al,(%eax)
    1424:	00 0e                	add    %cl,(%esi)
    1426:	18 00                	sbb    %al,(%eax)
    1428:	00 11                	add    %dl,(%ecx)
    142a:	e0 04                	loopne 1430 <main-0xffebd0>
    142c:	00 00                	add    %al,(%eax)
    142e:	01 5f 25             	add    %ebx,0x25(%edi)
    1431:	00 00                	add    %al,(%eax)
    1433:	00 25 18 00 00 11    	add    %ah,0x11000018
    1439:	19 05 00 00 01 5f    	sbb    %eax,0x5f010000
    143f:	25 00 00 00 89       	and    $0x89000000,%eax
    1444:	18 00                	sbb    %al,(%eax)
    1446:	00 10                	add    %dl,(%eax)
    1448:	74 00                	je     144a <main-0xffebb6>
    144a:	01 5f 25             	add    %ebx,0x25(%edi)
    144d:	00 00                	add    %al,(%eax)
    144f:	00 a7 18 00 00 10    	add    %ah,0x10000018(%edi)
    1455:	6d                   	insl   (%dx),%es:(%edi)
    1456:	00 01                	add    %al,(%ecx)
    1458:	60                   	pusha  
    1459:	a9 00 00 00 16       	test   $0x16000000,%eax
    145e:	19 00                	sbb    %eax,(%eax)
    1460:	00 10                	add    %dl,(%eax)
    1462:	6e                   	outsb  %ds:(%esi),(%dx)
    1463:	00 01                	add    %al,(%ecx)
    1465:	60                   	pusha  
    1466:	a9 00 00 00 34       	test   $0x34000000,%eax
    146b:	19 00                	sbb    %eax,(%eax)
    146d:	00 10                	add    %dl,(%eax)
    146f:	64 00 01             	add    %al,%fs:(%ecx)
    1472:	60                   	pusha  
    1473:	a9 00 00 00 78       	test   $0x78000000,%eax
    1478:	19 00                	sbb    %eax,(%eax)
    147a:	00 10                	add    %dl,(%eax)
    147c:	6a 00                	push   $0x0
    147e:	01 60 a9             	add    %esp,-0x57(%eax)
    1481:	00 00                	add    %al,(%eax)
    1483:	00 ad 19 00 00 10    	add    %ch,0x10000019(%ebp)
    1489:	69 00 01 60 a9 00    	imul   $0xa96001,(%eax),%eax
    148f:	00 00                	add    %al,(%eax)
    1491:	cd 19                	int    $0x19
    1493:	00 00                	add    %al,(%eax)
    1495:	12 e5                	adc    %ch,%ah
    1497:	04 00                	add    $0x0,%al
    1499:	00 01                	add    %al,(%ecx)
    149b:	61                   	popa   
    149c:	07                   	pop    %es
    149d:	03 00                	add    (%eax),%eax
    149f:	00 03                	add    %al,(%ebx)
    14a1:	74 d8                	je     147b <main-0xffeb85>
    14a3:	00 12                	add    %dl,(%edx)
    14a5:	47                   	inc    %edi
    14a6:	05 00 00 01 61       	add    $0x61010000,%eax
    14ab:	07                   	pop    %es
    14ac:	03 00                	add    (%eax),%eax
    14ae:	00 03                	add    %al,(%ebx)
    14b0:	74 c4                	je     1476 <main-0xffeb8a>
    14b2:	00 12                	add    %dl,(%edx)
    14b4:	ec                   	in     (%dx),%al
    14b5:	04 00                	add    $0x0,%al
    14b7:	00 01                	add    %al,(%ecx)
    14b9:	61                   	popa   
    14ba:	07                   	pop    %es
    14bb:	03 00                	add    (%eax),%eax
    14bd:	00 02                	add    %al,(%edx)
    14bf:	74 30                	je     14f1 <main-0xffeb0f>
    14c1:	13 fc                	adc    %esp,%edi
    14c3:	04 00                	add    $0x0,%al
    14c5:	00 01                	add    %al,(%ecx)
    14c7:	e3 cb                	jecxz  1494 <main-0xffeb6c>
    14c9:	15 00 01 14 16       	adc    $0x16140100,%eax
    14ce:	13 00                	adc    (%eax),%eax
    14d0:	01 3a                	add    %edi,(%edx)
    14d2:	13 00                	adc    (%eax),%eax
    14d4:	01 70 02             	add    %esi,0x2(%eax)
    14d7:	00 00                	add    %al,(%eax)
    14d9:	12 ad 03 00 00 01    	adc    0x1000003(%ebp),%ch
    14df:	68 17 03 00 00       	push   $0x317
    14e4:	05 03 10 2a 00       	add    $0x2a1003,%eax
    14e9:	01 00                	add    %eax,(%eax)
    14eb:	14 11                	adc    $0x11,%al
    14ed:	14 00                	adc    $0x0,%al
    14ef:	01 b8 14 00 01 b5    	add    %edi,-0x4afeffec(%eax)
    14f5:	02 00                	add    (%eax),%al
    14f7:	00 10                	add    %dl,(%eax)
    14f9:	72 62                	jb     155d <main-0xffeaa3>
    14fb:	6a 00                	push   $0x0
    14fd:	01 92 25 00 00 00    	add    %edx,0x25(%edx)
    1503:	56                   	push   %esi
    1504:	1a 00                	sbb    (%eax),%al
    1506:	00 0f                	add    %cl,(%edi)
    1508:	71 31                	jno    153b <main-0xffeac5>
    150a:	00 01                	add    %al,(%ecx)
    150c:	93                   	xchg   %eax,%ebx
    150d:	37                   	aaa    
    150e:	00 00                	add    %al,(%eax)
    1510:	00 0f                	add    %cl,(%edi)
    1512:	71 32                	jno    1546 <main-0xffeaba>
    1514:	00 01                	add    %al,(%ecx)
    1516:	93                   	xchg   %eax,%ebx
    1517:	37                   	aaa    
    1518:	00 00                	add    %al,(%eax)
    151a:	00 0f                	add    %cl,(%edi)
    151c:	71 33                	jno    1551 <main-0xffeaaf>
    151e:	00 01                	add    %al,(%ecx)
    1520:	93                   	xchg   %eax,%ebx
    1521:	37                   	aaa    
    1522:	00 00                	add    %al,(%eax)
    1524:	00 0f                	add    %cl,(%edi)
    1526:	71 34                	jno    155c <main-0xffeaa4>
    1528:	00 01                	add    %al,(%ecx)
    152a:	93                   	xchg   %eax,%ebx
    152b:	37                   	aaa    
    152c:	00 00                	add    %al,(%eax)
    152e:	00 00                	add    %al,(%eax)
    1530:	15 30 00 00 00       	adc    $0x30,%eax
    1535:	10 75 6a             	adc    %dh,0x6a(%ebp)
    1538:	30 00                	xor    %al,(%eax)
    153a:	01 cc                	add    %ecx,%esp
    153c:	37                   	aaa    
    153d:	00 00                	add    %al,(%eax)
    153f:	00 96 1a 00 00 10    	add    %dl,0x1000001a(%esi)
    1545:	75 6a                	jne    15b1 <main-0xffea4f>
    1547:	31 00                	xor    %eax,(%eax)
    1549:	01 cc                	add    %ecx,%esp
    154b:	37                   	aaa    
    154c:	00 00                	add    %al,(%eax)
    154e:	00 b1 1a 00 00 10    	add    %dh,0x1000001a(%ecx)
    1554:	75 6a                	jne    15c0 <main-0xffea40>
    1556:	32 00                	xor    (%eax),%al
    1558:	01 cc                	add    %ecx,%esp
    155a:	37                   	aaa    
    155b:	00 00                	add    %al,(%eax)
    155d:	00 ce                	add    %cl,%dh
    155f:	1a 00                	sbb    (%eax),%al
    1561:	00 16                	add    %dl,(%esi)
    1563:	b4 15                	mov    $0x15,%ah
    1565:	00 01                	add    %al,(%ecx)
    1567:	c4 15 00 01 10 6e    	les    0x6e100100,%edx
    156d:	6e                   	outsb  %ds:(%esi),(%dx)
    156e:	00 01                	add    %al,(%ecx)
    1570:	de 25 00 00 00 eb    	fisub  0xeb000000
    1576:	1a 00                	sbb    (%eax),%al
    1578:	00 00                	add    %al,(%eax)
    157a:	00 00                	add    %al,(%eax)
    157c:	0c 04                	or     $0x4,%al
    157e:	54                   	push   %esp
    157f:	00 00                	add    %al,(%eax)
    1581:	00 06                	add    %al,(%esi)
    1583:	37                   	aaa    
    1584:	00 00                	add    %al,(%eax)
    1586:	00 17                	add    %dl,(%edi)
    1588:	03 00                	add    (%eax),%eax
    158a:	00 07                	add    %al,(%edi)
    158c:	30 00                	xor    %al,(%eax)
    158e:	00 00                	add    %al,(%eax)
    1590:	04 00                	add    $0x0,%al
    1592:	17                   	pop    %ss
    1593:	1c 03                	sbb    $0x3,%al
    1595:	00 00                	add    %al,(%eax)
    1597:	18 30                	sbb    %dh,(%eax)
    1599:	00 00                	add    %al,(%eax)
    159b:	00 19                	add    %bl,(%ecx)
    159d:	01 d6                	add    %edx,%esi
    159f:	04 00                	add    $0x0,%al
    15a1:	00 01                	add    %al,(%ecx)
    15a3:	32 01                	xor    (%ecx),%al
    15a5:	01 54 00 00          	add    %edx,0x0(%eax,%eax,1)
    15a9:	00 6c 17 00          	add    %ch,0x0(%edi,%edx,1)
    15ad:	01 a4 17 00 01 fe 1a 	add    %esp,0x1afe0100(%edi,%edx,1)
    15b4:	00 00                	add    %al,(%eax)
    15b6:	68 03 00 00 1a       	push   $0x1a000003
    15bb:	61                   	popa   
    15bc:	00 01                	add    %al,(%ecx)
    15be:	32 01                	xor    (%ecx),%al
    15c0:	54                   	push   %esp
    15c1:	00 00                	add    %al,(%eax)
    15c3:	00 02                	add    %al,(%edx)
    15c5:	91                   	xchg   %eax,%ecx
    15c6:	00 1a                	add    %bl,(%edx)
    15c8:	62 00                	bound  %eax,(%eax)
    15ca:	01 32                	add    %esi,(%edx)
    15cc:	01 54 00 00          	add    %edx,0x0(%eax,%eax,1)
    15d0:	00 02                	add    %al,(%edx)
    15d2:	91                   	xchg   %eax,%ecx
    15d3:	08 0b                	or     %cl,(%ebx)
    15d5:	72 00                	jb     15d7 <main-0xffea29>
    15d7:	01 34 01             	add    %esi,(%ecx,%eax,1)
    15da:	54                   	push   %esp
    15db:	00 00                	add    %al,(%eax)
    15dd:	00 36                	add    %dh,(%esi)
    15df:	1b 00                	sbb    (%eax),%eax
    15e1:	00 00                	add    %al,(%eax)
    15e3:	1b 01                	sbb    (%ecx),%eax
    15e5:	1e                   	push   %ds
    15e6:	05 00 00 01 3e       	add    $0x3e010000,%eax
    15eb:	01 01                	add    %eax,(%ecx)
    15ed:	54                   	push   %esp
    15ee:	00 00                	add    %al,(%eax)
    15f0:	00 a4 17 00 01 d4 17 	add    %ah,0x17d40100(%edi,%edx,1)
    15f7:	00 01                	add    %al,(%ecx)
    15f9:	4a                   	dec    %edx
    15fa:	1b 00                	sbb    (%eax),%eax
    15fc:	00 1a                	add    %bl,(%edx)
    15fe:	61                   	popa   
    15ff:	00 01                	add    %al,(%ecx)
    1601:	3e 01 54 00 00       	add    %edx,%ds:0x0(%eax,%eax,1)
    1606:	00 02                	add    %al,(%edx)
    1608:	91                   	xchg   %eax,%ecx
    1609:	00 1a                	add    %bl,(%edx)
    160b:	62 00                	bound  %eax,(%eax)
    160d:	01 3e                	add    %edi,(%esi)
    160f:	01 54 00 00          	add    %edx,0x0(%eax,%eax,1)
    1613:	00 02                	add    %al,(%edx)
    1615:	91                   	xchg   %eax,%ecx
    1616:	08 00                	or     %al,(%eax)
	...

Disassembly of section .debug_abbrev:

00000000 <.debug_abbrev>:
   0:	01 11                	add    %edx,(%ecx)
   2:	01 25 0e 13 0b 03    	add    %esp,0x30b130e
   8:	0e                   	push   %cs
   9:	1b 0e                	sbb    (%esi),%ecx
   b:	11 01                	adc    %eax,(%ecx)
   d:	12 01                	adc    (%ecx),%al
   f:	10 06                	adc    %al,(%esi)
  11:	00 00                	add    %al,(%eax)
  13:	02 24 00             	add    (%eax,%eax,1),%ah
  16:	0b 0b                	or     (%ebx),%ecx
  18:	3e 0b 03             	or     %ds:(%ebx),%eax
  1b:	0e                   	push   %cs
  1c:	00 00                	add    %al,(%eax)
  1e:	03 2e                	add    (%esi),%ebp
  20:	01 3f                	add    %edi,(%edi)
  22:	0c 03                	or     $0x3,%al
  24:	0e                   	push   %cs
  25:	3a 0b                	cmp    (%ebx),%cl
  27:	3b 0b                	cmp    (%ebx),%ecx
  29:	49                   	dec    %ecx
  2a:	13 11                	adc    (%ecx),%edx
  2c:	01 12                	add    %edx,(%edx)
  2e:	01 40 06             	add    %eax,0x6(%eax)
  31:	01 13                	add    %edx,(%ebx)
  33:	00 00                	add    %al,(%eax)
  35:	04 34                	add    $0x34,%al
  37:	00 03                	add    %al,(%ebx)
  39:	0e                   	push   %cs
  3a:	3a 0b                	cmp    (%ebx),%cl
  3c:	3b 0b                	cmp    (%ebx),%ecx
  3e:	49                   	dec    %ecx
  3f:	13 1c 05 00 00 05 24 	adc    0x24050000(,%eax,1),%ebx
  46:	00 0b                	add    %cl,(%ebx)
  48:	0b 3e                	or     (%esi),%edi
  4a:	0b 03                	or     (%ebx),%eax
  4c:	08 00                	or     %al,(%eax)
  4e:	00 00                	add    %al,(%eax)
  50:	01 11                	add    %edx,(%ecx)
  52:	01 25 0e 13 0b 03    	add    %esp,0x30b130e
  58:	0e                   	push   %cs
  59:	1b 0e                	sbb    (%esi),%ecx
  5b:	11 01                	adc    %eax,(%ecx)
  5d:	12 01                	adc    (%ecx),%al
  5f:	10 06                	adc    %al,(%esi)
  61:	00 00                	add    %al,(%eax)
  63:	02 24 00             	add    (%eax,%eax,1),%ah
  66:	0b 0b                	or     (%ebx),%ecx
  68:	3e 0b 03             	or     %ds:(%ebx),%eax
  6b:	0e                   	push   %cs
  6c:	00 00                	add    %al,(%eax)
  6e:	03 0f                	add    (%edi),%ecx
  70:	00 0b                	add    %cl,(%ebx)
  72:	0b 00                	or     (%eax),%eax
  74:	00 04 2e             	add    %al,(%esi,%ebp,1)
  77:	01 3f                	add    %edi,(%edi)
  79:	0c 03                	or     $0x3,%al
  7b:	0e                   	push   %cs
  7c:	3a 0b                	cmp    (%ebx),%cl
  7e:	3b 0b                	cmp    (%ebx),%ecx
  80:	27                   	daa    
  81:	0c 11                	or     $0x11,%al
  83:	01 12                	add    %edx,(%edx)
  85:	01 40 06             	add    %eax,0x6(%eax)
  88:	01 13                	add    %edx,(%ebx)
  8a:	00 00                	add    %al,(%eax)
  8c:	05 05 00 03 0e       	add    $0xe030005,%eax
  91:	3a 0b                	cmp    (%ebx),%cl
  93:	3b 0b                	cmp    (%ebx),%ecx
  95:	49                   	dec    %ecx
  96:	13 02                	adc    (%edx),%eax
  98:	0a 00                	or     (%eax),%al
  9a:	00 06                	add    %al,(%esi)
  9c:	24 00                	and    $0x0,%al
  9e:	0b 0b                	or     (%ebx),%ecx
  a0:	3e 0b 03             	or     %ds:(%ebx),%eax
  a3:	08 00                	or     %al,(%eax)
  a5:	00 07                	add    %al,(%edi)
  a7:	0f 00 0b             	str    (%ebx)
  aa:	0b 49 13             	or     0x13(%ecx),%ecx
  ad:	00 00                	add    %al,(%eax)
  af:	00 01                	add    %al,(%ecx)
  b1:	11 01                	adc    %eax,(%ecx)
  b3:	25 0e 13 0b 03       	and    $0x30b130e,%eax
  b8:	0e                   	push   %cs
  b9:	1b 0e                	sbb    (%esi),%ecx
  bb:	11 01                	adc    %eax,(%ecx)
  bd:	12 01                	adc    (%ecx),%al
  bf:	10 06                	adc    %al,(%esi)
  c1:	00 00                	add    %al,(%eax)
  c3:	02 16                	add    (%esi),%dl
  c5:	00 03                	add    %al,(%ebx)
  c7:	0e                   	push   %cs
  c8:	3a 0b                	cmp    (%ebx),%cl
  ca:	3b 0b                	cmp    (%ebx),%ecx
  cc:	49                   	dec    %ecx
  cd:	13 00                	adc    (%eax),%eax
  cf:	00 03                	add    %al,(%ebx)
  d1:	0f 00 0b             	str    (%ebx)
  d4:	0b 03                	or     (%ebx),%eax
  d6:	0e                   	push   %cs
  d7:	49                   	dec    %ecx
  d8:	13 00                	adc    (%eax),%eax
  da:	00 04 24             	add    %al,(%esp)
  dd:	00 0b                	add    %cl,(%ebx)
  df:	0b 3e                	or     (%esi),%edi
  e1:	0b 03                	or     (%ebx),%eax
  e3:	0e                   	push   %cs
  e4:	00 00                	add    %al,(%eax)
  e6:	05 2e 00 3f 0c       	add    $0xc3f002e,%eax
  eb:	03 0e                	add    (%esi),%ecx
  ed:	3a 0b                	cmp    (%ebx),%cl
  ef:	3b 0b                	cmp    (%ebx),%ecx
  f1:	27                   	daa    
  f2:	0c 11                	or     $0x11,%al
  f4:	01 12                	add    %edx,(%edx)
  f6:	01 40 06             	add    %eax,0x6(%eax)
  f9:	00 00                	add    %al,(%eax)
  fb:	06                   	push   %es
  fc:	2e 01 3f             	add    %edi,%cs:(%edi)
  ff:	0c 03                	or     $0x3,%al
 101:	0e                   	push   %cs
 102:	3a 0b                	cmp    (%ebx),%cl
 104:	3b 0b                	cmp    (%ebx),%ecx
 106:	27                   	daa    
 107:	0c 11                	or     $0x11,%al
 109:	01 12                	add    %edx,(%edx)
 10b:	01 40 06             	add    %eax,0x6(%eax)
 10e:	01 13                	add    %edx,(%ebx)
 110:	00 00                	add    %al,(%eax)
 112:	07                   	pop    %es
 113:	05 00 03 08 3a       	add    $0x3a080300,%eax
 118:	0b 3b                	or     (%ebx),%edi
 11a:	0b 49 13             	or     0x13(%ecx),%ecx
 11d:	02 0a                	add    (%edx),%cl
 11f:	00 00                	add    %al,(%eax)
 121:	08 24 00             	or     %ah,(%eax,%eax,1)
 124:	0b 0b                	or     (%ebx),%ecx
 126:	3e 0b 03             	or     %ds:(%ebx),%eax
 129:	08 00                	or     %al,(%eax)
 12b:	00 09                	add    %cl,(%ecx)
 12d:	0f 00 0b             	str    (%ebx)
 130:	0b 49 13             	or     0x13(%ecx),%ecx
 133:	00 00                	add    %al,(%eax)
 135:	0a 26                	or     (%esi),%ah
 137:	00 49 13             	add    %cl,0x13(%ecx)
 13a:	00 00                	add    %al,(%eax)
 13c:	0b 2e                	or     (%esi),%ebp
 13e:	00 3f                	add    %bh,(%edi)
 140:	0c 03                	or     $0x3,%al
 142:	0e                   	push   %cs
 143:	3a 0b                	cmp    (%ebx),%cl
 145:	3b 0b                	cmp    (%ebx),%ecx
 147:	27                   	daa    
 148:	0c 49                	or     $0x49,%al
 14a:	13 11                	adc    (%ecx),%edx
 14c:	01 12                	add    %edx,(%edx)
 14e:	01 40 06             	add    %eax,0x6(%eax)
 151:	00 00                	add    %al,(%eax)
 153:	0c 2e                	or     $0x2e,%al
 155:	01 3f                	add    %edi,(%edi)
 157:	0c 03                	or     $0x3,%al
 159:	0e                   	push   %cs
 15a:	3a 0b                	cmp    (%ebx),%cl
 15c:	3b 0b                	cmp    (%ebx),%ecx
 15e:	27                   	daa    
 15f:	0c 49                	or     $0x49,%al
 161:	13 11                	adc    (%ecx),%edx
 163:	01 12                	add    %edx,(%edx)
 165:	01 40 06             	add    %eax,0x6(%eax)
 168:	01 13                	add    %edx,(%ebx)
 16a:	00 00                	add    %al,(%eax)
 16c:	0d 05 00 03 0e       	or     $0xe030005,%eax
 171:	3a 0b                	cmp    (%ebx),%cl
 173:	3b 0b                	cmp    (%ebx),%ecx
 175:	49                   	dec    %ecx
 176:	13 02                	adc    (%edx),%eax
 178:	0a 00                	or     (%eax),%al
 17a:	00 0e                	add    %cl,(%esi)
 17c:	18 00                	sbb    %al,(%eax)
 17e:	00 00                	add    %al,(%eax)
 180:	0f 34                	sysenter 
 182:	00 03                	add    %al,(%ebx)
 184:	08 3a                	or     %bh,(%edx)
 186:	0b 3b                	or     (%ebx),%edi
 188:	0b 49 13             	or     0x13(%ecx),%ecx
 18b:	02 0a                	add    (%edx),%cl
 18d:	00 00                	add    %al,(%eax)
 18f:	10 34 00             	adc    %dh,(%eax,%eax,1)
 192:	03 08                	add    (%eax),%ecx
 194:	3a 0b                	cmp    (%ebx),%cl
 196:	3b 0b                	cmp    (%ebx),%ecx
 198:	49                   	dec    %ecx
 199:	13 02                	adc    (%edx),%eax
 19b:	06                   	push   %es
 19c:	00 00                	add    %al,(%eax)
 19e:	11 01                	adc    %eax,(%ecx)
 1a0:	01 49 13             	add    %ecx,0x13(%ecx)
 1a3:	00 00                	add    %al,(%eax)
 1a5:	12 21                	adc    (%ecx),%ah
 1a7:	00 49 13             	add    %cl,0x13(%ecx)
 1aa:	2f                   	das    
 1ab:	0b 00                	or     (%eax),%eax
 1ad:	00 00                	add    %al,(%eax)
 1af:	01 11                	add    %edx,(%ecx)
 1b1:	00 10                	add    %dl,(%eax)
 1b3:	06                   	push   %es
 1b4:	11 01                	adc    %eax,(%ecx)
 1b6:	12 01                	adc    (%ecx),%al
 1b8:	03 08                	add    (%eax),%ecx
 1ba:	1b 08                	sbb    (%eax),%ecx
 1bc:	25 08 13 05 00       	and    $0x51308,%eax
 1c1:	00 00                	add    %al,(%eax)
 1c3:	01 11                	add    %edx,(%ecx)
 1c5:	01 25 0e 13 0b 03    	add    %esp,0x30b130e
 1cb:	0e                   	push   %cs
 1cc:	1b 0e                	sbb    (%esi),%ecx
 1ce:	11 01                	adc    %eax,(%ecx)
 1d0:	12 01                	adc    (%ecx),%al
 1d2:	10 06                	adc    %al,(%esi)
 1d4:	00 00                	add    %al,(%eax)
 1d6:	02 16                	add    (%esi),%dl
 1d8:	00 03                	add    %al,(%ebx)
 1da:	0e                   	push   %cs
 1db:	3a 0b                	cmp    (%ebx),%cl
 1dd:	3b 0b                	cmp    (%ebx),%ecx
 1df:	49                   	dec    %ecx
 1e0:	13 00                	adc    (%eax),%eax
 1e2:	00 03                	add    %al,(%ebx)
 1e4:	0f 00 0b             	str    (%ebx)
 1e7:	0b 03                	or     (%ebx),%eax
 1e9:	0e                   	push   %cs
 1ea:	49                   	dec    %ecx
 1eb:	13 00                	adc    (%eax),%eax
 1ed:	00 04 24             	add    %al,(%esp)
 1f0:	00 0b                	add    %cl,(%ebx)
 1f2:	0b 3e                	or     (%esi),%edi
 1f4:	0b 03                	or     (%ebx),%eax
 1f6:	0e                   	push   %cs
 1f7:	00 00                	add    %al,(%eax)
 1f9:	05 13 01 03 0e       	add    $0xe030113,%eax
 1fe:	0b 0b                	or     (%ebx),%ecx
 200:	3a 0b                	cmp    (%ebx),%cl
 202:	3b 0b                	cmp    (%ebx),%ecx
 204:	01 13                	add    %edx,(%ebx)
 206:	00 00                	add    %al,(%eax)
 208:	06                   	push   %es
 209:	0d 00 03 08 3a       	or     $0x3a080300,%eax
 20e:	0b 3b                	or     (%ebx),%edi
 210:	0b 49 13             	or     0x13(%ecx),%ecx
 213:	38 0a                	cmp    %cl,(%edx)
 215:	00 00                	add    %al,(%eax)
 217:	07                   	pop    %es
 218:	0f 00 0b             	str    (%ebx)
 21b:	0b 49 13             	or     0x13(%ecx),%ecx
 21e:	00 00                	add    %al,(%eax)
 220:	08 2e                	or     %ch,(%esi)
 222:	01 03                	add    %eax,(%ebx)
 224:	0e                   	push   %cs
 225:	3a 0b                	cmp    (%ebx),%cl
 227:	3b 0b                	cmp    (%ebx),%ecx
 229:	27                   	daa    
 22a:	0c 11                	or     $0x11,%al
 22c:	01 12                	add    %edx,(%edx)
 22e:	01 40 06             	add    %eax,0x6(%eax)
 231:	01 13                	add    %edx,(%ebx)
 233:	00 00                	add    %al,(%eax)
 235:	09 05 00 03 08 3a    	or     %eax,0x3a080300
 23b:	0b 3b                	or     (%ebx),%edi
 23d:	0b 49 13             	or     0x13(%ecx),%ecx
 240:	02 0a                	add    (%edx),%cl
 242:	00 00                	add    %al,(%eax)
 244:	0a 34 00             	or     (%eax,%eax,1),%dh
 247:	03 0e                	add    (%esi),%ecx
 249:	3a 0b                	cmp    (%ebx),%cl
 24b:	3b 0b                	cmp    (%ebx),%ecx
 24d:	49                   	dec    %ecx
 24e:	13 02                	adc    (%edx),%eax
 250:	0a 00                	or     (%eax),%al
 252:	00 0b                	add    %cl,(%ebx)
 254:	24 00                	and    $0x0,%al
 256:	0b 0b                	or     (%ebx),%ecx
 258:	3e 0b 03             	or     %ds:(%ebx),%eax
 25b:	08 00                	or     %al,(%eax)
 25d:	00 0c 2e             	add    %cl,(%esi,%ebp,1)
 260:	01 3f                	add    %edi,(%edi)
 262:	0c 03                	or     $0x3,%al
 264:	0e                   	push   %cs
 265:	3a 0b                	cmp    (%ebx),%cl
 267:	3b 0b                	cmp    (%ebx),%ecx
 269:	27                   	daa    
 26a:	0c 49                	or     $0x49,%al
 26c:	13 11                	adc    (%ecx),%edx
 26e:	01 12                	add    %edx,(%edx)
 270:	01 40 06             	add    %eax,0x6(%eax)
 273:	01 13                	add    %edx,(%ebx)
 275:	00 00                	add    %al,(%eax)
 277:	0d 05 00 03 0e       	or     $0xe030005,%eax
 27c:	3a 0b                	cmp    (%ebx),%cl
 27e:	3b 0b                	cmp    (%ebx),%ecx
 280:	49                   	dec    %ecx
 281:	13 02                	adc    (%edx),%eax
 283:	0a 00                	or     (%eax),%al
 285:	00 0e                	add    %cl,(%esi)
 287:	26 00 49 13          	add    %cl,%es:0x13(%ecx)
 28b:	00 00                	add    %al,(%eax)
 28d:	0f 18 00             	prefetchnta (%eax)
 290:	00 00                	add    %al,(%eax)
 292:	10 34 00             	adc    %dh,(%eax,%eax,1)
 295:	03 0e                	add    (%esi),%ecx
 297:	3a 0b                	cmp    (%ebx),%cl
 299:	3b 0b                	cmp    (%ebx),%ecx
 29b:	49                   	dec    %ecx
 29c:	13 02                	adc    (%edx),%eax
 29e:	06                   	push   %es
 29f:	00 00                	add    %al,(%eax)
 2a1:	11 34 00             	adc    %esi,(%eax,%eax,1)
 2a4:	03 08                	add    (%eax),%ecx
 2a6:	3a 0b                	cmp    (%ebx),%cl
 2a8:	3b 0b                	cmp    (%ebx),%ecx
 2aa:	49                   	dec    %ecx
 2ab:	13 02                	adc    (%edx),%eax
 2ad:	0a 00                	or     (%eax),%al
 2af:	00 12                	add    %dl,(%edx)
 2b1:	2e 01 3f             	add    %edi,%cs:(%edi)
 2b4:	0c 03                	or     $0x3,%al
 2b6:	0e                   	push   %cs
 2b7:	3a 0b                	cmp    (%ebx),%cl
 2b9:	3b 0b                	cmp    (%ebx),%ecx
 2bb:	27                   	daa    
 2bc:	0c 49                	or     $0x49,%al
 2be:	13 11                	adc    (%ecx),%edx
 2c0:	01 12                	add    %edx,(%edx)
 2c2:	01 40 06             	add    %eax,0x6(%eax)
 2c5:	00 00                	add    %al,(%eax)
 2c7:	00 01                	add    %al,(%ecx)
 2c9:	11 01                	adc    %eax,(%ecx)
 2cb:	25 0e 13 0b 03       	and    $0x30b130e,%eax
 2d0:	0e                   	push   %cs
 2d1:	1b 0e                	sbb    (%esi),%ecx
 2d3:	11 01                	adc    %eax,(%ecx)
 2d5:	12 01                	adc    (%ecx),%al
 2d7:	10 06                	adc    %al,(%esi)
 2d9:	00 00                	add    %al,(%eax)
 2db:	02 16                	add    (%esi),%dl
 2dd:	00 03                	add    %al,(%ebx)
 2df:	0e                   	push   %cs
 2e0:	3a 0b                	cmp    (%ebx),%cl
 2e2:	3b 0b                	cmp    (%ebx),%ecx
 2e4:	49                   	dec    %ecx
 2e5:	13 00                	adc    (%eax),%eax
 2e7:	00 03                	add    %al,(%ebx)
 2e9:	0f 00 0b             	str    (%ebx)
 2ec:	0b 03                	or     (%ebx),%eax
 2ee:	0e                   	push   %cs
 2ef:	49                   	dec    %ecx
 2f0:	13 00                	adc    (%eax),%eax
 2f2:	00 04 24             	add    %al,(%esp)
 2f5:	00 0b                	add    %cl,(%ebx)
 2f7:	0b 3e                	or     (%esi),%edi
 2f9:	0b 03                	or     (%ebx),%eax
 2fb:	0e                   	push   %cs
 2fc:	00 00                	add    %al,(%eax)
 2fe:	05 04 01 0b 0b       	add    $0xb0b0104,%eax
 303:	3a 0b                	cmp    (%ebx),%cl
 305:	3b 0b                	cmp    (%ebx),%ecx
 307:	01 13                	add    %edx,(%ebx)
 309:	00 00                	add    %al,(%eax)
 30b:	06                   	push   %es
 30c:	28 00                	sub    %al,(%eax)
 30e:	03 0e                	add    (%esi),%ecx
 310:	1c 0d                	sbb    $0xd,%al
 312:	00 00                	add    %al,(%eax)
 314:	07                   	pop    %es
 315:	2e 01 03             	add    %eax,%cs:(%ebx)
 318:	0e                   	push   %cs
 319:	3a 0b                	cmp    (%ebx),%cl
 31b:	3b 0b                	cmp    (%ebx),%ecx
 31d:	11 01                	adc    %eax,(%ecx)
 31f:	12 01                	adc    (%ecx),%al
 321:	40                   	inc    %eax
 322:	06                   	push   %es
 323:	01 13                	add    %edx,(%ebx)
 325:	00 00                	add    %al,(%eax)
 327:	08 05 00 03 08 3a    	or     %al,0x3a080300
 32d:	0b 3b                	or     (%ebx),%edi
 32f:	0b 49 13             	or     0x13(%ecx),%ecx
 332:	02 06                	add    (%esi),%al
 334:	00 00                	add    %al,(%eax)
 336:	09 05 00 03 0e 3a    	or     %eax,0x3a0e0300
 33c:	0b 3b                	or     (%ebx),%edi
 33e:	0b 49 13             	or     0x13(%ecx),%ecx
 341:	02 06                	add    (%esi),%al
 343:	00 00                	add    %al,(%eax)
 345:	0a 05 00 03 0e 3a    	or     0x3a0e0300,%al
 34b:	0b 3b                	or     (%ebx),%edi
 34d:	0b 49 13             	or     0x13(%ecx),%ecx
 350:	02 0a                	add    (%edx),%cl
 352:	00 00                	add    %al,(%eax)
 354:	0b 34 00             	or     (%eax,%eax,1),%esi
 357:	03 08                	add    (%eax),%ecx
 359:	3a 0b                	cmp    (%ebx),%cl
 35b:	3b 0b                	cmp    (%ebx),%ecx
 35d:	49                   	dec    %ecx
 35e:	13 02                	adc    (%edx),%eax
 360:	0a 00                	or     (%eax),%al
 362:	00 0c 34             	add    %cl,(%esp,%esi,1)
 365:	00 03                	add    %al,(%ebx)
 367:	08 3a                	or     %bh,(%edx)
 369:	0b 3b                	or     (%ebx),%edi
 36b:	0b 49 13             	or     0x13(%ecx),%ecx
 36e:	02 06                	add    (%esi),%al
 370:	00 00                	add    %al,(%eax)
 372:	0d 24 00 0b 0b       	or     $0xb0b0024,%eax
 377:	3e 0b 03             	or     %ds:(%ebx),%eax
 37a:	08 00                	or     %al,(%eax)
 37c:	00 0e                	add    %cl,(%esi)
 37e:	15 01 01 13 00       	adc    $0x130101,%eax
 383:	00 0f                	add    %cl,(%edi)
 385:	18 00                	sbb    %al,(%eax)
 387:	00 00                	add    %al,(%eax)
 389:	10 0f                	adc    %cl,(%edi)
 38b:	00 0b                	add    %cl,(%ebx)
 38d:	0b 49 13             	or     0x13(%ecx),%ecx
 390:	00 00                	add    %al,(%eax)
 392:	11 01                	adc    %eax,(%ecx)
 394:	01 49 13             	add    %ecx,0x13(%ecx)
 397:	01 13                	add    %edx,(%ebx)
 399:	00 00                	add    %al,(%eax)
 39b:	12 21                	adc    (%ecx),%ah
 39d:	00 49 13             	add    %cl,0x13(%ecx)
 3a0:	2f                   	das    
 3a1:	0b 00                	or     (%eax),%eax
 3a3:	00 13                	add    %dl,(%ebx)
 3a5:	2e 01 3f             	add    %edi,%cs:(%edi)
 3a8:	0c 03                	or     $0x3,%al
 3aa:	0e                   	push   %cs
 3ab:	3a 0b                	cmp    (%ebx),%cl
 3ad:	3b 0b                	cmp    (%ebx),%ecx
 3af:	27                   	daa    
 3b0:	0c 11                	or     $0x11,%al
 3b2:	01 12                	add    %edx,(%edx)
 3b4:	01 40 06             	add    %eax,0x6(%eax)
 3b7:	01 13                	add    %edx,(%ebx)
 3b9:	00 00                	add    %al,(%eax)
 3bb:	14 34                	adc    $0x34,%al
 3bd:	00 03                	add    %al,(%ebx)
 3bf:	0e                   	push   %cs
 3c0:	3a 0b                	cmp    (%ebx),%cl
 3c2:	3b 0b                	cmp    (%ebx),%ecx
 3c4:	49                   	dec    %ecx
 3c5:	13 02                	adc    (%edx),%eax
 3c7:	06                   	push   %es
 3c8:	00 00                	add    %al,(%eax)
 3ca:	15 0a 00 03 0e       	adc    $0xe03000a,%eax
 3cf:	3a 0b                	cmp    (%ebx),%cl
 3d1:	3b 05 11 01 00 00    	cmp    0x111,%eax
 3d7:	16                   	push   %ss
 3d8:	0b 01                	or     (%ecx),%eax
 3da:	55                   	push   %ebp
 3db:	06                   	push   %es
 3dc:	01 13                	add    %edx,(%ebx)
 3de:	00 00                	add    %al,(%eax)
 3e0:	17                   	pop    %ss
 3e1:	34 00                	xor    $0x0,%al
 3e3:	03 08                	add    (%eax),%ecx
 3e5:	3a 0b                	cmp    (%ebx),%cl
 3e7:	3b 05 49 13 02 0a    	cmp    0xa021349,%eax
 3ed:	00 00                	add    %al,(%eax)
 3ef:	18 34 00             	sbb    %dh,(%eax,%eax,1)
 3f2:	03 08                	add    (%eax),%ecx
 3f4:	3a 0b                	cmp    (%ebx),%cl
 3f6:	3b 05 49 13 02 06    	cmp    0x6021349,%eax
 3fc:	00 00                	add    %al,(%eax)
 3fe:	19 34 00             	sbb    %esi,(%eax,%eax,1)
 401:	03 0e                	add    (%esi),%ecx
 403:	3a 0b                	cmp    (%ebx),%cl
 405:	3b 05 49 13 02 0a    	cmp    0xa021349,%eax
 40b:	00 00                	add    %al,(%eax)
 40d:	1a 34 00             	sbb    (%eax,%eax,1),%dh
 410:	03 0e                	add    (%esi),%ecx
 412:	3a 0b                	cmp    (%ebx),%cl
 414:	3b 05 49 13 02 06    	cmp    0x6021349,%eax
 41a:	00 00                	add    %al,(%eax)
 41c:	1b 0b                	sbb    (%ebx),%ecx
 41e:	01 11                	add    %edx,(%ecx)
 420:	01 12                	add    %edx,(%edx)
 422:	01 01                	add    %eax,(%ecx)
 424:	13 00                	adc    (%eax),%eax
 426:	00 1c 0b             	add    %bl,(%ebx,%ecx,1)
 429:	01 11                	add    %edx,(%ecx)
 42b:	01 12                	add    %edx,(%edx)
 42d:	01 00                	add    %eax,(%eax)
 42f:	00 1d 13 01 0b 0b    	add    %bl,0xb0b0113
 435:	3a 0b                	cmp    (%ebx),%cl
 437:	3b 05 01 13 00 00    	cmp    0x1301,%eax
 43d:	1e                   	push   %ds
 43e:	0d 00 03 0e 3a       	or     $0x3a0e0300,%eax
 443:	0b 3b                	or     (%ebx),%edi
 445:	05 49 13 0b 0b       	add    $0xb0b1349,%eax
 44a:	0d 0b 0c 0b 38       	or     $0x380b0c0b,%eax
 44f:	0a 00                	or     (%eax),%al
 451:	00 1f                	add    %bl,(%edi)
 453:	16                   	push   %ss
 454:	00 03                	add    %al,(%ebx)
 456:	0e                   	push   %cs
 457:	3a 0b                	cmp    (%ebx),%cl
 459:	3b 05 49 13 00 00    	cmp    0x1349,%eax
 45f:	20 0d 00 03 0e 3a    	and    %cl,0x3a0e0300
 465:	0b 3b                	or     (%ebx),%edi
 467:	05 49 13 38 0a       	add    $0xa381349,%eax
 46c:	00 00                	add    %al,(%eax)
 46e:	21 0d 00 03 08 3a    	and    %ecx,0x3a080300
 474:	0b 3b                	or     (%ebx),%edi
 476:	05 49 13 38 0a       	add    $0xa381349,%eax
 47b:	00 00                	add    %al,(%eax)
 47d:	22 17                	and    (%edi),%dl
 47f:	01 03                	add    %eax,(%ebx)
 481:	0e                   	push   %cs
 482:	0b 0b                	or     (%ebx),%ecx
 484:	3a 0b                	cmp    (%ebx),%cl
 486:	3b 05 01 13 00 00    	cmp    0x1301,%eax
 48c:	23 0d 00 03 08 3a    	and    0x3a080300,%ecx
 492:	0b 3b                	or     (%ebx),%edi
 494:	05 49 13 00 00       	add    $0x1349,%eax
 499:	24 34                	and    $0x34,%al
 49b:	00 03                	add    %al,(%ebx)
 49d:	08 3a                	or     %bh,(%edx)
 49f:	0b 3b                	or     (%ebx),%edi
 4a1:	05 49 13 00 00       	add    $0x1349,%eax
 4a6:	25 26 00 49 13       	and    $0x13490026,%eax
 4ab:	00 00                	add    %al,(%eax)
 4ad:	26                   	es
 4ae:	34 00                	xor    $0x0,%al
 4b0:	03 0e                	add    (%esi),%ecx
 4b2:	3a 0b                	cmp    (%ebx),%cl
 4b4:	3b 0b                	cmp    (%ebx),%ecx
 4b6:	49                   	dec    %ecx
 4b7:	13 02                	adc    (%edx),%eax
 4b9:	0a 00                	or     (%eax),%al
 4bb:	00 27                	add    %ah,(%edi)
 4bd:	34 00                	xor    $0x0,%al
 4bf:	03 0e                	add    (%esi),%ecx
 4c1:	3a 0b                	cmp    (%ebx),%cl
 4c3:	3b 0b                	cmp    (%ebx),%ecx
 4c5:	49                   	dec    %ecx
 4c6:	13 3f                	adc    (%edi),%edi
 4c8:	0c 3c                	or     $0x3c,%al
 4ca:	0c 00                	or     $0x0,%al
 4cc:	00 28                	add    %ch,(%eax)
 4ce:	34 00                	xor    $0x0,%al
 4d0:	03 0e                	add    (%esi),%ecx
 4d2:	3a 0b                	cmp    (%ebx),%cl
 4d4:	3b 0b                	cmp    (%ebx),%ecx
 4d6:	49                   	dec    %ecx
 4d7:	13 3f                	adc    (%edi),%edi
 4d9:	0c 02                	or     $0x2,%al
 4db:	0a 00                	or     (%eax),%al
 4dd:	00 00                	add    %al,(%eax)
 4df:	01 11                	add    %edx,(%ecx)
 4e1:	01 25 0e 13 0b 03    	add    %esp,0x30b130e
 4e7:	0e                   	push   %cs
 4e8:	1b 0e                	sbb    (%esi),%ecx
 4ea:	11 01                	adc    %eax,(%ecx)
 4ec:	12 01                	adc    (%ecx),%al
 4ee:	10 06                	adc    %al,(%esi)
 4f0:	00 00                	add    %al,(%eax)
 4f2:	02 24 00             	add    (%eax,%eax,1),%ah
 4f5:	0b 0b                	or     (%ebx),%ecx
 4f7:	3e 0b 03             	or     %ds:(%ebx),%eax
 4fa:	0e                   	push   %cs
 4fb:	00 00                	add    %al,(%eax)
 4fd:	03 2e                	add    (%esi),%ebp
 4ff:	01 3f                	add    %edi,(%edi)
 501:	0c 03                	or     $0x3,%al
 503:	0e                   	push   %cs
 504:	3a 0b                	cmp    (%ebx),%cl
 506:	3b 0b                	cmp    (%ebx),%ecx
 508:	27                   	daa    
 509:	0c 11                	or     $0x11,%al
 50b:	01 12                	add    %edx,(%edx)
 50d:	01 40 06             	add    %eax,0x6(%eax)
 510:	01 13                	add    %edx,(%ebx)
 512:	00 00                	add    %al,(%eax)
 514:	04 05                	add    $0x5,%al
 516:	00 03                	add    %al,(%ebx)
 518:	0e                   	push   %cs
 519:	3a 0b                	cmp    (%ebx),%cl
 51b:	3b 0b                	cmp    (%ebx),%ecx
 51d:	49                   	dec    %ecx
 51e:	13 02                	adc    (%edx),%eax
 520:	0a 00                	or     (%eax),%al
 522:	00 05 24 00 0b 0b    	add    %al,0xb0b0024
 528:	3e 0b 03             	or     %ds:(%ebx),%eax
 52b:	08 00                	or     %al,(%eax)
 52d:	00 00                	add    %al,(%eax)
 52f:	01 11                	add    %edx,(%ecx)
 531:	01 25 0e 13 0b 03    	add    %esp,0x30b130e
 537:	0e                   	push   %cs
 538:	1b 0e                	sbb    (%esi),%ecx
 53a:	11 01                	adc    %eax,(%ecx)
 53c:	12 01                	adc    (%ecx),%al
 53e:	10 06                	adc    %al,(%esi)
 540:	00 00                	add    %al,(%eax)
 542:	02 2e                	add    (%esi),%ch
 544:	01 3f                	add    %edi,(%edi)
 546:	0c 03                	or     $0x3,%al
 548:	0e                   	push   %cs
 549:	3a 0b                	cmp    (%ebx),%cl
 54b:	3b 0b                	cmp    (%ebx),%ecx
 54d:	49                   	dec    %ecx
 54e:	13 11                	adc    (%ecx),%edx
 550:	01 12                	add    %edx,(%edx)
 552:	01 40 06             	add    %eax,0x6(%eax)
 555:	01 13                	add    %edx,(%ebx)
 557:	00 00                	add    %al,(%eax)
 559:	03 05 00 03 0e 3a    	add    0x3a0e0300,%eax
 55f:	0b 3b                	or     (%ebx),%edi
 561:	0b 49 13             	or     0x13(%ecx),%ecx
 564:	02 06                	add    (%esi),%al
 566:	00 00                	add    %al,(%eax)
 568:	04 34                	add    $0x34,%al
 56a:	00 03                	add    %al,(%ebx)
 56c:	08 3a                	or     %bh,(%edx)
 56e:	0b 3b                	or     (%ebx),%edi
 570:	0b 49 13             	or     0x13(%ecx),%ecx
 573:	02 0a                	add    (%edx),%cl
 575:	00 00                	add    %al,(%eax)
 577:	05 24 00 0b 0b       	add    $0xb0b0024,%eax
 57c:	3e 0b 03             	or     %ds:(%ebx),%eax
 57f:	08 00                	or     %al,(%eax)
 581:	00 06                	add    %al,(%esi)
 583:	0f 00 0b             	str    (%ebx)
 586:	0b 49 13             	or     0x13(%ecx),%ecx
 589:	00 00                	add    %al,(%eax)
 58b:	07                   	pop    %es
 58c:	24 00                	and    $0x0,%al
 58e:	0b 0b                	or     (%ebx),%ecx
 590:	3e 0b 03             	or     %ds:(%ebx),%eax
 593:	0e                   	push   %cs
 594:	00 00                	add    %al,(%eax)
 596:	00 01                	add    %al,(%ecx)
 598:	11 01                	adc    %eax,(%ecx)
 59a:	25 0e 13 0b 03       	and    $0x30b130e,%eax
 59f:	0e                   	push   %cs
 5a0:	1b 0e                	sbb    (%esi),%ecx
 5a2:	11 01                	adc    %eax,(%ecx)
 5a4:	12 01                	adc    (%ecx),%al
 5a6:	10 06                	adc    %al,(%esi)
 5a8:	00 00                	add    %al,(%eax)
 5aa:	02 13                	add    (%ebx),%dl
 5ac:	01 03                	add    %eax,(%ebx)
 5ae:	0e                   	push   %cs
 5af:	0b 0b                	or     (%ebx),%ecx
 5b1:	3a 0b                	cmp    (%ebx),%cl
 5b3:	3b 0b                	cmp    (%ebx),%ecx
 5b5:	01 13                	add    %edx,(%ebx)
 5b7:	00 00                	add    %al,(%eax)
 5b9:	03 0d 00 03 0e 3a    	add    0x3a0e0300,%ecx
 5bf:	0b 3b                	or     (%ebx),%edi
 5c1:	0b 49 13             	or     0x13(%ecx),%ecx
 5c4:	38 0a                	cmp    %cl,(%edx)
 5c6:	00 00                	add    %al,(%eax)
 5c8:	04 0d                	add    $0xd,%al
 5ca:	00 03                	add    %al,(%ebx)
 5cc:	08 3a                	or     %bh,(%edx)
 5ce:	0b 3b                	or     (%ebx),%edi
 5d0:	0b 49 13             	or     0x13(%ecx),%ecx
 5d3:	38 0a                	cmp    %cl,(%edx)
 5d5:	00 00                	add    %al,(%eax)
 5d7:	05 24 00 0b 0b       	add    $0xb0b0024,%eax
 5dc:	3e 0b 03             	or     %ds:(%ebx),%eax
 5df:	0e                   	push   %cs
 5e0:	00 00                	add    %al,(%eax)
 5e2:	06                   	push   %es
 5e3:	16                   	push   %ss
 5e4:	00 03                	add    %al,(%ebx)
 5e6:	0e                   	push   %cs
 5e7:	3a 0b                	cmp    (%ebx),%cl
 5e9:	3b 0b                	cmp    (%ebx),%ecx
 5eb:	49                   	dec    %ecx
 5ec:	13 00                	adc    (%eax),%eax
 5ee:	00 07                	add    %al,(%edi)
 5f0:	0f 00 0b             	str    (%ebx)
 5f3:	0b 49 13             	or     0x13(%ecx),%ecx
 5f6:	00 00                	add    %al,(%eax)
 5f8:	08 15 01 27 0c 01    	or     %dl,0x10c2701
 5fe:	13 00                	adc    (%eax),%eax
 600:	00 09                	add    %cl,(%ecx)
 602:	05 00 49 13 00       	add    $0x134900,%eax
 607:	00 0a                	add    %cl,(%edx)
 609:	0f 00 0b             	str    (%ebx)
 60c:	0b 00                	or     (%eax),%eax
 60e:	00 0b                	add    %cl,(%ebx)
 610:	2e 01 3f             	add    %edi,%cs:(%edi)
 613:	0c 03                	or     $0x3,%al
 615:	0e                   	push   %cs
 616:	3a 0b                	cmp    (%ebx),%cl
 618:	3b 0b                	cmp    (%ebx),%ecx
 61a:	27                   	daa    
 61b:	0c 49                	or     $0x49,%al
 61d:	13 11                	adc    (%ecx),%edx
 61f:	01 12                	add    %edx,(%edx)
 621:	01 40 06             	add    %eax,0x6(%eax)
 624:	01 13                	add    %edx,(%ebx)
 626:	00 00                	add    %al,(%eax)
 628:	0c 05                	or     $0x5,%al
 62a:	00 03                	add    %al,(%ebx)
 62c:	0e                   	push   %cs
 62d:	3a 0b                	cmp    (%ebx),%cl
 62f:	3b 0b                	cmp    (%ebx),%ecx
 631:	49                   	dec    %ecx
 632:	13 02                	adc    (%edx),%eax
 634:	0a 00                	or     (%eax),%al
 636:	00 0d 24 00 0b 0b    	add    %cl,0xb0b0024
 63c:	3e 0b 03             	or     %ds:(%ebx),%eax
 63f:	08 00                	or     %al,(%eax)
 641:	00 0e                	add    %cl,(%esi)
 643:	2e 01 3f             	add    %edi,%cs:(%edi)
 646:	0c 03                	or     $0x3,%al
 648:	0e                   	push   %cs
 649:	3a 0b                	cmp    (%ebx),%cl
 64b:	3b 0b                	cmp    (%ebx),%ecx
 64d:	27                   	daa    
 64e:	0c 11                	or     $0x11,%al
 650:	01 12                	add    %edx,(%edx)
 652:	01 40 06             	add    %eax,0x6(%eax)
 655:	01 13                	add    %edx,(%ebx)
 657:	00 00                	add    %al,(%eax)
 659:	0f 05                	syscall 
 65b:	00 03                	add    %al,(%ebx)
 65d:	08 3a                	or     %bh,(%edx)
 65f:	0b 3b                	or     (%ebx),%edi
 661:	0b 49 13             	or     0x13(%ecx),%ecx
 664:	02 0a                	add    (%edx),%cl
 666:	00 00                	add    %al,(%eax)
 668:	10 2e                	adc    %ch,(%esi)
 66a:	00 3f                	add    %bh,(%edi)
 66c:	0c 03                	or     $0x3,%al
 66e:	0e                   	push   %cs
 66f:	3a 0b                	cmp    (%ebx),%cl
 671:	3b 0b                	cmp    (%ebx),%ecx
 673:	27                   	daa    
 674:	0c 49                	or     $0x49,%al
 676:	13 11                	adc    (%ecx),%edx
 678:	01 12                	add    %edx,(%edx)
 67a:	01 40 06             	add    %eax,0x6(%eax)
 67d:	00 00                	add    %al,(%eax)
 67f:	11 2e                	adc    %ebp,(%esi)
 681:	00 3f                	add    %bh,(%edi)
 683:	0c 03                	or     $0x3,%al
 685:	0e                   	push   %cs
 686:	3a 0b                	cmp    (%ebx),%cl
 688:	3b 0b                	cmp    (%ebx),%ecx
 68a:	27                   	daa    
 68b:	0c 11                	or     $0x11,%al
 68d:	01 12                	add    %edx,(%edx)
 68f:	01 40 06             	add    %eax,0x6(%eax)
 692:	00 00                	add    %al,(%eax)
 694:	12 2e                	adc    (%esi),%ch
 696:	00 3f                	add    %bh,(%edi)
 698:	0c 03                	or     $0x3,%al
 69a:	0e                   	push   %cs
 69b:	3a 0b                	cmp    (%ebx),%cl
 69d:	3b 0b                	cmp    (%ebx),%ecx
 69f:	49                   	dec    %ecx
 6a0:	13 11                	adc    (%ecx),%edx
 6a2:	01 12                	add    %edx,(%edx)
 6a4:	01 40 06             	add    %eax,0x6(%eax)
 6a7:	00 00                	add    %al,(%eax)
 6a9:	13 34 00             	adc    (%eax,%eax,1),%esi
 6ac:	03 0e                	add    (%esi),%ecx
 6ae:	3a 0b                	cmp    (%ebx),%cl
 6b0:	3b 0b                	cmp    (%ebx),%ecx
 6b2:	49                   	dec    %ecx
 6b3:	13 3f                	adc    (%edi),%edi
 6b5:	0c 02                	or     $0x2,%al
 6b7:	0a 00                	or     (%eax),%al
 6b9:	00 14 35 00 49 13 00 	add    %dl,0x134900(,%esi,1)
 6c0:	00 00                	add    %al,(%eax)
 6c2:	01 11                	add    %edx,(%ecx)
 6c4:	00 10                	add    %dl,(%eax)
 6c6:	06                   	push   %es
 6c7:	11 01                	adc    %eax,(%ecx)
 6c9:	12 01                	adc    (%ecx),%al
 6cb:	03 08                	add    (%eax),%ecx
 6cd:	1b 08                	sbb    (%eax),%ecx
 6cf:	25 08 13 05 00       	and    $0x51308,%eax
 6d4:	00 00                	add    %al,(%eax)
 6d6:	01 11                	add    %edx,(%ecx)
 6d8:	00 10                	add    %dl,(%eax)
 6da:	06                   	push   %es
 6db:	11 01                	adc    %eax,(%ecx)
 6dd:	12 01                	adc    (%ecx),%al
 6df:	03 08                	add    (%eax),%ecx
 6e1:	1b 08                	sbb    (%eax),%ecx
 6e3:	25 08 13 05 00       	and    $0x51308,%eax
 6e8:	00 00                	add    %al,(%eax)
 6ea:	01 11                	add    %edx,(%ecx)
 6ec:	01 25 0e 13 0b 03    	add    %esp,0x30b130e
 6f2:	0e                   	push   %cs
 6f3:	1b 0e                	sbb    (%esi),%ecx
 6f5:	11 01                	adc    %eax,(%ecx)
 6f7:	12 01                	adc    (%ecx),%al
 6f9:	10 06                	adc    %al,(%esi)
 6fb:	00 00                	add    %al,(%eax)
 6fd:	02 2e                	add    (%esi),%ch
 6ff:	01 3f                	add    %edi,(%edi)
 701:	0c 03                	or     $0x3,%al
 703:	0e                   	push   %cs
 704:	3a 0b                	cmp    (%ebx),%cl
 706:	3b 0b                	cmp    (%ebx),%ecx
 708:	27                   	daa    
 709:	0c 11                	or     $0x11,%al
 70b:	01 12                	add    %edx,(%edx)
 70d:	01 40 06             	add    %eax,0x6(%eax)
 710:	01 13                	add    %edx,(%ebx)
 712:	00 00                	add    %al,(%eax)
 714:	03 05 00 03 0e 3a    	add    0x3a0e0300,%eax
 71a:	0b 3b                	or     (%ebx),%edi
 71c:	0b 49 13             	or     0x13(%ecx),%ecx
 71f:	02 0a                	add    (%edx),%cl
 721:	00 00                	add    %al,(%eax)
 723:	04 0f                	add    $0xf,%al
 725:	00 0b                	add    %cl,(%ebx)
 727:	0b 00                	or     (%eax),%eax
 729:	00 00                	add    %al,(%eax)
 72b:	01 11                	add    %edx,(%ecx)
 72d:	01 25 0e 13 0b 03    	add    %esp,0x30b130e
 733:	0e                   	push   %cs
 734:	1b 0e                	sbb    (%esi),%ecx
 736:	11 01                	adc    %eax,(%ecx)
 738:	12 01                	adc    (%ecx),%al
 73a:	10 06                	adc    %al,(%esi)
 73c:	00 00                	add    %al,(%eax)
 73e:	02 16                	add    (%esi),%dl
 740:	00 03                	add    %al,(%ebx)
 742:	0e                   	push   %cs
 743:	3a 0b                	cmp    (%ebx),%cl
 745:	3b 0b                	cmp    (%ebx),%ecx
 747:	49                   	dec    %ecx
 748:	13 00                	adc    (%eax),%eax
 74a:	00 03                	add    %al,(%ebx)
 74c:	24 00                	and    $0x0,%al
 74e:	0b 0b                	or     (%ebx),%ecx
 750:	3e 0b 03             	or     %ds:(%ebx),%eax
 753:	0e                   	push   %cs
 754:	00 00                	add    %al,(%eax)
 756:	04 17                	add    $0x17,%al
 758:	01 03                	add    %eax,(%ebx)
 75a:	08 0b                	or     %cl,(%ebx)
 75c:	0b 3a                	or     (%edx),%edi
 75e:	0b 3b                	or     (%ebx),%edi
 760:	0b 01                	or     (%ecx),%eax
 762:	13 00                	adc    (%eax),%eax
 764:	00 05 0d 00 03 08    	add    %al,0x803000d
 76a:	3a 0b                	cmp    (%ebx),%cl
 76c:	3b 0b                	cmp    (%ebx),%ecx
 76e:	49                   	dec    %ecx
 76f:	13 00                	adc    (%eax),%eax
 771:	00 06                	add    %al,(%esi)
 773:	01 01                	add    %eax,(%ecx)
 775:	49                   	dec    %ecx
 776:	13 01                	adc    (%ecx),%eax
 778:	13 00                	adc    (%eax),%eax
 77a:	00 07                	add    %al,(%edi)
 77c:	21 00                	and    %eax,(%eax)
 77e:	49                   	dec    %ecx
 77f:	13 2f                	adc    (%edi),%ebp
 781:	0b 00                	or     (%eax),%eax
 783:	00 08                	add    %cl,(%eax)
 785:	24 00                	and    $0x0,%al
 787:	0b 0b                	or     (%ebx),%ecx
 789:	3e 0b 03             	or     %ds:(%ebx),%eax
 78c:	08 00                	or     %al,(%eax)
 78e:	00 09                	add    %cl,(%ecx)
 790:	2e 01 03             	add    %eax,%cs:(%ebx)
 793:	08 3a                	or     %bh,(%edx)
 795:	0b 3b                	or     (%ebx),%edi
 797:	05 27 0c 11 01       	add    $0x1110c27,%eax
 79c:	12 01                	adc    (%ecx),%al
 79e:	40                   	inc    %eax
 79f:	06                   	push   %es
 7a0:	01 13                	add    %edx,(%ebx)
 7a2:	00 00                	add    %al,(%eax)
 7a4:	0a 05 00 03 08 3a    	or     0x3a080300,%al
 7aa:	0b 3b                	or     (%ebx),%edi
 7ac:	05 49 13 02 06       	add    $0x6021349,%eax
 7b1:	00 00                	add    %al,(%eax)
 7b3:	0b 34 00             	or     (%eax,%eax,1),%esi
 7b6:	03 08                	add    (%eax),%ecx
 7b8:	3a 0b                	cmp    (%ebx),%cl
 7ba:	3b 05 49 13 02 06    	cmp    0x6021349,%eax
 7c0:	00 00                	add    %al,(%eax)
 7c2:	0c 0f                	or     $0xf,%al
 7c4:	00 0b                	add    %cl,(%ebx)
 7c6:	0b 49 13             	or     0x13(%ecx),%ecx
 7c9:	00 00                	add    %al,(%eax)
 7cb:	0d 2e 01 3f 0c       	or     $0xc3f012e,%eax
 7d0:	03 0e                	add    (%esi),%ecx
 7d2:	3a 0b                	cmp    (%ebx),%cl
 7d4:	3b 0b                	cmp    (%ebx),%ecx
 7d6:	27                   	daa    
 7d7:	0c 49                	or     $0x49,%al
 7d9:	13 11                	adc    (%ecx),%edx
 7db:	01 12                	add    %edx,(%edx)
 7dd:	01 40 06             	add    %eax,0x6(%eax)
 7e0:	01 13                	add    %edx,(%ebx)
 7e2:	00 00                	add    %al,(%eax)
 7e4:	0e                   	push   %cs
 7e5:	05 00 03 08 3a       	add    $0x3a080300,%eax
 7ea:	0b 3b                	or     (%ebx),%edi
 7ec:	0b 49 13             	or     0x13(%ecx),%ecx
 7ef:	02 0a                	add    (%edx),%cl
 7f1:	00 00                	add    %al,(%eax)
 7f3:	0f 34                	sysenter 
 7f5:	00 03                	add    %al,(%ebx)
 7f7:	08 3a                	or     %bh,(%edx)
 7f9:	0b 3b                	or     (%ebx),%edi
 7fb:	0b 49 13             	or     0x13(%ecx),%ecx
 7fe:	00 00                	add    %al,(%eax)
 800:	10 34 00             	adc    %dh,(%eax,%eax,1)
 803:	03 08                	add    (%eax),%ecx
 805:	3a 0b                	cmp    (%ebx),%cl
 807:	3b 0b                	cmp    (%ebx),%ecx
 809:	49                   	dec    %ecx
 80a:	13 02                	adc    (%edx),%eax
 80c:	06                   	push   %es
 80d:	00 00                	add    %al,(%eax)
 80f:	11 34 00             	adc    %esi,(%eax,%eax,1)
 812:	03 0e                	add    (%esi),%ecx
 814:	3a 0b                	cmp    (%ebx),%cl
 816:	3b 0b                	cmp    (%ebx),%ecx
 818:	49                   	dec    %ecx
 819:	13 02                	adc    (%edx),%eax
 81b:	06                   	push   %es
 81c:	00 00                	add    %al,(%eax)
 81e:	12 34 00             	adc    (%eax,%eax,1),%dh
 821:	03 0e                	add    (%esi),%ecx
 823:	3a 0b                	cmp    (%ebx),%cl
 825:	3b 0b                	cmp    (%ebx),%ecx
 827:	49                   	dec    %ecx
 828:	13 02                	adc    (%edx),%eax
 82a:	0a 00                	or     (%eax),%al
 82c:	00 13                	add    %dl,(%ebx)
 82e:	0a 00                	or     (%eax),%al
 830:	03 0e                	add    (%esi),%ecx
 832:	3a 0b                	cmp    (%ebx),%cl
 834:	3b 0b                	cmp    (%ebx),%ecx
 836:	11 01                	adc    %eax,(%ecx)
 838:	00 00                	add    %al,(%eax)
 83a:	14 0b                	adc    $0xb,%al
 83c:	01 11                	add    %edx,(%ecx)
 83e:	01 12                	add    %edx,(%edx)
 840:	01 01                	add    %eax,(%ecx)
 842:	13 00                	adc    (%eax),%eax
 844:	00 15 0b 01 55 06    	add    %dl,0x655010b
 84a:	00 00                	add    %al,(%eax)
 84c:	16                   	push   %ss
 84d:	0b 01                	or     (%ecx),%eax
 84f:	11 01                	adc    %eax,(%ecx)
 851:	12 01                	adc    (%ecx),%al
 853:	00 00                	add    %al,(%eax)
 855:	17                   	pop    %ss
 856:	26 00 49 13          	add    %cl,%es:0x13(%ecx)
 85a:	00 00                	add    %al,(%eax)
 85c:	18 35 00 49 13 00    	sbb    %dh,0x134900
 862:	00 19                	add    %bl,(%ecx)
 864:	2e 01 3f             	add    %edi,%cs:(%edi)
 867:	0c 03                	or     $0x3,%al
 869:	0e                   	push   %cs
 86a:	3a 0b                	cmp    (%ebx),%cl
 86c:	3b 05 27 0c 49 13    	cmp    0x13490c27,%eax
 872:	11 01                	adc    %eax,(%ecx)
 874:	12 01                	adc    (%ecx),%al
 876:	40                   	inc    %eax
 877:	06                   	push   %es
 878:	01 13                	add    %edx,(%ebx)
 87a:	00 00                	add    %al,(%eax)
 87c:	1a 05 00 03 08 3a    	sbb    0x3a080300,%al
 882:	0b 3b                	or     (%ebx),%edi
 884:	05 49 13 02 0a       	add    $0xa021349,%eax
 889:	00 00                	add    %al,(%eax)
 88b:	1b 2e                	sbb    (%esi),%ebp
 88d:	01 3f                	add    %edi,(%edi)
 88f:	0c 03                	or     $0x3,%al
 891:	0e                   	push   %cs
 892:	3a 0b                	cmp    (%ebx),%cl
 894:	3b 05 27 0c 49 13    	cmp    0x13490c27,%eax
 89a:	11 01                	adc    %eax,(%ecx)
 89c:	12 01                	adc    (%ecx),%al
 89e:	40                   	inc    %eax
 89f:	06                   	push   %es
 8a0:	00 00                	add    %al,(%eax)
	...

Disassembly of section .debug_line:

00000000 <.debug_line>:
   0:	41                   	inc    %ecx
   1:	00 00                	add    %al,(%eax)
   3:	00 02                	add    %al,(%edx)
   5:	00 29                	add    %ch,(%ecx)
   7:	00 00                	add    %al,(%eax)
   9:	00 01                	add    %al,(%ecx)
   b:	01 fb                	add    %edi,%ebx
   d:	0e                   	push   %cs
   e:	0d 00 01 01 01       	or     $0x1010100,%eax
  13:	01 00                	add    %eax,(%eax)
  15:	00 00                	add    %al,(%eax)
  17:	01 00                	add    %eax,(%eax)
  19:	00 01                	add    %al,(%ecx)
  1b:	75 73                	jne    90 <main-0xffff70>
  1d:	65                   	gs
  1e:	72 2f                	jb     4f <main-0xffffb1>
  20:	70 72                	jo     94 <main-0xffff6c>
  22:	6f                   	outsl  %ds:(%esi),(%dx)
  23:	67 73 00             	addr16 jae 26 <main-0xffffda>
  26:	00 74 65 73          	add    %dh,0x73(%ebp,%eiz,2)
  2a:	74 31                	je     5d <main-0xffffa3>
  2c:	2e 63 00             	arpl   %ax,%cs:(%eax)
  2f:	01 00                	add    %eax,(%eax)
  31:	00 00                	add    %al,(%eax)
  33:	00 05 02 00 00 00    	add    %al,0x2
  39:	01 18                	add    %ebx,(%eax)
  3b:	69 bc bc bc bd 02 07 	imul   $0x3d010100,0x702bdbc(%esp,%edi,4),%edi
  42:	00 01 01 3d 
  46:	00 00                	add    %al,(%eax)
  48:	00 02                	add    %al,(%edx)
  4a:	00 25 00 00 00 01    	add    %ah,0x1000000
  50:	01 fb                	add    %edi,%ebx
  52:	0e                   	push   %cs
  53:	0d 00 01 01 01       	or     $0x1010100,%eax
  58:	01 00                	add    %eax,(%eax)
  5a:	00 00                	add    %al,(%eax)
  5c:	01 00                	add    %eax,(%eax)
  5e:	00 01                	add    %al,(%ecx)
  60:	34 31                	xor    $0x31,%al
  62:	30 75 73             	xor    %dh,0x73(%ebp)
  65:	65                   	gs
  66:	72 00                	jb     68 <main-0xffff98>
  68:	00 63 72             	add    %ah,0x72(%ebx)
  6b:	74 30                	je     9d <main-0xffff63>
  6d:	2e 63 00             	arpl   %ax,%cs:(%eax)
  70:	01 00                	add    %eax,(%eax)
  72:	00 00                	add    %al,(%eax)
  74:	00 05 02 40 00 00    	add    %al,0x4002
  7a:	01 03                	add    %eax,(%ebx)
  7c:	0f 01 67 08          	smsw   0x8(%edi)
  80:	21 02                	and    %eax,(%edx)
  82:	1a 00                	sbb    (%eax),%al
  84:	01 01                	add    %eax,(%ecx)
  86:	96                   	xchg   %eax,%esi
  87:	00 00                	add    %al,(%eax)
  89:	00 02                	add    %al,(%edx)
  8b:	00 4b 00             	add    %cl,0x0(%ebx)
  8e:	00 00                	add    %al,(%eax)
  90:	01 01                	add    %eax,(%ecx)
  92:	fb                   	sti    
  93:	0e                   	push   %cs
  94:	0d 00 01 01 01       	or     $0x1010100,%eax
  99:	01 00                	add    %eax,(%eax)
  9b:	00 00                	add    %al,(%eax)
  9d:	01 00                	add    %eax,(%eax)
  9f:	00 01                	add    %al,(%ecx)
  a1:	34 31                	xor    $0x31,%al
  a3:	30 75 73             	xor    %dh,0x73(%ebp)
  a6:	65                   	gs
  a7:	72 2f                	jb     d8 <main-0xffff28>
  a9:	6c                   	insb   (%dx),%es:(%edi)
  aa:	69 62 73 69 6d 69 63 	imul   $0x63696d69,0x73(%edx),%esp
  b1:	73 00                	jae    b3 <main-0xffff4d>
  b3:	34 31                	xor    $0x31,%al
  b5:	30 75 73             	xor    %dh,0x73(%ebp)
  b8:	65                   	gs
  b9:	72 2f                	jb     ea <main-0xffff16>
  bb:	69 6e 63 00 00 73 69 	imul   $0x69730000,0x63(%esi),%ebp
  c2:	6d                   	insl   (%dx),%es:(%edi)
  c3:	69 63 73 5f 63 2e 63 	imul   $0x632e635f,0x73(%ebx),%esp
  ca:	00 01                	add    %al,(%ecx)
  cc:	00 00                	add    %al,(%eax)
  ce:	73 74                	jae    144 <main-0xfffebc>
  d0:	64                   	fs
  d1:	61                   	popa   
  d2:	72 67                	jb     13b <main-0xfffec5>
  d4:	2e                   	cs
  d5:	68 00 02 00 00       	push   $0x200
  da:	00 00                	add    %al,(%eax)
  dc:	05 02 74 00 00       	add    $0x7402,%eax
  e1:	01 03                	add    %eax,(%ebx)
  e3:	21 01                	and    %eax,(%ecx)
  e5:	67 bb 03 7a 2e 67    	addr16 mov $0x672e7a03,%ebx
  eb:	08 2f                	or     %ch,(%edi)
  ed:	03 7a 2e             	add    0x2e(%edx),%edi
  f0:	67 bb 03 7a 2e 67    	addr16 mov $0x672e7a03,%ebx
  f6:	bb 03 7a 2e 67       	mov    $0x672e7a03,%ebx
  fb:	bb 03 7a 2e 67       	mov    $0x672e7a03,%ebx
 100:	08 2f                	or     %ch,(%edi)
 102:	03 7a 2e             	add    0x2e(%edx),%edi
 105:	67 bb 03 7a 2e 67    	addr16 mov $0x672e7a03,%ebx
 10b:	bb 03 29 2e 67       	mov    $0x672e2903,%ebx
 110:	bb 08 21 03 72       	mov    $0x72032108,%ebx
 115:	2e                   	cs
 116:	9e                   	sahf   
 117:	41                   	inc    %ecx
 118:	08 f5                	or     %dh,%ch
 11a:	83 02 09             	addl   $0x9,(%edx)
 11d:	00 01                	add    %al,(%ecx)
 11f:	01 4b 00             	add    %ecx,0x0(%ebx)
 122:	00 00                	add    %al,(%eax)
 124:	02 00                	add    (%eax),%al
 126:	31 00                	xor    %eax,(%eax)
 128:	00 00                	add    %al,(%eax)
 12a:	01 01                	add    %eax,(%ecx)
 12c:	fb                   	sti    
 12d:	0e                   	push   %cs
 12e:	0d 00 01 01 01       	or     $0x1010100,%eax
 133:	01 00                	add    %eax,(%eax)
 135:	00 00                	add    %al,(%eax)
 137:	01 00                	add    %eax,(%eax)
 139:	00 01                	add    %al,(%ecx)
 13b:	34 31                	xor    $0x31,%al
 13d:	30 75 73             	xor    %dh,0x73(%ebp)
 140:	65                   	gs
 141:	72 2f                	jb     172 <main-0xfffe8e>
 143:	6c                   	insb   (%dx),%es:(%edi)
 144:	69 62 73 69 6d 69 63 	imul   $0x63696d69,0x73(%edx),%esp
 14b:	73 00                	jae    14d <main-0xfffeb3>
 14d:	00 73 69             	add    %dh,0x69(%ebx)
 150:	6d                   	insl   (%dx),%es:(%edi)
 151:	69 63 73 2e 53 00 01 	imul   $0x100532e,0x73(%ebx),%esp
 158:	00 00                	add    %al,(%eax)
 15a:	00 00                	add    %al,(%eax)
 15c:	05 02 88 01 00       	add    $0x18802,%eax
 161:	01 17                	add    %edx,(%edi)
 163:	21 4b 4b             	and    %ecx,0x4b(%ebx)
 166:	4b                   	dec    %ebx
 167:	59                   	pop    %ecx
 168:	2f                   	das    
 169:	21 02                	and    %eax,(%edx)
 16b:	01 00                	add    %eax,(%eax)
 16d:	01 01                	add    %eax,(%ecx)
 16f:	89 00                	mov    %eax,(%eax)
 171:	00 00                	add    %al,(%eax)
 173:	02 00                	add    (%eax),%al
 175:	49                   	dec    %ecx
 176:	00 00                	add    %al,(%eax)
 178:	00 01                	add    %al,(%ecx)
 17a:	01 fb                	add    %edi,%ebx
 17c:	0e                   	push   %cs
 17d:	0d 00 01 01 01       	or     $0x1010100,%eax
 182:	01 00                	add    %eax,(%eax)
 184:	00 00                	add    %al,(%eax)
 186:	01 00                	add    %eax,(%eax)
 188:	00 01                	add    %al,(%ecx)
 18a:	34 31                	xor    $0x31,%al
 18c:	30 75 73             	xor    %dh,0x73(%ebp)
 18f:	65                   	gs
 190:	72 2f                	jb     1c1 <main-0xfffe3f>
 192:	6c                   	insb   (%dx),%es:(%edi)
 193:	69 62 73 74 64 69 6f 	imul   $0x6f696474,0x73(%edx),%esp
 19a:	00 34 31             	add    %dh,(%ecx,%esi,1)
 19d:	30 75 73             	xor    %dh,0x73(%ebp)
 1a0:	65                   	gs
 1a1:	72 2f                	jb     1d2 <main-0xfffe2e>
 1a3:	69 6e 63 00 00 73 70 	imul   $0x70730000,0x63(%esi),%ebp
 1aa:	72 69                	jb     215 <main-0xfffdeb>
 1ac:	6e                   	outsb  %ds:(%esi),(%dx)
 1ad:	74 66                	je     215 <main-0xfffdeb>
 1af:	2e 63 00             	arpl   %ax,%cs:(%eax)
 1b2:	01 00                	add    %eax,(%eax)
 1b4:	00 73 74             	add    %dh,0x74(%ebx)
 1b7:	64                   	fs
 1b8:	61                   	popa   
 1b9:	72 67                	jb     222 <main-0xfffdde>
 1bb:	2e                   	cs
 1bc:	68 00 02 00 00       	push   $0x200
 1c1:	00 00                	add    %al,(%eax)
 1c3:	05 02 a0 01 00       	add    $0x1a002,%eax
 1c8:	01 03                	add    %eax,(%ebx)
 1ca:	26 01 3d 3e 84 5c 4b 	add    %edi,%es:0x4b5c843e
 1d1:	75 3d                	jne    210 <main-0xfffdf0>
 1d3:	03 10                	add    (%eax),%edx
 1d5:	2e                   	cs
 1d6:	68 67 75 68 02       	push   $0x2687567
 1db:	29 13                	sub    %edx,(%ebx)
 1dd:	69 03 0f 58 65 42    	imul   $0x4265580f,(%ebx),%eax
 1e3:	08 be 03 51 2e 68    	or     %bh,0x682e5103(%esi)
 1e9:	75 75                	jne    260 <main-0xfffda0>
 1eb:	68 02 29 13 69       	push   $0x69132902
 1f0:	03 10                	add    (%eax),%edx
 1f2:	58                   	pop    %eax
 1f3:	65                   	gs
 1f4:	42                   	inc    %edx
 1f5:	08 5c 02 02          	or     %bl,0x2(%edx,%eax,1)
 1f9:	00 01                	add    %al,(%ecx)
 1fb:	01 19                	add    %ebx,(%ecx)
 1fd:	02 00                	add    (%eax),%al
 1ff:	00 02                	add    %al,(%edx)
 201:	00 53 00             	add    %dl,0x0(%ebx)
 204:	00 00                	add    %al,(%eax)
 206:	01 01                	add    %eax,(%ecx)
 208:	fb                   	sti    
 209:	0e                   	push   %cs
 20a:	0d 00 01 01 01       	or     $0x1010100,%eax
 20f:	01 00                	add    %eax,(%eax)
 211:	00 00                	add    %al,(%eax)
 213:	01 00                	add    %eax,(%eax)
 215:	00 01                	add    %al,(%ecx)
 217:	34 31                	xor    $0x31,%al
 219:	30 75 73             	xor    %dh,0x73(%ebp)
 21c:	65                   	gs
 21d:	72 2f                	jb     24e <main-0xfffdb2>
 21f:	6c                   	insb   (%dx),%es:(%edi)
 220:	69 62 73 74 64 69 6f 	imul   $0x6f696474,0x73(%edx),%esp
 227:	00 34 31             	add    %dh,(%ecx,%esi,1)
 22a:	30 75 73             	xor    %dh,0x73(%ebp)
 22d:	65                   	gs
 22e:	72 2f                	jb     25f <main-0xfffda1>
 230:	69 6e 63 00 00 64 6f 	imul   $0x6f640000,0x63(%esi),%ebp
 237:	70 72                	jo     2ab <main-0xfffd55>
 239:	6e                   	outsb  %ds:(%esi),(%dx)
 23a:	74 2e                	je     26a <main-0xfffd96>
 23c:	63 00                	arpl   %ax,(%eax)
 23e:	01 00                	add    %eax,(%eax)
 240:	00 73 74             	add    %dh,0x74(%ebx)
 243:	64                   	fs
 244:	61                   	popa   
 245:	72 67                	jb     2ae <main-0xfffd52>
 247:	2e                   	cs
 248:	68 00 02 00 00       	push   $0x200
 24d:	74 79                	je     2c8 <main-0xfffd38>
 24f:	70 65                	jo     2b6 <main-0xfffd4a>
 251:	73 2e                	jae    281 <main-0xfffd7f>
 253:	68 00 02 00 00       	push   $0x200
 258:	00 00                	add    %al,(%eax)
 25a:	05 02 b0 02 00       	add    $0x2b002,%eax
 25f:	01 03                	add    %eax,(%ebx)
 261:	99                   	cltd   
 262:	01 01                	add    %eax,(%ecx)
 264:	08 20                	or     %ah,(%eax)
 266:	41                   	inc    %ecx
 267:	08 5a 4c             	or     %bl,0x4c(%edx)
 26a:	9f                   	lahf   
 26b:	c7                   	(bad)  
 26c:	76 89                	jbe    1f7 <main-0xfffe09>
 26e:	e0 03                	loopne 273 <main-0xfffd8d>
 270:	0a 66 08             	or     0x8(%esi),%ah
 273:	2f                   	das    
 274:	3a 96 08 3b 85 03    	cmp    0x3853b08(%esi),%dl
 27a:	0a 82 03 88 03 ba    	or     -0x45fc77fd(%edx),%al
 280:	03 86 7d 66 59 4b    	add    0x4b59667d(%esi),%eax
 286:	08 2f                	or     %ch,(%edi)
 288:	03 1c 08             	add    (%eax,%ecx,1),%ebx
 28b:	9e                   	sahf   
 28c:	53                   	push   %ebx
 28d:	03 69 74             	add    0x74(%ecx),%ebp
 290:	03 0f                	add    (%edi),%ecx
 292:	c8 08 24 5c          	enter  $0x2408,$0x5c
 296:	be 59 a6 92 77       	mov    $0x7792a659,%esi
 29b:	08 68 c7             	or     %ch,-0x39(%eax)
 29e:	08 31                	or     %dh,(%ecx)
 2a0:	e5 ad                	in     $0xad,%eax
 2a2:	3d 4b ad 5c 59       	cmp    $0x595cad4b,%eax
 2a7:	3d f5 c7 f5 59       	cmp    $0x59f5c7f5,%eax
 2ac:	83 cc c9             	or     $0xffffffc9,%esp
 2af:	3d 3a 89 02 64       	cmp    $0x6402893a,%eax
 2b4:	1a 9f e5 67 08 5a    	sbb    0x5a0867e5(%edi),%bl
 2ba:	9b                   	fwait
 2bb:	02 23                	add    (%ebx),%ah
 2bd:	19 3e                	sbb    %edi,(%esi)
 2bf:	95                   	xchg   %eax,%ebp
 2c0:	67 e6 08             	addr16 out %al,$0x8
 2c3:	3f                   	aas    
 2c4:	91                   	xchg   %eax,%ecx
 2c5:	75 b9                	jne    280 <main-0xfffd80>
 2c7:	a0 02 4f 15 08       	mov    0x8154f02,%al
 2cc:	e5 67                	in     $0x67,%eax
 2ce:	cd 8d                	int    $0x8d
 2d0:	08 5c b9 be          	or     %bl,-0x42(%ecx,%edi,4)
 2d4:	03 62 82             	add    -0x7e(%edx),%esp
 2d7:	03 22                	add    (%edx),%esp
 2d9:	08 12                	or     %dl,(%edx)
 2db:	9f                   	lahf   
 2dc:	08 5d 91             	or     %bl,-0x6f(%ebp)
 2df:	08 2f                	or     %ch,(%edi)
 2e1:	03 16                	add    (%esi),%edx
 2e3:	58                   	pop    %eax
 2e4:	08 92 84 08 96 08    	or     %dl,0x8960884(%edx)
 2ea:	75 08                	jne    2f4 <main-0xfffd0c>
 2ec:	f3 08 13             	repz or %dl,(%ebx)
 2ef:	80 03 c3             	addb   $0xc3,(%ebx)
 2f2:	7e 08                	jle    2fc <main-0xfffd04>
 2f4:	20 03                	and    %al,(%ebx)
 2f6:	c2 01 02             	ret    $0x201
 2f9:	3e 01 08             	add    %ecx,%ds:(%eax)
 2fc:	67 d8 08             	fmuls  (%bx,%si)
 2ff:	14 d8                	adc    $0xd8,%al
 301:	03 7a 08             	add    0x8(%edx),%edi
 304:	2e d8 08             	fmuls  %cs:(%eax)
 307:	14 da                	adc    $0xda,%al
 309:	08 3d 02 23 13 08    	or     %bh,0x8132302
 30f:	13 64 08 52          	adc    0x52(%eax,%ecx,1),%esp
 313:	08 98 02 31 13 02    	or     %bl,0x2133102(%eax)
 319:	43                   	inc    %ebx
 31a:	13 a0 08 9f 02 2c    	adc    0x2c029f08(%eax),%esp
 320:	13 08                	adc    (%eax),%ecx
 322:	13 03                	adc    (%ebx),%eax
 324:	9d                   	popf   
 325:	7e 66                	jle    38d <main-0xfffc73>
 327:	03 e1                	add    %ecx,%esp
 329:	01 9e 03 9f 7e ba    	add    %ebx,-0x458160fd(%esi)
 32f:	03 e7                	add    %edi,%esp
 331:	01 08                	add    %ecx,(%eax)
 333:	3c 08                	cmp    $0x8,%al
 335:	68 f3 02 2c 13       	push   $0x132c02f3
 33a:	08 13                	or     %dl,(%ebx)
 33c:	03 94 7e 66 03 ea 01 	add    0x1ea0366(%esi,%edi,2),%edx
 343:	9e                   	sahf   
 344:	08 50 08             	or     %dl,0x8(%eax)
 347:	59                   	pop    %ecx
 348:	08 14 67             	or     %dl,(%edi,%eiz,2)
 34b:	02 32                	add    (%edx),%dh
 34d:	13 03                	adc    (%ebx),%eax
 34f:	8b 7e 02             	mov    0x2(%esi),%edi
 352:	23 01                	and    (%ecx),%eax
 354:	03 f4                	add    %esp,%esi
 356:	01 9e bf 08 5a 08    	add    %ebx,0x85a08bf(%esi)
 35c:	68 02 42 13 08       	push   $0x8134202
 361:	3d 03 81 7e 08       	cmp    $0x87e8103,%eax
 366:	66 03 fe             	add    %si,%di
 369:	01 9e 03 0f 08 4a    	add    %ebx,0x4a080f03(%esi)
 36f:	af                   	scas   %es:(%edi),%eax
 370:	d8 a1 be 03 0d 02    	fsubs  0x20d03be(%ecx)
 376:	23 01                	and    (%ecx),%eax
 378:	08 83 03 73 02 53    	or     %al,0x53027303(%ebx)
 37e:	01 81 08 79 02 29    	add    %eax,0x29027908(%ecx)
 384:	0d 08 50 08 13       	or     $0x13085008,%eax
 389:	80 03 09             	addb   $0x9,(%ebx)
 38c:	08 9e 08 93 08 2a    	or     %bl,0x2a089308(%esi)
 392:	7b 02                	jnp    396 <main-0xfffc6a>
 394:	2c 13                	sub    $0x13,%al
 396:	08 4b 08             	or     %cl,0x8(%ebx)
 399:	13 80 03 0b 08 4a    	adc    0x4a080b03(%eax),%eax
 39f:	08 34 08             	or     %dh,(%eax,%ecx,1)
 3a2:	34 03                	xor    $0x3,%al
 3a4:	0d 08 20 08 13       	or     $0x13082008,%eax
 3a9:	08 ae 08 34 f8 dc    	or     %ch,-0x2307cbf8(%esi)
 3af:	08 96 59 08 84 08    	or     %dl,0x8840859(%esi)
 3b5:	84 8f 6b 08 b2 59    	test   %cl,0x59b2086b(%edi)
 3bb:	08 92 03 0a 08 90    	or     %dl,-0x6ff7f5fd(%edx)
 3c1:	ae                   	scas   %es:(%edi),%al
 3c2:	bb bc 08 5d 02       	mov    $0x25d08bc,%ebx
 3c7:	36 13 08             	adc    %ss:(%eax),%ecx
 3ca:	c9                   	leave  
 3cb:	bc 92 75 67 ca       	mov    $0xca677592,%esp
 3d0:	08 14 08             	or     %dl,(%eax,%ecx,1)
 3d3:	75 c7                	jne    39c <main-0xfffc64>
 3d5:	03 e1                	add    %ecx,%esp
 3d7:	7c ac                	jl     385 <main-0xfffc7b>
 3d9:	03 a2 03 3c 67 f3    	add    -0xc98c3fd(%edx),%esp
 3df:	67 08 2f             	or     %ch,(%bx)
 3e2:	e3 a0                	jecxz  384 <main-0xfffc7c>
 3e4:	bc 08 4b c7 03       	mov    $0x3c74b08,%esp
 3e9:	d7                   	xlat   %ds:(%ebx)
 3ea:	7c 82                	jl     36e <main-0xfffc92>
 3ec:	03 ac 03 66 08 2f c7 	add    -0x38d0f79a(%ebx,%eax,1),%ebp
 3f3:	a1 67 08 13 c7       	mov    0xc7130867,%eax
 3f8:	a5                   	movsl  %ds:(%esi),%es:(%edi)
 3f9:	91                   	xchg   %eax,%ecx
 3fa:	31 08                	xor    %ecx,(%eax)
 3fc:	5a                   	pop    %edx
 3fd:	03 d7                	add    %edi,%edx
 3ff:	7c 3c                	jl     43d <main-0xfffbc3>
 401:	03 6c c8 03          	add    0x3(%eax,%ecx,8),%ebp
 405:	f0 01 08             	lock add %ecx,(%eax)
 408:	3c 08                	cmp    $0x8,%al
 40a:	59                   	pop    %ecx
 40b:	08 57 08             	or     %dl,0x8(%edi)
 40e:	59                   	pop    %ecx
 40f:	03 ce                	add    %esi,%ecx
 411:	01 08                	add    %ecx,(%eax)
 413:	2e 02 08             	add    %cs:(%eax),%cl
 416:	00 01                	add    %al,(%ecx)
 418:	01 46 00             	add    %eax,0x0(%esi)
 41b:	00 00                	add    %al,(%eax)
 41d:	02 00                	add    (%eax),%al
 41f:	2f                   	das    
 420:	00 00                	add    %al,(%eax)
 422:	00 01                	add    %al,(%ecx)
 424:	01 fb                	add    %edi,%ebx
 426:	0e                   	push   %cs
 427:	0d 00 01 01 01       	or     $0x1010100,%eax
 42c:	01 00                	add    %eax,(%eax)
 42e:	00 00                	add    %al,(%eax)
 430:	01 00                	add    %eax,(%eax)
 432:	00 01                	add    %al,(%ecx)
 434:	34 31                	xor    $0x31,%al
 436:	30 75 73             	xor    %dh,0x73(%ebp)
 439:	65                   	gs
 43a:	72 2f                	jb     46b <main-0xfffb95>
 43c:	6c                   	insb   (%dx),%es:(%edi)
 43d:	69 62 73 74 64 6c 69 	imul   $0x696c6474,0x73(%edx),%esp
 444:	62 00                	bound  %eax,(%eax)
 446:	00 65 78             	add    %ah,0x78(%ebp)
 449:	69 74 2e 63 00 01 00 	imul   $0x100,0x63(%esi,%ebp,1),%esi
 450:	00 
 451:	00 00                	add    %al,(%eax)
 453:	05 02 84 11 00       	add    $0x118402,%eax
 458:	01 03                	add    %eax,(%ebx)
 45a:	0c 01                	or     $0x1,%al
 45c:	67 ad                	lods   %ds:(%si),%eax
 45e:	02 05 00 01 01 49    	add    0x49010100,%al
 464:	00 00                	add    %al,(%eax)
 466:	00 02                	add    %al,(%edx)
 468:	00 31                	add    %dh,(%ecx)
 46a:	00 00                	add    %al,(%eax)
 46c:	00 01                	add    %al,(%ecx)
 46e:	01 fb                	add    %edi,%ebx
 470:	0e                   	push   %cs
 471:	0d 00 01 01 01       	or     $0x1010100,%eax
 476:	01 00                	add    %eax,(%eax)
 478:	00 00                	add    %al,(%eax)
 47a:	01 00                	add    %eax,(%eax)
 47c:	00 01                	add    %al,(%ecx)
 47e:	34 31                	xor    $0x31,%al
 480:	30 75 73             	xor    %dh,0x73(%ebp)
 483:	65                   	gs
 484:	72 2f                	jb     4b5 <main-0xfffb4b>
 486:	6c                   	insb   (%dx),%es:(%edi)
 487:	69 62 73 74 72 69 6e 	imul   $0x6e697274,0x73(%edx),%esp
 48e:	67 00 00             	add    %al,(%bx,%si)
 491:	73 74                	jae    507 <main-0xfffaf9>
 493:	72 6c                	jb     501 <main-0xfffaff>
 495:	65 6e                	outsb  %gs:(%esi),(%dx)
 497:	2e 63 00             	arpl   %ax,%cs:(%eax)
 49a:	01 00                	add    %eax,(%eax)
 49c:	00 00                	add    %al,(%eax)
 49e:	00 05 02 9c 11 00    	add    %al,0x119c02
 4a4:	01 03                	add    %eax,(%ebx)
 4a6:	25 01 66 31 da       	and    $0xda316601,%eax
 4ab:	02 02                	add    (%edx),%al
 4ad:	00 01                	add    %al,(%ecx)
 4af:	01 8e 00 00 00 02    	add    %ecx,0x2000000(%esi)
 4b5:	00 4c 00 00          	add    %cl,0x0(%eax,%eax,1)
 4b9:	00 01                	add    %al,(%ecx)
 4bb:	01 fb                	add    %edi,%ebx
 4bd:	0e                   	push   %cs
 4be:	0d 00 01 01 01       	or     $0x1010100,%eax
 4c3:	01 00                	add    %eax,(%eax)
 4c5:	00 00                	add    %al,(%eax)
 4c7:	01 00                	add    %eax,(%eax)
 4c9:	00 01                	add    %al,(%ecx)
 4cb:	75 73                	jne    540 <main-0xfffac0>
 4cd:	65                   	gs
 4ce:	72 2f                	jb     4ff <main-0xfffb01>
 4d0:	6c                   	insb   (%dx),%es:(%edi)
 4d1:	69 62 73 79 73 63 61 	imul   $0x61637379,0x73(%edx),%esp
 4d8:	6c                   	insb   (%dx),%es:(%edi)
 4d9:	6c                   	insb   (%dx),%es:(%edi)
 4da:	00 73 70             	add    %dh,0x70(%ebx)
 4dd:	65 63 00             	arpl   %ax,%gs:(%eax)
 4e0:	00 73 79             	add    %dh,0x79(%ebx)
 4e3:	73 63                	jae    548 <main-0xfffab8>
 4e5:	61                   	popa   
 4e6:	6c                   	insb   (%dx),%es:(%edi)
 4e7:	6c                   	insb   (%dx),%es:(%edi)
 4e8:	2e 63 00             	arpl   %ax,%cs:(%eax)
 4eb:	01 00                	add    %eax,(%eax)
 4ed:	00 75 72             	add    %dh,0x72(%ebp)
 4f0:	65                   	gs
 4f1:	67                   	addr16
 4f2:	2e                   	cs
 4f3:	68 00 02 00 00       	push   $0x200
 4f8:	73 79                	jae    573 <main-0xfffa8d>
 4fa:	73 63                	jae    55f <main-0xfffaa1>
 4fc:	61                   	popa   
 4fd:	6c                   	insb   (%dx),%es:(%edi)
 4fe:	6c                   	insb   (%dx),%es:(%edi)
 4ff:	2e                   	cs
 500:	68 00 02 00 00       	push   $0x200
 505:	00 00                	add    %al,(%eax)
 507:	05 02 b4 11 00       	add    $0x11b402,%eax
 50c:	01 03                	add    %eax,(%ebx)
 50e:	20 01                	and    %al,(%ecx)
 510:	3e 77 3e             	ja,pt  551 <main-0xfffaaf>
 513:	03 10                	add    (%eax),%edx
 515:	2e                   	cs
 516:	3e 77 3e             	ja,pt  557 <main-0xfffaa9>
 519:	77 3e                	ja     559 <main-0xfffaa7>
 51b:	77 3e                	ja     55b <main-0xfffaa5>
 51d:	77 3e                	ja     55d <main-0xfffaa3>
 51f:	03 0a                	add    (%edx),%ecx
 521:	74 3e                	je     561 <main-0xfffa9f>
 523:	77 3e                	ja     563 <main-0xfffa9d>
 525:	77 3e                	ja     565 <main-0xfffa9b>
 527:	77 3e                	ja     567 <main-0xfffa99>
 529:	77 3e                	ja     569 <main-0xfffa97>
 52b:	77 3e                	ja     56b <main-0xfffa95>
 52d:	77 3e                	ja     56d <main-0xfffa93>
 52f:	77 5e                	ja     58f <main-0xfffa71>
 531:	01 3e                	add    %edi,(%esi)
 533:	77 60                	ja     595 <main-0xfffa6b>
 535:	01 3e                	add    %edi,(%esi)
 537:	77 3e                	ja     577 <main-0xfffa89>
 539:	77 3e                	ja     579 <main-0xfffa87>
 53b:	77 3e                	ja     57b <main-0xfffa85>
 53d:	02 02                	add    (%edx),%al
 53f:	00 01                	add    %al,(%ecx)
 541:	01 43 00             	add    %eax,0x0(%ebx)
 544:	00 00                	add    %al,(%eax)
 546:	02 00                	add    (%eax),%al
 548:	2f                   	das    
 549:	00 00                	add    %al,(%eax)
 54b:	00 01                	add    %al,(%ecx)
 54d:	01 fb                	add    %edi,%ebx
 54f:	0e                   	push   %cs
 550:	0d 00 01 01 01       	or     $0x1010100,%eax
 555:	01 00                	add    %eax,(%eax)
 557:	00 00                	add    %al,(%eax)
 559:	01 00                	add    %eax,(%eax)
 55b:	00 01                	add    %al,(%ecx)
 55d:	75 73                	jne    5d2 <main-0xfffa2e>
 55f:	65                   	gs
 560:	72 2f                	jb     591 <main-0xfffa6f>
 562:	6c                   	insb   (%dx),%es:(%edi)
 563:	69 62 73 79 73 63 61 	imul   $0x61637379,0x73(%edx),%esp
 56a:	6c                   	insb   (%dx),%es:(%edi)
 56b:	6c                   	insb   (%dx),%es:(%edi)
 56c:	00 00                	add    %al,(%eax)
 56e:	76 61                	jbe    5d1 <main-0xfffa2f>
 570:	6e                   	outsb  %ds:(%esi),(%dx)
 571:	69 73 68 2e 53 00 01 	imul   $0x100532e,0x68(%ebx),%esi
 578:	00 00                	add    %al,(%eax)
 57a:	00 00                	add    %al,(%eax)
 57c:	05 02 74 12 00       	add    $0x127402,%eax
 581:	01 17                	add    %edx,(%edi)
 583:	2f                   	das    
 584:	02 01                	add    (%ecx),%al
 586:	00 01                	add    %al,(%ecx)
 588:	01 42 00             	add    %eax,0x0(%edx)
 58b:	00 00                	add    %al,(%eax)
 58d:	02 00                	add    (%eax),%al
 58f:	2e 00 00             	add    %al,%cs:(%eax)
 592:	00 01                	add    %al,(%ecx)
 594:	01 fb                	add    %edi,%ebx
 596:	0e                   	push   %cs
 597:	0d 00 01 01 01       	or     $0x1010100,%eax
 59c:	01 00                	add    %eax,(%eax)
 59e:	00 00                	add    %al,(%eax)
 5a0:	01 00                	add    %eax,(%eax)
 5a2:	00 01                	add    %al,(%ecx)
 5a4:	75 73                	jne    619 <main-0xfff9e7>
 5a6:	65                   	gs
 5a7:	72 2f                	jb     5d8 <main-0xfffa28>
 5a9:	6c                   	insb   (%dx),%es:(%edi)
 5aa:	69 62 73 79 73 63 61 	imul   $0x61637379,0x73(%edx),%esp
 5b1:	6c                   	insb   (%dx),%es:(%edi)
 5b2:	6c                   	insb   (%dx),%es:(%edi)
 5b3:	00 00                	add    %al,(%eax)
 5b5:	73 6c                	jae    623 <main-0xfff9dd>
 5b7:	65                   	gs
 5b8:	65                   	gs
 5b9:	70 2e                	jo     5e9 <main-0xfffa17>
 5bb:	53                   	push   %ebx
 5bc:	00 01                	add    %al,(%ecx)
 5be:	00 00                	add    %al,(%eax)
 5c0:	00 00                	add    %al,(%eax)
 5c2:	05 02 78 12 00       	add    $0x127802,%eax
 5c7:	01 17                	add    %edx,(%edi)
 5c9:	2f                   	das    
 5ca:	02 01                	add    (%ecx),%al
 5cc:	00 01                	add    %al,(%ecx)
 5ce:	01 3b                	add    %edi,(%ebx)
 5d0:	00 00                	add    %al,(%eax)
 5d2:	00 02                	add    %al,(%edx)
 5d4:	00 27                	add    %ah,(%edi)
 5d6:	00 00                	add    %al,(%eax)
 5d8:	00 01                	add    %al,(%ecx)
 5da:	01 fb                	add    %edi,%ebx
 5dc:	0e                   	push   %cs
 5dd:	0d 00 01 01 01       	or     $0x1010100,%eax
 5e2:	01 00                	add    %eax,(%eax)
 5e4:	00 00                	add    %al,(%eax)
 5e6:	01 00                	add    %eax,(%eax)
 5e8:	00 01                	add    %al,(%ecx)
 5ea:	75 73                	jne    65f <main-0xfff9a1>
 5ec:	65                   	gs
 5ed:	72 00                	jb     5ef <main-0xfffa11>
 5ef:	00 61 75             	add    %ah,0x75(%ecx)
 5f2:	74 6f                	je     663 <main-0xfff99d>
 5f4:	73 74                	jae    66a <main-0xfff996>
 5f6:	61                   	popa   
 5f7:	63 6b 2e             	arpl   %bp,0x2e(%ebx)
 5fa:	63 00                	arpl   %ax,(%eax)
 5fc:	01 00                	add    %eax,(%eax)
 5fe:	00 00                	add    %al,(%eax)
 600:	00 05 02 7c 12 00    	add    %al,0x127c02
 606:	01 19                	add    %ebx,(%ecx)
 608:	3d 02 02 00 01       	cmp    $0x1000202,%eax
 60d:	01 e5                	add    %esp,%ebp
 60f:	00 00                	add    %al,(%eax)
 611:	00 02                	add    %al,(%edx)
 613:	00 2f                	add    %ch,(%edi)
 615:	00 00                	add    %al,(%eax)
 617:	00 01                	add    %al,(%ecx)
 619:	01 fb                	add    %edi,%ebx
 61b:	0e                   	push   %cs
 61c:	0d 00 01 01 01       	or     $0x1010100,%eax
 621:	01 00                	add    %eax,(%eax)
 623:	00 00                	add    %al,(%eax)
 625:	01 00                	add    %eax,(%eax)
 627:	00 01                	add    %al,(%ecx)
 629:	34 31                	xor    $0x31,%al
 62b:	30 75 73             	xor    %dh,0x73(%ebp)
 62e:	65                   	gs
 62f:	72 2f                	jb     660 <main-0xfff9a0>
 631:	6c                   	insb   (%dx),%es:(%edi)
 632:	69 62 78 38 36 00 00 	imul   $0x3638,0x78(%edx),%esp
 639:	67 63 63 69          	arpl   %sp,0x69(%bp,%di)
 63d:	73 6d                	jae    6ac <main-0xfff954>
 63f:	73 2e                	jae    66f <main-0xfff991>
 641:	63 00                	arpl   %ax,(%eax)
 643:	01 00                	add    %eax,(%eax)
 645:	00 00                	add    %al,(%eax)
 647:	00 05 02 90 12 00    	add    %al,0x129002
 64d:	01 03                	add    %eax,(%ebx)
 64f:	a3 02 01 cb d7       	mov    %eax,0xd7cb0102
 654:	02 27                	add    (%edi),%ah
 656:	11 cb                	adc    %ecx,%ebx
 658:	08 13                	or     %dl,(%ebx)
 65a:	03 b0 7e 82 03 0b    	add    0xb03827e(%eax),%esi
 660:	08 74 6a 08          	or     %dh,0x8(%edx,%ebp,2)
 664:	21 4b 59             	and    %ecx,0x59(%ebx)
 667:	92                   	xchg   %eax,%edx
 668:	9f                   	lahf   
 669:	08 21                	or     %ah,(%ecx)
 66b:	03 15 9e 83 c9 9f    	add    0x9fc9839e,%edx
 671:	c9                   	leave  
 672:	d8 91 91 91 9f 03    	fcoms  0x39f9191(%ecx)
 678:	0f 02 52 01          	lar    0x1(%edx),%edx
 67c:	f4                   	hlt    
 67d:	08 3e                	or     %bh,(%esi)
 67f:	08 22                	or     %ah,(%edx)
 681:	4b                   	dec    %ebx
 682:	08 21                	or     %ah,(%ecx)
 684:	08 9f 08 83 03 09    	or     %bl,0x9038308(%edi)
 68a:	02 27                	add    (%edi),%ah
 68c:	01 08                	add    %ecx,(%eax)
 68e:	c9                   	leave  
 68f:	3b f4                	cmp    %esp,%esi
 691:	f3 ab                	rep stos %eax,%es:(%edi)
 693:	84 03                	test   %al,(%ebx)
 695:	09 82 08 3d 3b f4    	or     %eax,-0xbc4c2f8(%edx)
 69b:	4b                   	dec    %ebx
 69c:	08 13                	or     %dl,(%ebx)
 69e:	08 26                	or     %ah,(%esi)
 6a0:	9f                   	lahf   
 6a1:	03 18                	add    (%eax),%ebx
 6a3:	08 c8                	or     %cl,%al
 6a5:	03 f8                	add    %eax,%edi
 6a7:	7e ac                	jle    655 <main-0xfff9ab>
 6a9:	03 fc                	add    %esp,%edi
 6ab:	00 82 91 4b 4b 6b    	add    %al,0x6b4b4b91(%edx)
 6b1:	76 92                	jbe    645 <main-0xfff9bb>
 6b3:	76 3d                	jbe    6f2 <main-0xfff90e>
 6b5:	b7 03                	mov    $0x3,%bh
 6b7:	0c 08                	or     $0x8,%al
 6b9:	20 08                	and    %cl,(%eax)
 6bb:	75 08                	jne    6c5 <main-0xfff93b>
 6bd:	21 83 08 1d bf c9    	and    %eax,-0x3640e2f8(%ebx)
 6c3:	a5                   	movsl  %ds:(%esi),%es:(%edi)
 6c4:	76 08                	jbe    6ce <main-0xfff932>
 6c6:	75 59                	jne    721 <main-0xfff8df>
 6c8:	59                   	pop    %ecx
 6c9:	39 b9 42 08 3e ad    	cmp    %edi,-0x52c1f7be(%ecx)
 6cf:	08 dd                	or     %bl,%ch
 6d1:	4b                   	dec    %ebx
 6d2:	75 9f                	jne    673 <main-0xfff98d>
 6d4:	02 32                	add    (%edx),%dh
 6d6:	11 03                	adc    %eax,(%ebx)
 6d8:	cc                   	int3   
 6d9:	7e c8                	jle    6a3 <main-0xfff95d>
 6db:	03 b7 01 4a 76 ad    	add    -0x5289b5ff(%edi),%esi
 6e1:	ad                   	lods   %ds:(%esi),%eax
 6e2:	5b                   	pop    %ebx
 6e3:	75 75                	jne    75a <main-0xfff8a6>
 6e5:	f3 03 18             	repz add (%eax),%ebx
 6e8:	82                   	(bad)  
 6e9:	69 02 28 14 a5 68    	imul   $0x68a51428,(%edx),%eax
 6ef:	02 28                	add    (%eax),%ch
 6f1:	13 02                	adc    (%edx),%eax
 6f3:	02 00                	add    (%eax),%al
 6f5:	01 01                	add    %eax,(%ecx)

Disassembly of section .debug_frame:

00000000 <.debug_frame>:
   0:	10 00                	adc    %al,(%eax)
   2:	00 00                	add    %al,(%eax)
   4:	ff                   	(bad)  
   5:	ff                   	(bad)  
   6:	ff                   	(bad)  
   7:	ff 01                	incl   (%ecx)
   9:	00 01                	add    %al,(%ecx)
   b:	7c 08                	jl     15 <main-0xffffeb>
   d:	0c 04                	or     $0x4,%al
   f:	04 88                	add    $0x88,%al
  11:	01 00                	add    %eax,(%eax)
  13:	00 1c 00             	add    %bl,(%eax,%eax,1)
	...
  1e:	00 01                	add    %al,(%ecx)
  20:	3d 00 00 00 41       	cmp    $0x41000000,%eax
  25:	0e                   	push   %cs
  26:	08 85 02 42 0d 05    	or     %al,0x50d4202(%ebp)
  2c:	79 c5                	jns    fffffff3 <_end+0xfeffd5d7>
  2e:	0c 04                	or     $0x4,%al
  30:	04 00                	add    $0x0,%al
  32:	00 00                	add    %al,(%eax)
  34:	10 00                	adc    %al,(%eax)
  36:	00 00                	add    %al,(%eax)
  38:	ff                   	(bad)  
  39:	ff                   	(bad)  
  3a:	ff                   	(bad)  
  3b:	ff 01                	incl   (%ecx)
  3d:	00 01                	add    %al,(%ecx)
  3f:	7c 08                	jl     49 <main-0xffffb7>
  41:	0c 04                	or     $0x4,%al
  43:	04 88                	add    $0x88,%al
  45:	01 00                	add    %eax,(%eax)
  47:	00 14 00             	add    %dl,(%eax,%eax,1)
  4a:	00 00                	add    %al,(%eax)
  4c:	34 00                	xor    $0x0,%al
  4e:	00 00                	add    %al,(%eax)
  50:	40                   	inc    %eax
  51:	00 00                	add    %al,(%eax)
  53:	01 32                	add    %esi,(%edx)
  55:	00 00                	add    %al,(%eax)
  57:	00 41 0e             	add    %al,0xe(%ecx)
  5a:	08 85 02 42 0d 05    	or     %al,0x50d4202(%ebp)
  60:	10 00                	adc    %al,(%eax)
  62:	00 00                	add    %al,(%eax)
  64:	ff                   	(bad)  
  65:	ff                   	(bad)  
  66:	ff                   	(bad)  
  67:	ff 01                	incl   (%ecx)
  69:	00 01                	add    %al,(%ecx)
  6b:	7c 08                	jl     75 <main-0xffff8b>
  6d:	0c 04                	or     $0x4,%al
  6f:	04 88                	add    $0x88,%al
  71:	01 00                	add    %eax,(%eax)
  73:	00 1c 00             	add    %bl,(%eax,%eax,1)
  76:	00 00                	add    %al,(%eax)
  78:	60                   	pusha  
  79:	00 00                	add    %al,(%eax)
  7b:	00 74 00 00          	add    %dh,0x0(%eax,%eax,1)
  7f:	01 14 00             	add    %edx,(%eax,%eax,1)
  82:	00 00                	add    %al,(%eax)
  84:	41                   	inc    %ecx
  85:	0e                   	push   %cs
  86:	08 85 02 42 0d 05    	or     %al,0x50d4202(%ebp)
  8c:	50                   	push   %eax
  8d:	c5 0c 04             	lds    (%esp,%eax,1),%ecx
  90:	04 00                	add    $0x0,%al
  92:	00 00                	add    %al,(%eax)
  94:	1c 00                	sbb    $0x0,%al
  96:	00 00                	add    %al,(%eax)
  98:	60                   	pusha  
  99:	00 00                	add    %al,(%eax)
  9b:	00 88 00 00 01 1b    	add    %cl,0x1b010000(%eax)
  a1:	00 00                	add    %al,(%eax)
  a3:	00 41 0e             	add    %al,0xe(%ecx)
  a6:	08 85 02 42 0d 05    	or     %al,0x50d4202(%ebp)
  ac:	57                   	push   %edi
  ad:	c5 0c 04             	lds    (%esp,%eax,1),%ecx
  b0:	04 00                	add    $0x0,%al
  b2:	00 00                	add    %al,(%eax)
  b4:	1c 00                	sbb    $0x0,%al
  b6:	00 00                	add    %al,(%eax)
  b8:	60                   	pusha  
  b9:	00 00                	add    %al,(%eax)
  bb:	00 a3 00 00 01 14    	add    %ah,0x14010000(%ebx)
  c1:	00 00                	add    %al,(%eax)
  c3:	00 41 0e             	add    %al,0xe(%ecx)
  c6:	08 85 02 42 0d 05    	or     %al,0x50d4202(%ebp)
  cc:	50                   	push   %eax
  cd:	c5 0c 04             	lds    (%esp,%eax,1),%ecx
  d0:	04 00                	add    $0x0,%al
  d2:	00 00                	add    %al,(%eax)
  d4:	1c 00                	sbb    $0x0,%al
  d6:	00 00                	add    %al,(%eax)
  d8:	60                   	pusha  
  d9:	00 00                	add    %al,(%eax)
  db:	00 b7 00 00 01 14    	add    %dh,0x14010000(%edi)
  e1:	00 00                	add    %al,(%eax)
  e3:	00 41 0e             	add    %al,0xe(%ecx)
  e6:	08 85 02 42 0d 05    	or     %al,0x50d4202(%ebp)
  ec:	50                   	push   %eax
  ed:	c5 0c 04             	lds    (%esp,%eax,1),%ecx
  f0:	04 00                	add    $0x0,%al
  f2:	00 00                	add    %al,(%eax)
  f4:	1c 00                	sbb    $0x0,%al
  f6:	00 00                	add    %al,(%eax)
  f8:	60                   	pusha  
  f9:	00 00                	add    %al,(%eax)
  fb:	00 cb                	add    %cl,%bl
  fd:	00 00                	add    %al,(%eax)
  ff:	01 14 00             	add    %edx,(%eax,%eax,1)
 102:	00 00                	add    %al,(%eax)
 104:	41                   	inc    %ecx
 105:	0e                   	push   %cs
 106:	08 85 02 42 0d 05    	or     %al,0x50d4202(%ebp)
 10c:	50                   	push   %eax
 10d:	c5 0c 04             	lds    (%esp,%eax,1),%ecx
 110:	04 00                	add    $0x0,%al
 112:	00 00                	add    %al,(%eax)
 114:	1c 00                	sbb    $0x0,%al
 116:	00 00                	add    %al,(%eax)
 118:	60                   	pusha  
 119:	00 00                	add    %al,(%eax)
 11b:	00 df                	add    %bl,%bh
 11d:	00 00                	add    %al,(%eax)
 11f:	01 1b                	add    %ebx,(%ebx)
 121:	00 00                	add    %al,(%eax)
 123:	00 41 0e             	add    %al,0xe(%ecx)
 126:	08 85 02 42 0d 05    	or     %al,0x50d4202(%ebp)
 12c:	57                   	push   %edi
 12d:	c5 0c 04             	lds    (%esp,%eax,1),%ecx
 130:	04 00                	add    $0x0,%al
 132:	00 00                	add    %al,(%eax)
 134:	1c 00                	sbb    $0x0,%al
 136:	00 00                	add    %al,(%eax)
 138:	60                   	pusha  
 139:	00 00                	add    %al,(%eax)
 13b:	00 fa                	add    %bh,%dl
 13d:	00 00                	add    %al,(%eax)
 13f:	01 14 00             	add    %edx,(%eax,%eax,1)
 142:	00 00                	add    %al,(%eax)
 144:	41                   	inc    %ecx
 145:	0e                   	push   %cs
 146:	08 85 02 42 0d 05    	or     %al,0x50d4202(%ebp)
 14c:	50                   	push   %eax
 14d:	c5 0c 04             	lds    (%esp,%eax,1),%ecx
 150:	04 00                	add    $0x0,%al
 152:	00 00                	add    %al,(%eax)
 154:	1c 00                	sbb    $0x0,%al
 156:	00 00                	add    %al,(%eax)
 158:	60                   	pusha  
 159:	00 00                	add    %al,(%eax)
 15b:	00 0e                	add    %cl,(%esi)
 15d:	01 00                	add    %eax,(%eax)
 15f:	01 14 00             	add    %edx,(%eax,%eax,1)
 162:	00 00                	add    %al,(%eax)
 164:	41                   	inc    %ecx
 165:	0e                   	push   %cs
 166:	08 85 02 42 0d 05    	or     %al,0x50d4202(%ebp)
 16c:	50                   	push   %eax
 16d:	c5 0c 04             	lds    (%esp,%eax,1),%ecx
 170:	04 00                	add    $0x0,%al
 172:	00 00                	add    %al,(%eax)
 174:	1c 00                	sbb    $0x0,%al
 176:	00 00                	add    %al,(%eax)
 178:	60                   	pusha  
 179:	00 00                	add    %al,(%eax)
 17b:	00 22                	add    %ah,(%edx)
 17d:	01 00                	add    %eax,(%eax)
 17f:	01 26                	add    %esp,(%esi)
 181:	00 00                	add    %al,(%eax)
 183:	00 41 0e             	add    %al,0xe(%ecx)
 186:	08 85 02 42 0d 05    	or     %al,0x50d4202(%ebp)
 18c:	62                   	(bad)  
 18d:	c5 0c 04             	lds    (%esp,%eax,1),%ecx
 190:	04 00                	add    $0x0,%al
 192:	00 00                	add    %al,(%eax)
 194:	20 00                	and    %al,(%eax)
 196:	00 00                	add    %al,(%eax)
 198:	60                   	pusha  
 199:	00 00                	add    %al,(%eax)
 19b:	00 48 01             	add    %cl,0x1(%eax)
 19e:	00 01                	add    %al,(%ecx)
 1a0:	3f                   	aas    
 1a1:	00 00                	add    %al,(%eax)
 1a3:	00 41 0e             	add    %al,0xe(%ecx)
 1a6:	08 85 02 42 0d 05    	or     %al,0x50d4202(%ebp)
 1ac:	63 83 03 57 c3 41    	arpl   %ax,0x41c35703(%ebx)
 1b2:	c5 0c 04             	lds    (%esp,%eax,1),%ecx
 1b5:	04 00                	add    $0x0,%al
 1b7:	00 10                	add    %dl,(%eax)
 1b9:	00 00                	add    %al,(%eax)
 1bb:	00 ff                	add    %bh,%bh
 1bd:	ff                   	(bad)  
 1be:	ff                   	(bad)  
 1bf:	ff 01                	incl   (%ecx)
 1c1:	00 01                	add    %al,(%ecx)
 1c3:	7c 08                	jl     1cd <main-0xfffe33>
 1c5:	0c 04                	or     $0x4,%al
 1c7:	04 88                	add    $0x88,%al
 1c9:	01 00                	add    %eax,(%eax)
 1cb:	00 1c 00             	add    %bl,(%eax,%eax,1)
 1ce:	00 00                	add    %al,(%eax)
 1d0:	b8 01 00 00 a0       	mov    $0xa0000001,%eax
 1d5:	01 00                	add    %eax,(%eax)
 1d7:	01 23                	add    %esp,(%ebx)
 1d9:	00 00                	add    %al,(%eax)
 1db:	00 41 0e             	add    %al,0xe(%ecx)
 1de:	08 85 02 42 0d 05    	or     %al,0x50d4202(%ebp)
 1e4:	5f                   	pop    %edi
 1e5:	c5 0c 04             	lds    (%esp,%eax,1),%ecx
 1e8:	04 00                	add    $0x0,%al
 1ea:	00 00                	add    %al,(%eax)
 1ec:	1c 00                	sbb    $0x0,%al
 1ee:	00 00                	add    %al,(%eax)
 1f0:	b8 01 00 00 c3       	mov    $0xc3000001,%eax
 1f5:	01 00                	add    %eax,(%eax)
 1f7:	01 4d 00             	add    %ecx,0x0(%ebp)
 1fa:	00 00                	add    %al,(%eax)
 1fc:	41                   	inc    %ecx
 1fd:	0e                   	push   %cs
 1fe:	08 85 02 42 0d 05    	or     %al,0x50d4202(%ebp)
 204:	02 49 c5             	add    -0x3b(%ecx),%cl
 207:	0c 04                	or     $0x4,%al
 209:	04 00                	add    $0x0,%al
 20b:	00 1c 00             	add    %bl,(%eax,%eax,1)
 20e:	00 00                	add    %al,(%eax)
 210:	b8 01 00 00 10       	mov    $0x10000001,%eax
 215:	02 00                	add    (%eax),%al
 217:	01 28                	add    %ebp,(%eax)
 219:	00 00                	add    %al,(%eax)
 21b:	00 41 0e             	add    %al,0xe(%ecx)
 21e:	08 85 02 42 0d 05    	or     %al,0x50d4202(%ebp)
 224:	64 c5 0c 04          	lds    %fs:(%esp,%eax,1),%ecx
 228:	04 00                	add    $0x0,%al
 22a:	00 00                	add    %al,(%eax)
 22c:	1c 00                	sbb    $0x0,%al
 22e:	00 00                	add    %al,(%eax)
 230:	b8 01 00 00 38       	mov    $0x38000001,%eax
 235:	02 00                	add    (%eax),%al
 237:	01 4e 00             	add    %ecx,0x0(%esi)
 23a:	00 00                	add    %al,(%eax)
 23c:	41                   	inc    %ecx
 23d:	0e                   	push   %cs
 23e:	08 85 02 42 0d 05    	or     %al,0x50d4202(%ebp)
 244:	02 4a c5             	add    -0x3b(%edx),%cl
 247:	0c 04                	or     $0x4,%al
 249:	04 00                	add    $0x0,%al
 24b:	00 1c 00             	add    %bl,(%eax,%eax,1)
 24e:	00 00                	add    %al,(%eax)
 250:	b8 01 00 00 86       	mov    $0x86000001,%eax
 255:	02 00                	add    (%eax),%al
 257:	01 21                	add    %esp,(%ecx)
 259:	00 00                	add    %al,(%eax)
 25b:	00 41 0e             	add    %al,0xe(%ecx)
 25e:	08 85 02 42 0d 05    	or     %al,0x50d4202(%ebp)
 264:	5d                   	pop    %ebp
 265:	c5 0c 04             	lds    (%esp,%eax,1),%ecx
 268:	04 00                	add    $0x0,%al
 26a:	00 00                	add    %al,(%eax)
 26c:	10 00                	adc    %al,(%eax)
 26e:	00 00                	add    %al,(%eax)
 270:	ff                   	(bad)  
 271:	ff                   	(bad)  
 272:	ff                   	(bad)  
 273:	ff 01                	incl   (%ecx)
 275:	00 01                	add    %al,(%ecx)
 277:	7c 08                	jl     281 <main-0xfffd7f>
 279:	0c 04                	or     $0x4,%al
 27b:	04 88                	add    $0x88,%al
 27d:	01 00                	add    %eax,(%eax)
 27f:	00 28                	add    %ch,(%eax)
 281:	00 00                	add    %al,(%eax)
 283:	00 6c 02 00          	add    %ch,0x0(%edx,%eax,1)
 287:	00 b0 02 00 01 55    	add    %dh,0x55010002(%eax)
 28d:	00 00                	add    %al,(%eax)
 28f:	00 41 0e             	add    %al,0xe(%ecx)
 292:	08 85 02 42 0d 05    	or     %al,0x50d4202(%ebp)
 298:	4f                   	dec    %edi
 299:	83 05 86 04 87 03 7f 	addl   $0x7f,0x3870486
 2a0:	c3                   	ret    
 2a1:	41                   	inc    %ecx
 2a2:	c6 41 c7 41          	movb   $0x41,-0x39(%ecx)
 2a6:	c5 0c 04             	lds    (%esp,%eax,1),%ecx
 2a9:	04 00                	add    $0x0,%al
 2ab:	00 28                	add    %ch,(%eax)
 2ad:	00 00                	add    %al,(%eax)
 2af:	00 6c 02 00          	add    %ch,0x0(%edx,%eax,1)
 2b3:	00 05 03 00 01 58    	add    %al,0x58010003
 2b9:	00 00                	add    %al,(%eax)
 2bb:	00 41 0e             	add    %al,0xe(%ecx)
 2be:	08 85 02 42 0d 05    	or     %al,0x50d4202(%ebp)
 2c4:	4f                   	dec    %edi
 2c5:	83 05 86 04 87 03 02 	addl   $0x2,0x3870486
 2cc:	42                   	inc    %edx
 2cd:	c3                   	ret    
 2ce:	41                   	inc    %ecx
 2cf:	c6 41 c7 41          	movb   $0x41,-0x39(%ecx)
 2d3:	c5 0c 04             	lds    (%esp,%eax,1),%ecx
 2d6:	04 00                	add    $0x0,%al
 2d8:	28 00                	sub    %al,(%eax)
 2da:	00 00                	add    %al,(%eax)
 2dc:	6c                   	insb   (%dx),%es:(%edi)
 2dd:	02 00                	add    (%eax),%al
 2df:	00 5d 03             	add    %bl,0x3(%ebp)
 2e2:	00 01                	add    %al,(%ecx)
 2e4:	25 0e 00 00 41       	and    $0x4100000e,%eax
 2e9:	0e                   	push   %cs
 2ea:	08 85 02 42 0d 05    	or     %al,0x50d4202(%ebp)
 2f0:	49                   	dec    %ecx
 2f1:	83 05 86 04 87 03 03 	addl   $0x3,0x3870486
 2f8:	15 0e c3 41 c6       	adc    $0xc641c30e,%eax
 2fd:	41                   	inc    %ecx
 2fe:	c7 41 c5 0c 04 04 10 	movl   $0x1004040c,-0x3b(%ecx)
 305:	00 00                	add    %al,(%eax)
 307:	00 ff                	add    %bh,%bh
 309:	ff                   	(bad)  
 30a:	ff                   	(bad)  
 30b:	ff 01                	incl   (%ecx)
 30d:	00 01                	add    %al,(%ecx)
 30f:	7c 08                	jl     319 <main-0xfffce7>
 311:	0c 04                	or     $0x4,%al
 313:	04 88                	add    $0x88,%al
 315:	01 00                	add    %eax,(%eax)
 317:	00 14 00             	add    %dl,(%eax,%eax,1)
 31a:	00 00                	add    %al,(%eax)
 31c:	04 03                	add    $0x3,%al
 31e:	00 00                	add    %al,(%eax)
 320:	84 11                	test   %dl,(%ecx)
 322:	00 01                	add    %al,(%ecx)
 324:	16                   	push   %ss
 325:	00 00                	add    %al,(%eax)
 327:	00 41 0e             	add    %al,0xe(%ecx)
 32a:	08 85 02 42 0d 05    	or     %al,0x50d4202(%ebp)
 330:	10 00                	adc    %al,(%eax)
 332:	00 00                	add    %al,(%eax)
 334:	ff                   	(bad)  
 335:	ff                   	(bad)  
 336:	ff                   	(bad)  
 337:	ff 01                	incl   (%ecx)
 339:	00 01                	add    %al,(%ecx)
 33b:	7c 08                	jl     345 <main-0xfffcbb>
 33d:	0c 04                	or     $0x4,%al
 33f:	04 88                	add    $0x88,%al
 341:	01 00                	add    %eax,(%eax)
 343:	00 1c 00             	add    %bl,(%eax,%eax,1)
 346:	00 00                	add    %al,(%eax)
 348:	30 03                	xor    %al,(%ebx)
 34a:	00 00                	add    %al,(%eax)
 34c:	9c                   	pushf  
 34d:	11 00                	adc    %eax,(%eax)
 34f:	01 18                	add    %ebx,(%eax)
 351:	00 00                	add    %al,(%eax)
 353:	00 41 0e             	add    %al,0xe(%ecx)
 356:	08 85 02 42 0d 05    	or     %al,0x50d4202(%ebp)
 35c:	54                   	push   %esp
 35d:	c5 0c 04             	lds    (%esp,%eax,1),%ecx
 360:	04 00                	add    $0x0,%al
 362:	00 00                	add    %al,(%eax)
 364:	10 00                	adc    %al,(%eax)
 366:	00 00                	add    %al,(%eax)
 368:	ff                   	(bad)  
 369:	ff                   	(bad)  
 36a:	ff                   	(bad)  
 36b:	ff 01                	incl   (%ecx)
 36d:	00 01                	add    %al,(%ecx)
 36f:	7c 08                	jl     379 <main-0xfffc87>
 371:	0c 04                	or     $0x4,%al
 373:	04 88                	add    $0x88,%al
 375:	01 00                	add    %eax,(%eax)
 377:	00 1c 00             	add    %bl,(%eax,%eax,1)
 37a:	00 00                	add    %al,(%eax)
 37c:	64 03 00             	add    %fs:(%eax),%eax
 37f:	00 b4 11 00 01 0a 00 	add    %dh,0xa0100(%ecx,%edx,1)
 386:	00 00                	add    %al,(%eax)
 388:	41                   	inc    %ecx
 389:	0e                   	push   %cs
 38a:	08 85 02 42 0d 05    	or     %al,0x50d4202(%ebp)
 390:	46                   	inc    %esi
 391:	c5 0c 04             	lds    (%esp,%eax,1),%ecx
 394:	04 00                	add    $0x0,%al
 396:	00 00                	add    %al,(%eax)
 398:	1c 00                	sbb    $0x0,%al
 39a:	00 00                	add    %al,(%eax)
 39c:	64 03 00             	add    %fs:(%eax),%eax
 39f:	00 be 11 00 01 05    	add    %bh,0x5010011(%esi)
 3a5:	00 00                	add    %al,(%eax)
 3a7:	00 41 0e             	add    %al,0xe(%ecx)
 3aa:	08 85 02 42 0d 05    	or     %al,0x50d4202(%ebp)
 3b0:	41                   	inc    %ecx
 3b1:	c5 0c 04             	lds    (%esp,%eax,1),%ecx
 3b4:	04 00                	add    $0x0,%al
 3b6:	00 00                	add    %al,(%eax)
 3b8:	1c 00                	sbb    $0x0,%al
 3ba:	00 00                	add    %al,(%eax)
 3bc:	64 03 00             	add    %fs:(%eax),%eax
 3bf:	00 c3                	add    %al,%bl
 3c1:	11 00                	adc    %eax,(%eax)
 3c3:	01 0a                	add    %ecx,(%edx)
 3c5:	00 00                	add    %al,(%eax)
 3c7:	00 41 0e             	add    %al,0xe(%ecx)
 3ca:	08 85 02 42 0d 05    	or     %al,0x50d4202(%ebp)
 3d0:	46                   	inc    %esi
 3d1:	c5 0c 04             	lds    (%esp,%eax,1),%ecx
 3d4:	04 00                	add    $0x0,%al
 3d6:	00 00                	add    %al,(%eax)
 3d8:	1c 00                	sbb    $0x0,%al
 3da:	00 00                	add    %al,(%eax)
 3dc:	64 03 00             	add    %fs:(%eax),%eax
 3df:	00 cd                	add    %cl,%ch
 3e1:	11 00                	adc    %eax,(%eax)
 3e3:	01 0a                	add    %ecx,(%edx)
 3e5:	00 00                	add    %al,(%eax)
 3e7:	00 41 0e             	add    %al,0xe(%ecx)
 3ea:	08 85 02 42 0d 05    	or     %al,0x50d4202(%ebp)
 3f0:	46                   	inc    %esi
 3f1:	c5 0c 04             	lds    (%esp,%eax,1),%ecx
 3f4:	04 00                	add    $0x0,%al
 3f6:	00 00                	add    %al,(%eax)
 3f8:	1c 00                	sbb    $0x0,%al
 3fa:	00 00                	add    %al,(%eax)
 3fc:	64 03 00             	add    %fs:(%eax),%eax
 3ff:	00 d7                	add    %dl,%bh
 401:	11 00                	adc    %eax,(%eax)
 403:	01 0a                	add    %ecx,(%edx)
 405:	00 00                	add    %al,(%eax)
 407:	00 41 0e             	add    %al,0xe(%ecx)
 40a:	08 85 02 42 0d 05    	or     %al,0x50d4202(%ebp)
 410:	46                   	inc    %esi
 411:	c5 0c 04             	lds    (%esp,%eax,1),%ecx
 414:	04 00                	add    $0x0,%al
 416:	00 00                	add    %al,(%eax)
 418:	1c 00                	sbb    $0x0,%al
 41a:	00 00                	add    %al,(%eax)
 41c:	64 03 00             	add    %fs:(%eax),%eax
 41f:	00 e1                	add    %ah,%cl
 421:	11 00                	adc    %eax,(%eax)
 423:	01 0a                	add    %ecx,(%edx)
 425:	00 00                	add    %al,(%eax)
 427:	00 41 0e             	add    %al,0xe(%ecx)
 42a:	08 85 02 42 0d 05    	or     %al,0x50d4202(%ebp)
 430:	46                   	inc    %esi
 431:	c5 0c 04             	lds    (%esp,%eax,1),%ecx
 434:	04 00                	add    $0x0,%al
 436:	00 00                	add    %al,(%eax)
 438:	1c 00                	sbb    $0x0,%al
 43a:	00 00                	add    %al,(%eax)
 43c:	64 03 00             	add    %fs:(%eax),%eax
 43f:	00 eb                	add    %ch,%bl
 441:	11 00                	adc    %eax,(%eax)
 443:	01 0a                	add    %ecx,(%edx)
 445:	00 00                	add    %al,(%eax)
 447:	00 41 0e             	add    %al,0xe(%ecx)
 44a:	08 85 02 42 0d 05    	or     %al,0x50d4202(%ebp)
 450:	46                   	inc    %esi
 451:	c5 0c 04             	lds    (%esp,%eax,1),%ecx
 454:	04 00                	add    $0x0,%al
 456:	00 00                	add    %al,(%eax)
 458:	1c 00                	sbb    $0x0,%al
 45a:	00 00                	add    %al,(%eax)
 45c:	64 03 00             	add    %fs:(%eax),%eax
 45f:	00 f5                	add    %dh,%ch
 461:	11 00                	adc    %eax,(%eax)
 463:	01 0a                	add    %ecx,(%edx)
 465:	00 00                	add    %al,(%eax)
 467:	00 41 0e             	add    %al,0xe(%ecx)
 46a:	08 85 02 42 0d 05    	or     %al,0x50d4202(%ebp)
 470:	46                   	inc    %esi
 471:	c5 0c 04             	lds    (%esp,%eax,1),%ecx
 474:	04 00                	add    $0x0,%al
 476:	00 00                	add    %al,(%eax)
 478:	1c 00                	sbb    $0x0,%al
 47a:	00 00                	add    %al,(%eax)
 47c:	64 03 00             	add    %fs:(%eax),%eax
 47f:	00 ff                	add    %bh,%bh
 481:	11 00                	adc    %eax,(%eax)
 483:	01 0a                	add    %ecx,(%edx)
 485:	00 00                	add    %al,(%eax)
 487:	00 41 0e             	add    %al,0xe(%ecx)
 48a:	08 85 02 42 0d 05    	or     %al,0x50d4202(%ebp)
 490:	46                   	inc    %esi
 491:	c5 0c 04             	lds    (%esp,%eax,1),%ecx
 494:	04 00                	add    $0x0,%al
 496:	00 00                	add    %al,(%eax)
 498:	1c 00                	sbb    $0x0,%al
 49a:	00 00                	add    %al,(%eax)
 49c:	64 03 00             	add    %fs:(%eax),%eax
 49f:	00 09                	add    %cl,(%ecx)
 4a1:	12 00                	adc    (%eax),%al
 4a3:	01 0a                	add    %ecx,(%edx)
 4a5:	00 00                	add    %al,(%eax)
 4a7:	00 41 0e             	add    %al,0xe(%ecx)
 4aa:	08 85 02 42 0d 05    	or     %al,0x50d4202(%ebp)
 4b0:	46                   	inc    %esi
 4b1:	c5 0c 04             	lds    (%esp,%eax,1),%ecx
 4b4:	04 00                	add    $0x0,%al
 4b6:	00 00                	add    %al,(%eax)
 4b8:	1c 00                	sbb    $0x0,%al
 4ba:	00 00                	add    %al,(%eax)
 4bc:	64 03 00             	add    %fs:(%eax),%eax
 4bf:	00 13                	add    %dl,(%ebx)
 4c1:	12 00                	adc    (%eax),%al
 4c3:	01 0a                	add    %ecx,(%edx)
 4c5:	00 00                	add    %al,(%eax)
 4c7:	00 41 0e             	add    %al,0xe(%ecx)
 4ca:	08 85 02 42 0d 05    	or     %al,0x50d4202(%ebp)
 4d0:	46                   	inc    %esi
 4d1:	c5 0c 04             	lds    (%esp,%eax,1),%ecx
 4d4:	04 00                	add    $0x0,%al
 4d6:	00 00                	add    %al,(%eax)
 4d8:	1c 00                	sbb    $0x0,%al
 4da:	00 00                	add    %al,(%eax)
 4dc:	64 03 00             	add    %fs:(%eax),%eax
 4df:	00 1d 12 00 01 0a    	add    %bl,0xa010012
 4e5:	00 00                	add    %al,(%eax)
 4e7:	00 41 0e             	add    %al,0xe(%ecx)
 4ea:	08 85 02 42 0d 05    	or     %al,0x50d4202(%ebp)
 4f0:	46                   	inc    %esi
 4f1:	c5 0c 04             	lds    (%esp,%eax,1),%ecx
 4f4:	04 00                	add    $0x0,%al
 4f6:	00 00                	add    %al,(%eax)
 4f8:	1c 00                	sbb    $0x0,%al
 4fa:	00 00                	add    %al,(%eax)
 4fc:	64 03 00             	add    %fs:(%eax),%eax
 4ff:	00 27                	add    %ah,(%edi)
 501:	12 00                	adc    (%eax),%al
 503:	01 0a                	add    %ecx,(%edx)
 505:	00 00                	add    %al,(%eax)
 507:	00 41 0e             	add    %al,0xe(%ecx)
 50a:	08 85 02 42 0d 05    	or     %al,0x50d4202(%ebp)
 510:	46                   	inc    %esi
 511:	c5 0c 04             	lds    (%esp,%eax,1),%ecx
 514:	04 00                	add    $0x0,%al
 516:	00 00                	add    %al,(%eax)
 518:	1c 00                	sbb    $0x0,%al
 51a:	00 00                	add    %al,(%eax)
 51c:	64 03 00             	add    %fs:(%eax),%eax
 51f:	00 31                	add    %dh,(%ecx)
 521:	12 00                	adc    (%eax),%al
 523:	01 0a                	add    %ecx,(%edx)
 525:	00 00                	add    %al,(%eax)
 527:	00 41 0e             	add    %al,0xe(%ecx)
 52a:	08 85 02 42 0d 05    	or     %al,0x50d4202(%ebp)
 530:	46                   	inc    %esi
 531:	c5 0c 04             	lds    (%esp,%eax,1),%ecx
 534:	04 00                	add    $0x0,%al
 536:	00 00                	add    %al,(%eax)
 538:	14 00                	adc    $0x0,%al
 53a:	00 00                	add    %al,(%eax)
 53c:	64 03 00             	add    %fs:(%eax),%eax
 53f:	00 3b                	add    %bh,(%ebx)
 541:	12 00                	adc    (%eax),%al
 543:	01 05 00 00 00 41    	add    %eax,0x41000000
 549:	0e                   	push   %cs
 54a:	08 85 02 42 0d 05    	or     %al,0x50d4202(%ebp)
 550:	1c 00                	sbb    $0x0,%al
 552:	00 00                	add    %al,(%eax)
 554:	64 03 00             	add    %fs:(%eax),%eax
 557:	00 40 12             	add    %al,0x12(%eax)
 55a:	00 01                	add    %al,(%ecx)
 55c:	0a 00                	or     (%eax),%al
 55e:	00 00                	add    %al,(%eax)
 560:	41                   	inc    %ecx
 561:	0e                   	push   %cs
 562:	08 85 02 42 0d 05    	or     %al,0x50d4202(%ebp)
 568:	46                   	inc    %esi
 569:	c5 0c 04             	lds    (%esp,%eax,1),%ecx
 56c:	04 00                	add    $0x0,%al
 56e:	00 00                	add    %al,(%eax)
 570:	14 00                	adc    $0x0,%al
 572:	00 00                	add    %al,(%eax)
 574:	64 03 00             	add    %fs:(%eax),%eax
 577:	00 4a 12             	add    %cl,0x12(%edx)
 57a:	00 01                	add    %al,(%ecx)
 57c:	05 00 00 00 41       	add    $0x41000000,%eax
 581:	0e                   	push   %cs
 582:	08 85 02 42 0d 05    	or     %al,0x50d4202(%ebp)
 588:	1c 00                	sbb    $0x0,%al
 58a:	00 00                	add    %al,(%eax)
 58c:	64 03 00             	add    %fs:(%eax),%eax
 58f:	00 4f 12             	add    %cl,0x12(%edi)
 592:	00 01                	add    %al,(%ecx)
 594:	0a 00                	or     (%eax),%al
 596:	00 00                	add    %al,(%eax)
 598:	41                   	inc    %ecx
 599:	0e                   	push   %cs
 59a:	08 85 02 42 0d 05    	or     %al,0x50d4202(%ebp)
 5a0:	46                   	inc    %esi
 5a1:	c5 0c 04             	lds    (%esp,%eax,1),%ecx
 5a4:	04 00                	add    $0x0,%al
 5a6:	00 00                	add    %al,(%eax)
 5a8:	1c 00                	sbb    $0x0,%al
 5aa:	00 00                	add    %al,(%eax)
 5ac:	64 03 00             	add    %fs:(%eax),%eax
 5af:	00 59 12             	add    %bl,0x12(%ecx)
 5b2:	00 01                	add    %al,(%ecx)
 5b4:	0a 00                	or     (%eax),%al
 5b6:	00 00                	add    %al,(%eax)
 5b8:	41                   	inc    %ecx
 5b9:	0e                   	push   %cs
 5ba:	08 85 02 42 0d 05    	or     %al,0x50d4202(%ebp)
 5c0:	46                   	inc    %esi
 5c1:	c5 0c 04             	lds    (%esp,%eax,1),%ecx
 5c4:	04 00                	add    $0x0,%al
 5c6:	00 00                	add    %al,(%eax)
 5c8:	1c 00                	sbb    $0x0,%al
 5ca:	00 00                	add    %al,(%eax)
 5cc:	64 03 00             	add    %fs:(%eax),%eax
 5cf:	00 63 12             	add    %ah,0x12(%ebx)
 5d2:	00 01                	add    %al,(%ecx)
 5d4:	0a 00                	or     (%eax),%al
 5d6:	00 00                	add    %al,(%eax)
 5d8:	41                   	inc    %ecx
 5d9:	0e                   	push   %cs
 5da:	08 85 02 42 0d 05    	or     %al,0x50d4202(%ebp)
 5e0:	46                   	inc    %esi
 5e1:	c5 0c 04             	lds    (%esp,%eax,1),%ecx
 5e4:	04 00                	add    $0x0,%al
 5e6:	00 00                	add    %al,(%eax)
 5e8:	1c 00                	sbb    $0x0,%al
 5ea:	00 00                	add    %al,(%eax)
 5ec:	64 03 00             	add    %fs:(%eax),%eax
 5ef:	00 6d 12             	add    %ch,0x12(%ebp)
 5f2:	00 01                	add    %al,(%ecx)
 5f4:	05 00 00 00 41       	add    $0x41000000,%eax
 5f9:	0e                   	push   %cs
 5fa:	08 85 02 42 0d 05    	or     %al,0x50d4202(%ebp)
 600:	41                   	inc    %ecx
 601:	c5 0c 04             	lds    (%esp,%eax,1),%ecx
 604:	04 00                	add    $0x0,%al
 606:	00 00                	add    %al,(%eax)
 608:	10 00                	adc    %al,(%eax)
 60a:	00 00                	add    %al,(%eax)
 60c:	ff                   	(bad)  
 60d:	ff                   	(bad)  
 60e:	ff                   	(bad)  
 60f:	ff 01                	incl   (%ecx)
 611:	00 01                	add    %al,(%ecx)
 613:	7c 08                	jl     61d <main-0xfff9e3>
 615:	0c 04                	or     $0x4,%al
 617:	04 88                	add    $0x88,%al
 619:	01 00                	add    %eax,(%eax)
 61b:	00 1c 00             	add    %bl,(%eax,%eax,1)
 61e:	00 00                	add    %al,(%eax)
 620:	08 06                	or     %al,(%esi)
 622:	00 00                	add    %al,(%eax)
 624:	7c 12                	jl     638 <main-0xfff9c8>
 626:	00 01                	add    %al,(%ecx)
 628:	05 00 00 00 41       	add    $0x41000000,%eax
 62d:	0e                   	push   %cs
 62e:	08 85 02 42 0d 05    	or     %al,0x50d4202(%ebp)
 634:	41                   	inc    %ecx
 635:	c5 0c 04             	lds    (%esp,%eax,1),%ecx
 638:	04 00                	add    $0x0,%al
 63a:	00 00                	add    %al,(%eax)
 63c:	10 00                	adc    %al,(%eax)
 63e:	00 00                	add    %al,(%eax)
 640:	ff                   	(bad)  
 641:	ff                   	(bad)  
 642:	ff                   	(bad)  
 643:	ff 01                	incl   (%ecx)
 645:	00 01                	add    %al,(%ecx)
 647:	7c 08                	jl     651 <main-0xfff9af>
 649:	0c 04                	or     $0x4,%al
 64b:	04 88                	add    $0x88,%al
 64d:	01 00                	add    %eax,(%eax)
 64f:	00 28                	add    %ch,(%eax)
 651:	00 00                	add    %al,(%eax)
 653:	00 3c 06             	add    %bh,(%esi,%eax,1)
 656:	00 00                	add    %al,(%eax)
 658:	90                   	nop
 659:	12 00                	adc    (%eax),%al
 65b:	01 68 00             	add    %ebp,0x0(%eax)
 65e:	00 00                	add    %al,(%eax)
 660:	41                   	inc    %ecx
 661:	0e                   	push   %cs
 662:	08 85 02 42 0d 05    	or     %al,0x50d4202(%ebp)
 668:	48                   	dec    %eax
 669:	83 05 86 04 87 03 02 	addl   $0x2,0x3870486
 670:	59                   	pop    %ecx
 671:	c3                   	ret    
 672:	41                   	inc    %ecx
 673:	c6 41 c7 41          	movb   $0x41,-0x39(%ecx)
 677:	c5 0c 04             	lds    (%esp,%eax,1),%ecx
 67a:	04 00                	add    $0x0,%al
 67c:	28 00                	sub    %al,(%eax)
 67e:	00 00                	add    %al,(%eax)
 680:	3c 06                	cmp    $0x6,%al
 682:	00 00                	add    %al,(%eax)
 684:	f8                   	clc    
 685:	12 00                	adc    (%eax),%al
 687:	01 74 04 00          	add    %esi,0x0(%esp,%eax,1)
 68b:	00 41 0e             	add    %al,0xe(%ecx)
 68e:	08 85 02 42 0d 05    	or     %al,0x50d4202(%ebp)
 694:	49                   	dec    %ecx
 695:	83 05 86 04 87 03 03 	addl   $0x3,0x3870486
 69c:	64                   	fs
 69d:	04 c3                	add    $0xc3,%al
 69f:	41                   	inc    %ecx
 6a0:	c6 41 c7 41          	movb   $0x41,-0x39(%ecx)
 6a4:	c5 0c 04             	lds    (%esp,%eax,1),%ecx
 6a7:	04 1c                	add    $0x1c,%al
 6a9:	00 00                	add    %al,(%eax)
 6ab:	00 3c 06             	add    %bh,(%esi,%eax,1)
 6ae:	00 00                	add    %al,(%eax)
 6b0:	6c                   	insb   (%dx),%es:(%edi)
 6b1:	17                   	pop    %ss
 6b2:	00 01                	add    %al,(%ecx)
 6b4:	38 00                	cmp    %al,(%eax)
 6b6:	00 00                	add    %al,(%eax)
 6b8:	41                   	inc    %ecx
 6b9:	0e                   	push   %cs
 6ba:	08 85 02 42 0d 05    	or     %al,0x50d4202(%ebp)
 6c0:	74 c5                	je     687 <main-0xfff979>
 6c2:	0c 04                	or     $0x4,%al
 6c4:	04 00                	add    $0x0,%al
 6c6:	00 00                	add    %al,(%eax)
 6c8:	1c 00                	sbb    $0x0,%al
 6ca:	00 00                	add    %al,(%eax)
 6cc:	3c 06                	cmp    $0x6,%al
 6ce:	00 00                	add    %al,(%eax)
 6d0:	a4                   	movsb  %ds:(%esi),%es:(%edi)
 6d1:	17                   	pop    %ss
 6d2:	00 01                	add    %al,(%ecx)
 6d4:	30 00                	xor    %al,(%eax)
 6d6:	00 00                	add    %al,(%eax)
 6d8:	41                   	inc    %ecx
 6d9:	0e                   	push   %cs
 6da:	08 85 02 42 0d 05    	or     %al,0x50d4202(%ebp)
 6e0:	6c                   	insb   (%dx),%es:(%edi)
 6e1:	c5 0c 04             	lds    (%esp,%eax,1),%ecx
 6e4:	04 00                	add    $0x0,%al
	...

Disassembly of section .debug_str:

00000000 <.debug_str>:
   0:	6e                   	outsb  %ds:(%esi),(%dx)
   1:	75 6d                	jne    70 <main-0xffff90>
   3:	5f                   	pop    %edi
   4:	74 69                	je     6f <main-0xffff91>
   6:	63 6b 73             	arpl   %bp,0x73(%ebx)
   9:	00 75 73             	add    %dh,0x73(%ebp)
   c:	65                   	gs
   d:	72 2f                	jb     3e <main-0xffffc2>
   f:	70 72                	jo     83 <main-0xffff7d>
  11:	6f                   	outsl  %ds:(%esi),(%dx)
  12:	67 73 2f             	addr16 jae 44 <main-0xffffbc>
  15:	74 65                	je     7c <main-0xffff84>
  17:	73 74                	jae    8d <main-0xffff73>
  19:	31 2e                	xor    %ebp,(%esi)
  1b:	63 00                	arpl   %ax,(%eax)
  1d:	47                   	inc    %edi
  1e:	4e                   	dec    %esi
  1f:	55                   	push   %ebp
  20:	20 43 20             	and    %al,0x20(%ebx)
  23:	34 2e                	xor    $0x2e,%al
  25:	34 2e                	xor    $0x2e,%al
  27:	36 20 32             	and    %dh,%ss:(%edx)
  2a:	30 31                	xor    %dh,(%ecx)
  2c:	32 30                	xor    (%eax),%dh
  2e:	33 30                	xor    (%eax),%esi
  30:	35 20 28 52 65       	xor    $0x65522820,%eax
  35:	64 20 48 61          	and    %cl,%fs:0x61(%eax)
  39:	74 20                	je     5b <main-0xffffa5>
  3b:	34 2e                	xor    $0x2e,%al
  3d:	34 2e                	xor    $0x2e,%al
  3f:	36                   	ss
  40:	2d 34 29 00 2f       	sub    $0x2f002934,%eax
  45:	61                   	popa   
  46:	66                   	data16
  47:	73 2f                	jae    78 <main-0xffff88>
  49:	61                   	popa   
  4a:	6e                   	outsb  %ds:(%esi),(%dx)
  4b:	64                   	fs
  4c:	72 65                	jb     b3 <main-0xffff4d>
  4e:	77 2e                	ja     7e <main-0xffff82>
  50:	63 6d 75             	arpl   %bp,0x75(%ebp)
  53:	2e                   	cs
  54:	65                   	gs
  55:	64                   	fs
  56:	75 2f                	jne    87 <main-0xffff79>
  58:	75 73                	jne    cd <main-0xffff33>
  5a:	72 32                	jb     8e <main-0xffff72>
  5c:	33 2f                	xor    (%edi),%ebp
  5e:	61                   	popa   
  5f:	6e                   	outsb  %ds:(%esi),(%dx)
  60:	6b 75 72 73          	imul   $0x73,0x72(%ebp),%esi
  64:	68 61 2f 44 65       	push   $0x65442f61
  69:	73 6b                	jae    d6 <main-0xffff2a>
  6b:	74 6f                	je     dc <main-0xffff24>
  6d:	70 2f                	jo     9e <main-0xffff62>
  6f:	73 74                	jae    e5 <main-0xffff1b>
  71:	75 64                	jne    d7 <main-0xffff29>
  73:	69 65 73 2f 31 35 34 	imul   $0x3435312f,0x73(%ebp),%esp
  7a:	31 30                	xor    %esi,(%eax)
  7c:	2f                   	das    
  7d:	50                   	push   %eax
  7e:	32 2f                	xor    (%edi),%ch
  80:	70 32                	jo     b4 <main-0xffff4c>
  82:	00 5f 6d             	add    %bl,0x6d(%edi)
  85:	61                   	popa   
  86:	69 6e 00 34 31 30 75 	imul   $0x75303134,0x0(%esi),%ebp
  8d:	73 65                	jae    f4 <main-0xffff0c>
  8f:	72 2f                	jb     c0 <main-0xffff40>
  91:	63 72 74             	arpl   %si,0x74(%edx)
  94:	30 2e                	xor    %ch,(%esi)
  96:	63 00                	arpl   %ax,(%eax)
  98:	73 74                	jae    10e <main-0xfffef2>
  9a:	61                   	popa   
  9b:	63 6b 5f             	arpl   %bp,0x5f(%ebx)
  9e:	68 69 67 68 00       	push   $0x686769
  a3:	61                   	popa   
  a4:	72 67                	jb     10d <main-0xfffef3>
  a6:	63 00                	arpl   %ax,(%eax)
  a8:	73 74                	jae    11e <main-0xfffee2>
  aa:	61                   	popa   
  ab:	63 6b 5f             	arpl   %bp,0x5f(%ebx)
  ae:	6c                   	insb   (%dx),%es:(%edi)
  af:	6f                   	outsl  %ds:(%esi),(%dx)
  b0:	77 00                	ja     b2 <main-0xffff4e>
  b2:	61                   	popa   
  b3:	72 67                	jb     11c <main-0xfffee4>
  b5:	76 00                	jbe    b7 <main-0xffff49>
  b7:	5f                   	pop    %edi
  b8:	5f                   	pop    %edi
  b9:	62 75 69             	bound  %esi,0x69(%ebp)
  bc:	6c                   	insb   (%dx),%es:(%edi)
  bd:	74 69                	je     128 <main-0xfffed8>
  bf:	6e                   	outsb  %ds:(%esi),(%dx)
  c0:	5f                   	pop    %edi
  c1:	76 61                	jbe    124 <main-0xfffedc>
  c3:	5f                   	pop    %edi
  c4:	6c                   	insb   (%dx),%es:(%edi)
  c5:	69 73 74 00 6d 61 67 	imul   $0x67616d00,0x74(%ebx),%esi
  cc:	69 63 5f 72 65 61 64 	imul   $0x64616572,0x5f(%ebx),%esp
  d3:	6c                   	insb   (%dx),%es:(%edi)
  d4:	69 6e 65 00 73 69 6d 	imul   $0x6d697300,0x65(%esi),%ebp
  db:	5f                   	pop    %edi
  dc:	70 75                	jo     153 <main-0xfffead>
  de:	74 73                	je     153 <main-0xfffead>
  e0:	00 73 69             	add    %dh,0x69(%ebx)
  e3:	6d                   	insl   (%dx),%es:(%edi)
  e4:	5f                   	pop    %edi
  e5:	69 6e 5f 73 69 6d 69 	imul   $0x696d6973,0x5f(%esi),%ebp
  ec:	63 73 00             	arpl   %si,0x0(%ebx)
  ef:	73 69                	jae    15a <main-0xfffea6>
  f1:	6d                   	insl   (%dx),%es:(%edi)
  f2:	5f                   	pop    %edi
  f3:	68 61 6c 74 00       	push   $0x746c61
  f8:	73 69                	jae    163 <main-0xfffe9d>
  fa:	6d                   	insl   (%dx),%es:(%edi)
  fb:	5f                   	pop    %edi
  fc:	66                   	data16
  fd:	72 5f                	jb     15e <main-0xfffea2>
  ff:	70 72                	jo     173 <main-0xfffe8d>
 101:	6f                   	outsl  %ds:(%esi),(%dx)
 102:	67 00 34             	add    %dh,(%si)
 105:	31 30                	xor    %esi,(%eax)
 107:	75 73                	jne    17c <main-0xfffe84>
 109:	65                   	gs
 10a:	72 2f                	jb     13b <main-0xfffec5>
 10c:	6c                   	insb   (%dx),%es:(%edi)
 10d:	69 62 73 69 6d 69 63 	imul   $0x63696d69,0x73(%edx),%esp
 114:	73 2f                	jae    145 <main-0xfffebb>
 116:	73 69                	jae    181 <main-0xfffe7f>
 118:	6d                   	insl   (%dx),%es:(%edi)
 119:	69 63 73 5f 63 2e 63 	imul   $0x632e635f,0x73(%ebx),%esp
 120:	00 73 69             	add    %dh,0x69(%ebx)
 123:	6d                   	insl   (%dx),%es:(%edi)
 124:	5f                   	pop    %edi
 125:	6d                   	insl   (%dx),%es:(%edi)
 126:	65                   	gs
 127:	6d                   	insl   (%dx),%es:(%edi)
 128:	73 69                	jae    193 <main-0xfffe6d>
 12a:	7a 65                	jp     191 <main-0xfffe6f>
 12c:	00 73 69             	add    %dh,0x69(%ebx)
 12f:	6d                   	insl   (%dx),%es:(%edi)
 130:	5f                   	pop    %edi
 131:	70 72                	jo     1a5 <main-0xfffe5b>
 133:	69 6e 74 66 00 73 69 	imul   $0x69730066,0x74(%esi),%ebp
 13a:	6d                   	insl   (%dx),%es:(%edi)
 13b:	5f                   	pop    %edi
 13c:	63 6b 31             	arpl   %bp,0x31(%ebx)
 13f:	00 73 69             	add    %dh,0x69(%ebx)
 142:	6d                   	insl   (%dx),%es:(%edi)
 143:	5f                   	pop    %edi
 144:	66                   	data16
 145:	72 5f                	jb     1a6 <main-0xfffe5a>
 147:	68 65 72 65 00       	push   $0x657265
 14c:	73 69                	jae    1b7 <main-0xfffe49>
 14e:	6d                   	insl   (%dx),%es:(%edi)
 14f:	5f                   	pop    %edi
 150:	62 72 65             	bound  %esi,0x65(%edx)
 153:	61                   	popa   
 154:	6b 70 6f 69          	imul   $0x69,0x6f(%eax),%esi
 158:	6e                   	outsb  %ds:(%esi),(%dx)
 159:	74 00                	je     15b <main-0xfffea5>
 15b:	34 31                	xor    $0x31,%al
 15d:	30 75 73             	xor    %dh,0x73(%ebp)
 160:	65                   	gs
 161:	72 2f                	jb     192 <main-0xfffe6e>
 163:	6c                   	insb   (%dx),%es:(%edi)
 164:	69 62 73 74 64 69 6f 	imul   $0x6f696474,0x73(%edx),%esp
 16b:	2f                   	das    
 16c:	73 70                	jae    1de <main-0xfffe22>
 16e:	72 69                	jb     1d9 <main-0xfffe27>
 170:	6e                   	outsb  %ds:(%esi),(%dx)
 171:	74 66                	je     1d9 <main-0xfffe27>
 173:	2e 63 00             	arpl   %ax,%cs:(%eax)
 176:	76 73                	jbe    1eb <main-0xfffe15>
 178:	70 72                	jo     1ec <main-0xfffe14>
 17a:	69 6e 74 66 00 76 73 	imul   $0x73760066,0x74(%esi),%ebp
 181:	6e                   	outsb  %ds:(%esi),(%dx)
 182:	70 72                	jo     1f6 <main-0xfffe0a>
 184:	69 6e 74 66 00 73 61 	imul   $0x61730066,0x74(%esi),%ebp
 18b:	76 65                	jbe    1f2 <main-0xfffe0e>
 18d:	63 68 61             	arpl   %bp,0x61(%eax)
 190:	72 00                	jb     192 <main-0xfffe6e>
 192:	73 70                	jae    204 <main-0xfffdfc>
 194:	72 69                	jb     1ff <main-0xfffe01>
 196:	6e                   	outsb  %ds:(%esi),(%dx)
 197:	74 66                	je     1ff <main-0xfffe01>
 199:	5f                   	pop    %edi
 19a:	73 74                	jae    210 <main-0xfffdf0>
 19c:	61                   	popa   
 19d:	74 65                	je     204 <main-0xfffdfc>
 19f:	00 61 72             	add    %ah,0x72(%ecx)
 1a2:	67 73 00             	addr16 jae 1a5 <main-0xfffe5b>
 1a5:	6c                   	insb   (%dx),%es:(%edi)
 1a6:	6f                   	outsl  %ds:(%esi),(%dx)
 1a7:	6e                   	outsb  %ds:(%esi),(%dx)
 1a8:	67 20 6c 6f          	and    %ch,0x6f(%si)
 1ac:	6e                   	outsb  %ds:(%esi),(%dx)
 1ad:	67 20 69 6e          	and    %ch,0x6e(%bx,%di)
 1b1:	74 00                	je     1b3 <main-0xfffe4d>
 1b3:	62 6f 6f             	bound  %ebp,0x6f(%edi)
 1b6:	6c                   	insb   (%dx),%es:(%edi)
 1b7:	65                   	gs
 1b8:	61                   	popa   
 1b9:	6e                   	outsb  %ds:(%esi),(%dx)
 1ba:	5f                   	pop    %edi
 1bb:	74 00                	je     1bd <main-0xfffe43>
 1bd:	74 69                	je     228 <main-0xfffdd8>
 1bf:	64                   	fs
 1c0:	5f                   	pop    %edi
 1c1:	74 00                	je     1c3 <main-0xfffe3d>
 1c3:	70 75                	jo     23a <main-0xfffdc6>
 1c5:	74 63                	je     22a <main-0xfffdd6>
 1c7:	5f                   	pop    %edi
 1c8:	61                   	popa   
 1c9:	72 67                	jb     232 <main-0xfffdce>
 1cb:	00 70 72             	add    %dh,0x72(%eax)
 1ce:	69 6e 74 5f 73 69 67 	imul   $0x6769735f,0x74(%esi),%ebp
 1d5:	6e                   	outsb  %ds:(%esi),(%dx)
 1d6:	65 64 00 72 61       	gs add %dh,%fs:%gs:0x61(%edx)
 1db:	64 69 78 00 61 6c 74 	imul   $0x66746c61,%fs:0x0(%eax),%edi
 1e2:	66 
 1e3:	6d                   	insl   (%dx),%es:(%edi)
 1e4:	74 00                	je     1e6 <main-0xfffe1a>
 1e6:	64 69 67 69 74 73 00 	imul   $0x64007374,%fs:0x69(%edi),%esp
 1ed:	64 
 1ee:	69 67 73 00 70 61 64 	imul   $0x64617000,0x73(%edi),%esp
 1f5:	63 00                	arpl   %ax,(%eax)
 1f7:	70 72                	jo     26b <main-0xfffd95>
 1f9:	69 6e 74 5f 75 6e 73 	imul   $0x736e755f,0x74(%esi),%ebp
 200:	69 67 6e 65 64 00 6c 	imul   $0x6c006465,0x6e(%edi),%esp
 207:	61                   	popa   
 208:	64                   	fs
 209:	6a 75                	push   $0x75
 20b:	73 74                	jae    281 <main-0xfffd7f>
 20d:	00 46 41             	add    %al,0x41(%esi)
 210:	4c                   	dec    %esp
 211:	53                   	push   %ebx
 212:	45                   	inc    %ebp
 213:	00 70 72             	add    %dh,0x72(%eax)
 216:	65 63 00             	arpl   %ax,%gs:(%eax)
 219:	76 65                	jbe    280 <main-0xfffd80>
 21b:	72 73                	jb     290 <main-0xfffd70>
 21d:	69 6f 6e 5f 6c 6f 77 	imul   $0x776f6c5f,0x6e(%edi),%ebp
 224:	00 6c 68 5f          	add    %ch,0x5f(%eax,%ebp,2)
 228:	74 00                	je     22a <main-0xfffdd6>
 22a:	70 72                	jo     29e <main-0xfffd62>
 22c:	65 66 69 78 00 76 65 	imul   $0x6576,%gs:0x0(%eax),%di
 233:	72 73                	jb     2a8 <main-0xfffd58>
 235:	69 6f 6e 5f 68 69 67 	imul   $0x6769685f,0x6e(%edi),%ebp
 23c:	68 00 34 31 30       	push   $0x30313400
 241:	75 73                	jne    2b6 <main-0xfffd4a>
 243:	65                   	gs
 244:	72 2f                	jb     275 <main-0xfffd8b>
 246:	6c                   	insb   (%dx),%es:(%edi)
 247:	69 62 73 74 64 69 6f 	imul   $0x6f696474,0x73(%edx),%esp
 24e:	2f                   	das    
 24f:	64 6f                	outsl  %fs:(%esi),(%dx)
 251:	70 72                	jo     2c5 <main-0xfffd3b>
 253:	6e                   	outsb  %ds:(%esi),(%dx)
 254:	74 2e                	je     284 <main-0xfffd7c>
 256:	63 00                	arpl   %ax,(%eax)
 258:	70 6c                	jo     2c6 <main-0xfffd3a>
 25a:	75 73                	jne    2cf <main-0xfffd31>
 25c:	5f                   	pop    %edi
 25d:	73 69                	jae    2c8 <main-0xfffd38>
 25f:	67 6e                	outsb  %ds:(%si),(%dx)
 261:	00 5f 64             	add    %bl,0x64(%edi)
 264:	6f                   	outsl  %ds:(%esi),(%dx)
 265:	70 72                	jo     2d9 <main-0xfffd27>
 267:	6e                   	outsb  %ds:(%esi),(%dx)
 268:	74 00                	je     26a <main-0xfffd96>
 26a:	62 61 73             	bound  %esp,0x73(%ecx)
 26d:	65 00 73 69          	add    %dh,%gs:0x69(%ebx)
 271:	67 6e                	outsb  %ds:(%si),(%dx)
 273:	5f                   	pop    %edi
 274:	63 68 61             	arpl   %bp,0x61(%eax)
 277:	72 00                	jb     279 <main-0xfffd87>
 279:	6e                   	outsb  %ds:(%esi),(%dx)
 27a:	65                   	gs
 27b:	73 74                	jae    2f1 <main-0xfffd0f>
 27d:	00 63 68             	add    %ah,0x68(%ebx)
 280:	69 65 66 00 70 72 69 	imul   $0x69727000,0x66(%ebp),%esp
 287:	6e                   	outsb  %ds:(%esi),(%dx)
 288:	74 6e                	je     2f8 <main-0xfffd08>
 28a:	75 6d                	jne    2f9 <main-0xfffd07>
 28c:	5f                   	pop    %edi
 28d:	31 36                	xor    %esi,(%esi)
 28f:	00 5f 64             	add    %bl,0x64(%edi)
 292:	6f                   	outsl  %ds:(%esi),(%dx)
 293:	70 72                	jo     307 <main-0xfffcf9>
 295:	6e                   	outsb  %ds:(%esi),(%dx)
 296:	74 5f                	je     2f7 <main-0xfffd09>
 298:	74 72                	je     30c <main-0xfffcf4>
 29a:	75 6e                	jne    30a <main-0xfffcf6>
 29c:	63 61 74             	arpl   %sp,0x74(%ecx)
 29f:	65                   	gs
 2a0:	73 00                	jae    2a2 <main-0xfffd5e>
 2a2:	70 72                	jo     316 <main-0xfffcea>
 2a4:	69 6e 74 6e 75 6d 00 	imul   $0x6d756e,0x74(%esi),%ebp
 2ab:	70 75                	jo     322 <main-0xfffcde>
 2ad:	74 63                	je     312 <main-0xfffcee>
 2af:	00 54 52 55          	add    %dl,0x55(%edx,%edx,2)
 2b3:	45                   	inc    %ebp
 2b4:	00 74 61 73          	add    %dh,0x73(%ecx,%eiz,2)
 2b8:	6b 00 74             	imul   $0x74,(%eax),%eax
 2bb:	72 75                	jb     332 <main-0xfffcce>
 2bd:	6e                   	outsb  %ds:(%esi),(%dx)
 2be:	63 61 74             	arpl   %sp,0x74(%ecx)
 2c1:	65 00 70 72          	add    %dh,%gs:0x72(%eax)
 2c5:	69 6e 74 5f 6e 75 6d 	imul   $0x6d756e5f,0x74(%esi),%ebp
 2cc:	00 6c 6f 6e          	add    %ch,0x6e(%edi,%ebp,2)
 2d0:	67 6f                	outsl  %ds:(%si),(%dx)
 2d2:	70 74                	jo     348 <main-0xfffcb8>
 2d4:	00 6c 74 68          	add    %ch,0x68(%esp,%esi,2)
 2d8:	72 65                	jb     33f <main-0xfffcc1>
 2da:	61                   	popa   
 2db:	64 00 6c 65 6e       	add    %ch,%fs:0x6e(%ebp,%eiz,2)
 2e0:	67 74 68             	addr16 je 34b <main-0xfffcb5>
 2e3:	00 6c 6f 6e          	add    %ch,0x6e(%edi,%ebp,2)
 2e7:	67 20 6c 6f          	and    %ch,0x6f(%si)
 2eb:	6e                   	outsb  %ds:(%esi),(%dx)
 2ec:	67 20 75 6e          	and    %dh,0x6e(%di)
 2f0:	73 69                	jae    35b <main-0xfffca5>
 2f2:	67 6e                	outsb  %ds:(%si),(%dx)
 2f4:	65 64 20 69 6e       	gs and %ch,%fs:%gs:0x6e(%ecx)
 2f9:	74 00                	je     2fb <main-0xfffd05>
 2fb:	73 69                	jae    366 <main-0xfffc9a>
 2fd:	74 65                	je     364 <main-0xfffc9c>
 2ff:	00 65 78             	add    %ah,0x78(%ebp)
 302:	69 74 00 34 31 30 75 	imul   $0x73753031,0x34(%eax,%eax,1),%esi
 309:	73 
 30a:	65                   	gs
 30b:	72 2f                	jb     33c <main-0xfffcc4>
 30d:	6c                   	insb   (%dx),%es:(%edi)
 30e:	69 62 73 74 64 6c 69 	imul   $0x696c6474,0x73(%edx),%esp
 315:	62 2f                	bound  %ebp,(%edi)
 317:	65                   	gs
 318:	78 69                	js     383 <main-0xfffc7d>
 31a:	74 2e                	je     34a <main-0xfffcb6>
 31c:	63 00                	arpl   %ax,(%eax)
 31e:	73 74                	jae    394 <main-0xfffc6c>
 320:	72 69                	jb     38b <main-0xfffc75>
 322:	6e                   	outsb  %ds:(%esi),(%dx)
 323:	67 00 73 74          	add    %dh,0x74(%bp,%di)
 327:	72 6c                	jb     395 <main-0xfffc6b>
 329:	65 6e                	outsb  %gs:(%esi),(%dx)
 32b:	00 34 31             	add    %dh,(%ecx,%esi,1)
 32e:	30 75 73             	xor    %dh,0x73(%ebp)
 331:	65                   	gs
 332:	72 2f                	jb     363 <main-0xfffc9d>
 334:	6c                   	insb   (%dx),%es:(%edi)
 335:	69 62 73 74 72 69 6e 	imul   $0x6e697274,0x73(%edx),%esp
 33c:	67 2f                	addr16 das 
 33e:	73 74                	jae    3b4 <main-0xfffc4c>
 340:	72 6c                	jb     3ae <main-0xfffc52>
 342:	65 6e                	outsb  %gs:(%esi),(%dx)
 344:	2e 63 00             	arpl   %ax,%cs:(%eax)
 347:	65                   	gs
 348:	72 72                	jb     3bc <main-0xfffc44>
 34a:	6f                   	outsl  %ds:(%esi),(%dx)
 34b:	72 5f                	jb     3ac <main-0xfffc54>
 34d:	63 6f 64             	arpl   %bp,0x64(%edi)
 350:	65 00 75 72          	add    %dh,%gs:0x72(%ebp)
 354:	65                   	gs
 355:	67 5f                	addr16 pop %edi
 357:	74 00                	je     359 <main-0xfffca7>
 359:	6f                   	outsl  %ds:(%esi),(%dx)
 35a:	66                   	data16
 35b:	66                   	data16
 35c:	73 65                	jae    3c3 <main-0xfffc3d>
 35e:	74 00                	je     360 <main-0xfffca0>
 360:	75 73                	jne    3d5 <main-0xfffc2b>
 362:	65                   	gs
 363:	72 2f                	jb     394 <main-0xfffc6c>
 365:	6c                   	insb   (%dx),%es:(%edi)
 366:	69 62 73 79 73 63 61 	imul   $0x61637379,0x73(%edx),%esp
 36d:	6c                   	insb   (%dx),%es:(%edi)
 36e:	6c                   	insb   (%dx),%es:(%edi)
 36f:	2f                   	das    
 370:	73 79                	jae    3eb <main-0xfffc15>
 372:	73 63                	jae    3d7 <main-0xfffc29>
 374:	61                   	popa   
 375:	6c                   	insb   (%dx),%es:(%edi)
 376:	6c                   	insb   (%dx),%es:(%edi)
 377:	2e 63 00             	arpl   %ax,%cs:(%eax)
 37a:	74 61                	je     3dd <main-0xfffc23>
 37c:	73 6b                	jae    3e9 <main-0xfffc17>
 37e:	5f                   	pop    %edi
 37f:	76 61                	jbe    3e2 <main-0xfffc1e>
 381:	6e                   	outsb  %ds:(%esi),(%dx)
 382:	69 73 68 00 73 65 74 	imul   $0x74657300,0x68(%ebx),%esi
 389:	5f                   	pop    %edi
 38a:	73 74                	jae    400 <main-0xfffc00>
 38c:	61                   	popa   
 38d:	74 75                	je     404 <main-0xfffbfc>
 38f:	73 00                	jae    391 <main-0xfffc6f>
 391:	6e                   	outsb  %ds:(%esi),(%dx)
 392:	65                   	gs
 393:	77 75                	ja     40a <main-0xfffbf6>
 395:	72 65                	jb     3fc <main-0xfffc04>
 397:	67 00 67 65          	add    %ah,0x65(%bx)
 39b:	74 5f                	je     3fc <main-0xfffc04>
 39d:	63 75 72             	arpl   %si,0x72(%ebp)
 3a0:	73 6f                	jae    411 <main-0xfffbef>
 3a2:	72 5f                	jb     403 <main-0xfffbfd>
 3a4:	70 6f                	jo     415 <main-0xfffbeb>
 3a6:	73 00                	jae    3a8 <main-0xfffc58>
 3a8:	65                   	gs
 3a9:	73 70                	jae    41b <main-0xfffbe5>
 3ab:	33 00                	xor    (%eax),%eax
 3ad:	7a 65                	jp     414 <main-0xfffbec>
 3af:	72 6f                	jb     420 <main-0xfffbe0>
 3b1:	00 73 77             	add    %dh,0x77(%ebx)
 3b4:	65                   	gs
 3b5:	78 6e                	js     425 <main-0xfffbdb>
 3b7:	00 65 78             	add    %ah,0x78(%ebp)
 3ba:	65 63 6e 61          	arpl   %bp,%gs:0x61(%esi)
 3be:	6d                   	insl   (%dx),%es:(%edi)
 3bf:	65 00 72 65          	add    %dh,%gs:0x65(%edx)
 3c3:	61                   	popa   
 3c4:	64 66 69 6c 65 00 70 	imul   $0x6c70,%fs:0x0(%ebp,%eiz,2),%bp
 3cb:	6c 
 3cc:	61                   	popa   
 3cd:	63 61 74             	arpl   %sp,0x74(%ecx)
 3d0:	65                   	gs
 3d1:	5f                   	pop    %edi
 3d2:	74 68                	je     43c <main-0xfffbc4>
 3d4:	65                   	gs
 3d5:	5f                   	pop    %edi
 3d6:	63 6f 6d             	arpl   %bp,0x6d(%edi)
 3d9:	70 69                	jo     444 <main-0xfffbbc>
 3db:	6c                   	insb   (%dx),%es:(%edi)
 3dc:	65                   	gs
 3dd:	72 00                	jb     3df <main-0xfffc21>
 3df:	79 69                	jns    44a <main-0xfffbb6>
 3e1:	65                   	gs
 3e2:	6c                   	insb   (%dx),%es:(%edi)
 3e3:	64 00 73 74          	add    %dh,%fs:0x74(%ebx)
 3e7:	61                   	popa   
 3e8:	74 75                	je     45f <main-0xfffba1>
 3ea:	73 5f                	jae    44b <main-0xfffbb5>
 3ec:	70 74                	jo     462 <main-0xfffb9e>
 3ee:	72 00                	jb     3f0 <main-0xfffc10>
 3f0:	61                   	popa   
 3f1:	64                   	fs
 3f2:	64                   	fs
 3f3:	72 00                	jb     3f5 <main-0xfffc0b>
 3f5:	67                   	addr16
 3f6:	65                   	gs
 3f7:	74 74                	je     46d <main-0xfffb93>
 3f9:	69 64 00 67 65 74 5f 	imul   $0x745f7465,0x67(%eax,%eax,1),%esp
 400:	74 
 401:	69 63 6b 73 00 64 65 	imul   $0x65640073,0x6b(%ebx),%esp
 408:	73 63                	jae    46d <main-0xfffb93>
 40a:	68 65 64 75 6c       	push   $0x6c756465
 40f:	65 00 61 72          	add    %ah,%gs:0x72(%ecx)
 413:	67 76 65             	addr16 jbe 47b <main-0xfffb85>
 416:	63 00                	arpl   %ax,(%eax)
 418:	77 61                	ja     47b <main-0xfffb85>
 41a:	69 74 00 66 6c 61 67 	imul   $0x67616c,0x66(%eax,%eax,1),%esi
 421:	00 
 422:	65                   	gs
 423:	78 65                	js     48a <main-0xfffb76>
 425:	63 00                	arpl   %ax,(%eax)
 427:	6e                   	outsb  %ds:(%esi),(%dx)
 428:	65                   	gs
 429:	77 5f                	ja     48a <main-0xfffb76>
 42b:	70 61                	jo     48e <main-0xfffb72>
 42d:	67                   	addr16
 42e:	65                   	gs
 42f:	73 00                	jae    431 <main-0xfffbcf>
 431:	6d                   	insl   (%dx),%es:(%edi)
 432:	69 73 62 65 68 61 76 	imul   $0x76616865,0x62(%ebx),%esi
 439:	65 00 67 65          	add    %ah,%gs:0x65(%edi)
 43d:	74 63                	je     4a2 <main-0xfffb5e>
 43f:	68 61 72 00 63       	push   $0x63007261
 444:	61                   	popa   
 445:	75 73                	jne    4ba <main-0xfffb46>
 447:	65 00 73 65          	add    %dh,%gs:0x65(%ebx)
 44b:	74 5f                	je     4ac <main-0xfffb54>
 44d:	63 75 72             	arpl   %si,0x72(%ebp)
 450:	73 6f                	jae    4c1 <main-0xfffb3f>
 452:	72 5f                	jb     4b3 <main-0xfffb4d>
 454:	70 6f                	jo     4c5 <main-0xfffb3b>
 456:	73 00                	jae    458 <main-0xfffba8>
 458:	65                   	gs
 459:	66                   	data16
 45a:	6c                   	insb   (%dx),%es:(%edi)
 45b:	61                   	popa   
 45c:	67 73 00             	addr16 jae 45f <main-0xfffba1>
 45f:	70 72                	jo     4d3 <main-0xfffb2d>
 461:	69 6e 74 00 6d 6f 64 	imul   $0x646f6d00,0x74(%esi),%ebp
 468:	65 00 63 6f          	add    %ah,%gs:0x6f(%ebx)
 46c:	75 6e                	jne    4dc <main-0xfffb24>
 46e:	74 00                	je     470 <main-0xfffb90>
 470:	66 69 6c 65 6e 61 6d 	imul   $0x6d61,0x6e(%ebp,%eiz,2),%bp
 477:	65 00 6d 61          	add    %ch,%gs:0x61(%ebp)
 47b:	6b 65 5f 72          	imul   $0x72,0x5f(%ebp),%esp
 47f:	75 6e                	jne    4ef <main-0xfffb11>
 481:	6e                   	outsb  %ds:(%esi),(%dx)
 482:	61                   	popa   
 483:	62 6c 65 00          	bound  %ebp,0x0(%ebp,%eiz,2)
 487:	73 65                	jae    4ee <main-0xfffb12>
 489:	74 5f                	je     4ea <main-0xfffb16>
 48b:	74 65                	je     4f2 <main-0xfffb0e>
 48d:	72 6d                	jb     4fc <main-0xfffb04>
 48f:	5f                   	pop    %edi
 490:	63 6f 6c             	arpl   %bp,0x6c(%edi)
 493:	6f                   	outsl  %ds:(%esi),(%dx)
 494:	72 00                	jb     496 <main-0xfffb6a>
 496:	73 77                	jae    50f <main-0xfffaf1>
 498:	65                   	gs
 499:	78 6e                	js     509 <main-0xfffaf7>
 49b:	5f                   	pop    %edi
 49c:	68 61 6e 64 6c       	push   $0x6c646e61
 4a1:	65                   	gs
 4a2:	72 5f                	jb     503 <main-0xfffafd>
 4a4:	74 00                	je     4a6 <main-0xfffb5a>
 4a6:	72 65                	jb     50d <main-0xfffaf3>
 4a8:	6d                   	insl   (%dx),%es:(%edi)
 4a9:	6f                   	outsl  %ds:(%esi),(%dx)
 4aa:	76 65                	jbe    511 <main-0xfffaef>
 4ac:	5f                   	pop    %edi
 4ad:	70 61                	jo     510 <main-0xfffaf0>
 4af:	67                   	addr16
 4b0:	65                   	gs
 4b1:	73 00                	jae    4b3 <main-0xfffb4d>
 4b3:	75 73                	jne    528 <main-0xfffad8>
 4b5:	65                   	gs
 4b6:	72 2f                	jb     4e7 <main-0xfffb19>
 4b8:	61                   	popa   
 4b9:	75 74                	jne    52f <main-0xfffad1>
 4bb:	6f                   	outsl  %ds:(%esi),(%dx)
 4bc:	73 74                	jae    532 <main-0xffface>
 4be:	61                   	popa   
 4bf:	63 6b 2e             	arpl   %bp,0x2e(%ebx)
 4c2:	63 00                	arpl   %ax,(%eax)
 4c4:	69 6e 73 74 61 6c 6c 	imul   $0x6c6c6174,0x73(%esi),%ebp
 4cb:	5f                   	pop    %edi
 4cc:	61                   	popa   
 4cd:	75 74                	jne    543 <main-0xfffabd>
 4cf:	6f                   	outsl  %ds:(%esi),(%dx)
 4d0:	73 74                	jae    546 <main-0xfffaba>
 4d2:	61                   	popa   
 4d3:	63 6b 00             	arpl   %bp,0x0(%ebx)
 4d6:	5f                   	pop    %edi
 4d7:	5f                   	pop    %edi
 4d8:	75 6d                	jne    547 <main-0xfffab9>
 4da:	6f                   	outsl  %ds:(%esi),(%dx)
 4db:	64 64 69 33 00 71 68 	fs imul $0x61687100,%fs:(%ebx),%esi
 4e2:	61 
 4e3:	74 00                	je     4e5 <main-0xfffb1b>
 4e5:	75 73                	jne    55a <main-0xfffaa6>
 4e7:	70 61                	jo     54a <main-0xfffab6>
 4e9:	63 65 00             	arpl   %sp,0x0(%ebp)
 4ec:	71 73                	jno    561 <main-0xfffa9f>
 4ee:	70 61                	jo     551 <main-0xfffaaf>
 4f0:	63 65 00             	arpl   %sp,0x0(%ebp)
 4f3:	75 5f                	jne    554 <main-0xfffaac>
 4f5:	71 75                	jno    56c <main-0xfffa94>
 4f7:	61                   	popa   
 4f8:	64                   	fs
 4f9:	5f                   	pop    %edi
 4fa:	74 00                	je     4fc <main-0xfffb04>
 4fc:	71 68                	jno    566 <main-0xfffa9a>
 4fe:	61                   	popa   
 4ff:	74 5f                	je     560 <main-0xfffaa0>
 501:	74 6f                	je     572 <main-0xfffa8e>
 503:	6f                   	outsl  %ds:(%esi),(%dx)
 504:	5f                   	pop    %edi
 505:	62 69 67             	bound  %ebp,0x67(%ecx)
 508:	00 5f 5f             	add    %bl,0x5f(%edi)
 50b:	71 64                	jno    571 <main-0xfffa8f>
 50d:	69 76 72 65 6d 00 64 	imul   $0x64006d65,0x72(%esi),%esi
 514:	69 67 69 74 00 72 68 	imul   $0x68720074,0x69(%edi),%esp
 51b:	61                   	popa   
 51c:	74 00                	je     51e <main-0xfffae2>
 51e:	5f                   	pop    %edi
 51f:	5f                   	pop    %edi
 520:	75 64                	jne    586 <main-0xfffa7a>
 522:	69 76 64 69 33 00 75 	imul   $0x75003369,0x64(%esi),%esi
 529:	5f                   	pop    %edi
 52a:	69 6e 74 00 34 31 30 	imul   $0x30313400,0x74(%esi),%ebp
 531:	75 73                	jne    5a6 <main-0xfffa5a>
 533:	65                   	gs
 534:	72 2f                	jb     565 <main-0xfffa9b>
 536:	6c                   	insb   (%dx),%es:(%edi)
 537:	69 62 78 38 36 2f 67 	imul   $0x672f3638,0x78(%edx),%esp
 53e:	63 63 69             	arpl   %sp,0x69(%ebx)
 541:	73 6d                	jae    5b0 <main-0xfffa50>
 543:	73 2e                	jae    573 <main-0xfffa8d>
 545:	63 00                	arpl   %ax,(%eax)
 547:	76 73                	jbe    5bc <main-0xfffa44>
 549:	70 61                	jo     5ac <main-0xfffa54>
 54b:	63 65 00             	arpl   %sp,0x0(%ebp)

Disassembly of section .debug_loc:

00000000 <.debug_loc>:
       0:	00 00                	add    %al,(%eax)
       2:	00 00                	add    %al,(%eax)
       4:	01 00                	add    %eax,(%eax)
       6:	00 00                	add    %al,(%eax)
       8:	02 00                	add    (%eax),%al
       a:	74 04                	je     10 <main-0xfffff0>
       c:	01 00                	add    %eax,(%eax)
       e:	00 00                	add    %al,(%eax)
      10:	03 00                	add    (%eax),%eax
      12:	00 00                	add    %al,(%eax)
      14:	02 00                	add    (%eax),%al
      16:	74 08                	je     20 <main-0xffffe0>
      18:	03 00                	add    (%eax),%eax
      1a:	00 00                	add    %al,(%eax)
      1c:	3c 00                	cmp    $0x0,%al
      1e:	00 00                	add    %al,(%eax)
      20:	02 00                	add    (%eax),%al
      22:	75 08                	jne    2c <main-0xffffd4>
      24:	3c 00                	cmp    $0x0,%al
      26:	00 00                	add    %al,(%eax)
      28:	3d 00 00 00 02       	cmp    $0x2000000,%eax
      2d:	00 74 04 00          	add    %dh,0x0(%esp,%eax,1)
	...
      39:	00 00                	add    %al,(%eax)
      3b:	00 01                	add    %al,(%ecx)
      3d:	00 00                	add    %al,(%eax)
      3f:	00 02                	add    %al,(%edx)
      41:	00 74 04 01          	add    %dh,0x1(%esp,%eax,1)
      45:	00 00                	add    %al,(%eax)
      47:	00 03                	add    %al,(%ebx)
      49:	00 00                	add    %al,(%eax)
      4b:	00 02                	add    %al,(%edx)
      4d:	00 74 08 03          	add    %dh,0x3(%eax,%ecx,1)
      51:	00 00                	add    %al,(%eax)
      53:	00 32                	add    %dh,(%edx)
      55:	00 00                	add    %al,(%eax)
      57:	00 02                	add    %al,(%edx)
      59:	00 75 08             	add    %dh,0x8(%ebp)
	...
      68:	01 00                	add    %eax,(%eax)
      6a:	00 00                	add    %al,(%eax)
      6c:	02 00                	add    (%eax),%al
      6e:	74 04                	je     74 <main-0xffff8c>
      70:	01 00                	add    %eax,(%eax)
      72:	00 00                	add    %al,(%eax)
      74:	03 00                	add    (%eax),%eax
      76:	00 00                	add    %al,(%eax)
      78:	02 00                	add    (%eax),%al
      7a:	74 08                	je     84 <main-0xffff7c>
      7c:	03 00                	add    (%eax),%eax
      7e:	00 00                	add    %al,(%eax)
      80:	13 00                	adc    (%eax),%eax
      82:	00 00                	add    %al,(%eax)
      84:	02 00                	add    (%eax),%al
      86:	75 08                	jne    90 <main-0xffff70>
      88:	13 00                	adc    (%eax),%eax
      8a:	00 00                	add    %al,(%eax)
      8c:	14 00                	adc    $0x0,%al
      8e:	00 00                	add    %al,(%eax)
      90:	02 00                	add    (%eax),%al
      92:	74 04                	je     98 <main-0xffff68>
	...
      9c:	14 00                	adc    $0x0,%al
      9e:	00 00                	add    %al,(%eax)
      a0:	15 00 00 00 02       	adc    $0x2000000,%eax
      a5:	00 74 04 15          	add    %dh,0x15(%esp,%eax,1)
      a9:	00 00                	add    %al,(%eax)
      ab:	00 17                	add    %dl,(%edi)
      ad:	00 00                	add    %al,(%eax)
      af:	00 02                	add    %al,(%edx)
      b1:	00 74 08 17          	add    %dh,0x17(%eax,%ecx,1)
      b5:	00 00                	add    %al,(%eax)
      b7:	00 2e                	add    %ch,(%esi)
      b9:	00 00                	add    %al,(%eax)
      bb:	00 02                	add    %al,(%edx)
      bd:	00 75 08             	add    %dh,0x8(%ebp)
      c0:	2e 00 00             	add    %al,%cs:(%eax)
      c3:	00 2f                	add    %ch,(%edi)
      c5:	00 00                	add    %al,(%eax)
      c7:	00 02                	add    %al,(%edx)
      c9:	00 74 04 00          	add    %dh,0x0(%esp,%eax,1)
      cd:	00 00                	add    %al,(%eax)
      cf:	00 00                	add    %al,(%eax)
      d1:	00 00                	add    %al,(%eax)
      d3:	00 2f                	add    %ch,(%edi)
      d5:	00 00                	add    %al,(%eax)
      d7:	00 30                	add    %dh,(%eax)
      d9:	00 00                	add    %al,(%eax)
      db:	00 02                	add    %al,(%edx)
      dd:	00 74 04 30          	add    %dh,0x30(%esp,%eax,1)
      e1:	00 00                	add    %al,(%eax)
      e3:	00 32                	add    %dh,(%edx)
      e5:	00 00                	add    %al,(%eax)
      e7:	00 02                	add    %al,(%edx)
      e9:	00 74 08 32          	add    %dh,0x32(%eax,%ecx,1)
      ed:	00 00                	add    %al,(%eax)
      ef:	00 42 00             	add    %al,0x0(%edx)
      f2:	00 00                	add    %al,(%eax)
      f4:	02 00                	add    (%eax),%al
      f6:	75 08                	jne    100 <main-0xffff00>
      f8:	42                   	inc    %edx
      f9:	00 00                	add    %al,(%eax)
      fb:	00 43 00             	add    %al,0x0(%ebx)
      fe:	00 00                	add    %al,(%eax)
     100:	02 00                	add    (%eax),%al
     102:	74 04                	je     108 <main-0xfffef8>
	...
     10c:	43                   	inc    %ebx
     10d:	00 00                	add    %al,(%eax)
     10f:	00 44 00 00          	add    %al,0x0(%eax,%eax,1)
     113:	00 02                	add    %al,(%edx)
     115:	00 74 04 44          	add    %dh,0x44(%esp,%eax,1)
     119:	00 00                	add    %al,(%eax)
     11b:	00 46 00             	add    %al,0x0(%esi)
     11e:	00 00                	add    %al,(%eax)
     120:	02 00                	add    (%eax),%al
     122:	74 08                	je     12c <main-0xfffed4>
     124:	46                   	inc    %esi
     125:	00 00                	add    %al,(%eax)
     127:	00 56 00             	add    %dl,0x0(%esi)
     12a:	00 00                	add    %al,(%eax)
     12c:	02 00                	add    (%eax),%al
     12e:	75 08                	jne    138 <main-0xfffec8>
     130:	56                   	push   %esi
     131:	00 00                	add    %al,(%eax)
     133:	00 57 00             	add    %dl,0x0(%edi)
     136:	00 00                	add    %al,(%eax)
     138:	02 00                	add    (%eax),%al
     13a:	74 04                	je     140 <main-0xfffec0>
	...
     144:	57                   	push   %edi
     145:	00 00                	add    %al,(%eax)
     147:	00 58 00             	add    %bl,0x0(%eax)
     14a:	00 00                	add    %al,(%eax)
     14c:	02 00                	add    (%eax),%al
     14e:	74 04                	je     154 <main-0xfffeac>
     150:	58                   	pop    %eax
     151:	00 00                	add    %al,(%eax)
     153:	00 5a 00             	add    %bl,0x0(%edx)
     156:	00 00                	add    %al,(%eax)
     158:	02 00                	add    (%eax),%al
     15a:	74 08                	je     164 <main-0xfffe9c>
     15c:	5a                   	pop    %edx
     15d:	00 00                	add    %al,(%eax)
     15f:	00 6a 00             	add    %ch,0x0(%edx)
     162:	00 00                	add    %al,(%eax)
     164:	02 00                	add    (%eax),%al
     166:	75 08                	jne    170 <main-0xfffe90>
     168:	6a 00                	push   $0x0
     16a:	00 00                	add    %al,(%eax)
     16c:	6b 00 00             	imul   $0x0,(%eax),%eax
     16f:	00 02                	add    %al,(%edx)
     171:	00 74 04 00          	add    %dh,0x0(%esp,%eax,1)
     175:	00 00                	add    %al,(%eax)
     177:	00 00                	add    %al,(%eax)
     179:	00 00                	add    %al,(%eax)
     17b:	00 6b 00             	add    %ch,0x0(%ebx)
     17e:	00 00                	add    %al,(%eax)
     180:	6c                   	insb   (%dx),%es:(%edi)
     181:	00 00                	add    %al,(%eax)
     183:	00 02                	add    %al,(%edx)
     185:	00 74 04 6c          	add    %dh,0x6c(%esp,%eax,1)
     189:	00 00                	add    %al,(%eax)
     18b:	00 6e 00             	add    %ch,0x0(%esi)
     18e:	00 00                	add    %al,(%eax)
     190:	02 00                	add    (%eax),%al
     192:	74 08                	je     19c <main-0xfffe64>
     194:	6e                   	outsb  %ds:(%esi),(%dx)
     195:	00 00                	add    %al,(%eax)
     197:	00 85 00 00 00 02    	add    %al,0x2000000(%ebp)
     19d:	00 75 08             	add    %dh,0x8(%ebp)
     1a0:	85 00                	test   %eax,(%eax)
     1a2:	00 00                	add    %al,(%eax)
     1a4:	86 00                	xchg   %al,(%eax)
     1a6:	00 00                	add    %al,(%eax)
     1a8:	02 00                	add    (%eax),%al
     1aa:	74 04                	je     1b0 <main-0xfffe50>
	...
     1b4:	86 00                	xchg   %al,(%eax)
     1b6:	00 00                	add    %al,(%eax)
     1b8:	87 00                	xchg   %eax,(%eax)
     1ba:	00 00                	add    %al,(%eax)
     1bc:	02 00                	add    (%eax),%al
     1be:	74 04                	je     1c4 <main-0xfffe3c>
     1c0:	87 00                	xchg   %eax,(%eax)
     1c2:	00 00                	add    %al,(%eax)
     1c4:	89 00                	mov    %eax,(%eax)
     1c6:	00 00                	add    %al,(%eax)
     1c8:	02 00                	add    (%eax),%al
     1ca:	74 08                	je     1d4 <main-0xfffe2c>
     1cc:	89 00                	mov    %eax,(%eax)
     1ce:	00 00                	add    %al,(%eax)
     1d0:	99                   	cltd   
     1d1:	00 00                	add    %al,(%eax)
     1d3:	00 02                	add    %al,(%edx)
     1d5:	00 75 08             	add    %dh,0x8(%ebp)
     1d8:	99                   	cltd   
     1d9:	00 00                	add    %al,(%eax)
     1db:	00 9a 00 00 00 02    	add    %bl,0x2000000(%edx)
     1e1:	00 74 04 00          	add    %dh,0x0(%esp,%eax,1)
     1e5:	00 00                	add    %al,(%eax)
     1e7:	00 00                	add    %al,(%eax)
     1e9:	00 00                	add    %al,(%eax)
     1eb:	00 9a 00 00 00 9b    	add    %bl,-0x65000000(%edx)
     1f1:	00 00                	add    %al,(%eax)
     1f3:	00 02                	add    %al,(%edx)
     1f5:	00 74 04 9b          	add    %dh,-0x65(%esp,%eax,1)
     1f9:	00 00                	add    %al,(%eax)
     1fb:	00 9d 00 00 00 02    	add    %bl,0x2000000(%ebp)
     201:	00 74 08 9d          	add    %dh,-0x63(%eax,%ecx,1)
     205:	00 00                	add    %al,(%eax)
     207:	00 ad 00 00 00 02    	add    %ch,0x2000000(%ebp)
     20d:	00 75 08             	add    %dh,0x8(%ebp)
     210:	ad                   	lods   %ds:(%esi),%eax
     211:	00 00                	add    %al,(%eax)
     213:	00 ae 00 00 00 02    	add    %ch,0x2000000(%esi)
     219:	00 74 04 00          	add    %dh,0x0(%esp,%eax,1)
     21d:	00 00                	add    %al,(%eax)
     21f:	00 00                	add    %al,(%eax)
     221:	00 00                	add    %al,(%eax)
     223:	00 ae 00 00 00 af    	add    %ch,-0x51000000(%esi)
     229:	00 00                	add    %al,(%eax)
     22b:	00 02                	add    %al,(%edx)
     22d:	00 74 04 af          	add    %dh,-0x51(%esp,%eax,1)
     231:	00 00                	add    %al,(%eax)
     233:	00 b1 00 00 00 02    	add    %dh,0x2000000(%ecx)
     239:	00 74 08 b1          	add    %dh,-0x4f(%eax,%ecx,1)
     23d:	00 00                	add    %al,(%eax)
     23f:	00 d3                	add    %dl,%bl
     241:	00 00                	add    %al,(%eax)
     243:	00 02                	add    %al,(%edx)
     245:	00 75 08             	add    %dh,0x8(%ebp)
     248:	d3 00                	roll   %cl,(%eax)
     24a:	00 00                	add    %al,(%eax)
     24c:	d4 00                	aam    $0x0
     24e:	00 00                	add    %al,(%eax)
     250:	02 00                	add    (%eax),%al
     252:	74 04                	je     258 <main-0xfffda8>
	...
     25c:	d4 00                	aam    $0x0
     25e:	00 00                	add    %al,(%eax)
     260:	d5 00                	aad    $0x0
     262:	00 00                	add    %al,(%eax)
     264:	02 00                	add    (%eax),%al
     266:	74 04                	je     26c <main-0xfffd94>
     268:	d5 00                	aad    $0x0
     26a:	00 00                	add    %al,(%eax)
     26c:	d7                   	xlat   %ds:(%ebx)
     26d:	00 00                	add    %al,(%eax)
     26f:	00 02                	add    %al,(%edx)
     271:	00 74 08 d7          	add    %dh,-0x29(%eax,%ecx,1)
     275:	00 00                	add    %al,(%eax)
     277:	00 12                	add    %dl,(%edx)
     279:	01 00                	add    %eax,(%eax)
     27b:	00 02                	add    %al,(%edx)
     27d:	00 75 08             	add    %dh,0x8(%ebp)
     280:	12 01                	adc    (%ecx),%al
     282:	00 00                	add    %al,(%eax)
     284:	13 01                	adc    (%ecx),%eax
     286:	00 00                	add    %al,(%eax)
     288:	02 00                	add    (%eax),%al
     28a:	74 04                	je     290 <main-0xfffd70>
	...
     294:	e1 00                	loope  296 <main-0xfffd6a>
     296:	00 00                	add    %al,(%eax)
     298:	e8 00 00 00 01       	call   100029d <sprintf+0x17>
     29d:	00 50 e8             	add    %dl,-0x18(%eax)
     2a0:	00 00                	add    %al,(%eax)
     2a2:	00 01                	add    %al,(%ecx)
     2a4:	01 00                	add    %eax,(%eax)
     2a6:	00 02                	add    %al,(%edx)
     2a8:	00 74 0c 01          	add    %dh,0x1(%esp,%ecx,1)
     2ac:	01 00                	add    %eax,(%eax)
     2ae:	00 13                	add    %dl,(%ebx)
     2b0:	01 00                	add    %eax,(%eax)
     2b2:	00 03                	add    %al,(%ebx)
     2b4:	00 91 04 9f 00 00    	add    %dl,0x9f04(%ecx)
	...
     2c2:	00 00                	add    %al,(%eax)
     2c4:	01 00                	add    %eax,(%eax)
     2c6:	00 00                	add    %al,(%eax)
     2c8:	02 00                	add    (%eax),%al
     2ca:	74 04                	je     2d0 <main-0xfffd30>
     2cc:	01 00                	add    %eax,(%eax)
     2ce:	00 00                	add    %al,(%eax)
     2d0:	03 00                	add    (%eax),%eax
     2d2:	00 00                	add    %al,(%eax)
     2d4:	02 00                	add    (%eax),%al
     2d6:	74 08                	je     2e0 <main-0xfffd20>
     2d8:	03 00                	add    (%eax),%eax
     2da:	00 00                	add    %al,(%eax)
     2dc:	22 00                	and    (%eax),%al
     2de:	00 00                	add    %al,(%eax)
     2e0:	02 00                	add    (%eax),%al
     2e2:	75 08                	jne    2ec <main-0xfffd14>
     2e4:	22 00                	and    (%eax),%al
     2e6:	00 00                	add    %al,(%eax)
     2e8:	23 00                	and    (%eax),%eax
     2ea:	00 00                	add    %al,(%eax)
     2ec:	02 00                	add    (%eax),%al
     2ee:	74 04                	je     2f4 <main-0xfffd0c>
	...
     2f8:	23 00                	and    (%eax),%eax
     2fa:	00 00                	add    %al,(%eax)
     2fc:	24 00                	and    $0x0,%al
     2fe:	00 00                	add    %al,(%eax)
     300:	02 00                	add    (%eax),%al
     302:	74 04                	je     308 <main-0xfffcf8>
     304:	24 00                	and    $0x0,%al
     306:	00 00                	add    %al,(%eax)
     308:	26 00 00             	add    %al,%es:(%eax)
     30b:	00 02                	add    %al,(%edx)
     30d:	00 74 08 26          	add    %dh,0x26(%eax,%ecx,1)
     311:	00 00                	add    %al,(%eax)
     313:	00 6f 00             	add    %ch,0x0(%edi)
     316:	00 00                	add    %al,(%eax)
     318:	02 00                	add    (%eax),%al
     31a:	75 08                	jne    324 <main-0xfffcdc>
     31c:	6f                   	outsl  %ds:(%esi),(%dx)
     31d:	00 00                	add    %al,(%eax)
     31f:	00 70 00             	add    %dh,0x0(%eax)
     322:	00 00                	add    %al,(%eax)
     324:	02 00                	add    (%eax),%al
     326:	74 04                	je     32c <main-0xfffcd4>
	...
     330:	70 00                	jo     332 <main-0xfffcce>
     332:	00 00                	add    %al,(%eax)
     334:	71 00                	jno    336 <main-0xfffcca>
     336:	00 00                	add    %al,(%eax)
     338:	02 00                	add    (%eax),%al
     33a:	74 04                	je     340 <main-0xfffcc0>
     33c:	71 00                	jno    33e <main-0xfffcc2>
     33e:	00 00                	add    %al,(%eax)
     340:	73 00                	jae    342 <main-0xfffcbe>
     342:	00 00                	add    %al,(%eax)
     344:	02 00                	add    (%eax),%al
     346:	74 08                	je     350 <main-0xfffcb0>
     348:	73 00                	jae    34a <main-0xfffcb6>
     34a:	00 00                	add    %al,(%eax)
     34c:	97                   	xchg   %eax,%edi
     34d:	00 00                	add    %al,(%eax)
     34f:	00 02                	add    %al,(%edx)
     351:	00 75 08             	add    %dh,0x8(%ebp)
     354:	97                   	xchg   %eax,%edi
     355:	00 00                	add    %al,(%eax)
     357:	00 98 00 00 00 02    	add    %bl,0x2000000(%eax)
     35d:	00 74 04 00          	add    %dh,0x0(%esp,%eax,1)
     361:	00 00                	add    %al,(%eax)
     363:	00 00                	add    %al,(%eax)
     365:	00 00                	add    %al,(%eax)
     367:	00 79 00             	add    %bh,0x0(%ecx)
     36a:	00 00                	add    %al,(%eax)
     36c:	80 00 00             	addb   $0x0,(%eax)
     36f:	00 01                	add    %al,(%ecx)
     371:	00 50 80             	add    %dl,-0x80(%eax)
     374:	00 00                	add    %al,(%eax)
     376:	00 95 00 00 00 02    	add    %dl,0x2000000(%ebp)
     37c:	00 74 0c 95          	add    %dh,-0x6b(%esp,%ecx,1)
     380:	00 00                	add    %al,(%eax)
     382:	00 98 00 00 00 03    	add    %bl,0x3000000(%eax)
     388:	00 91 0c 9f 00 00    	add    %dl,0x9f0c(%ecx)
     38e:	00 00                	add    %al,(%eax)
     390:	00 00                	add    %al,(%eax)
     392:	00 00                	add    %al,(%eax)
     394:	98                   	cwtl   
     395:	00 00                	add    %al,(%eax)
     397:	00 99 00 00 00 02    	add    %bl,0x2000000(%ecx)
     39d:	00 74 04 99          	add    %dh,-0x67(%esp,%eax,1)
     3a1:	00 00                	add    %al,(%eax)
     3a3:	00 9b 00 00 00 02    	add    %bl,0x2000000(%ebx)
     3a9:	00 74 08 9b          	add    %dh,-0x65(%eax,%ecx,1)
     3ad:	00 00                	add    %al,(%eax)
     3af:	00 e5                	add    %ah,%ch
     3b1:	00 00                	add    %al,(%eax)
     3b3:	00 02                	add    %al,(%edx)
     3b5:	00 75 08             	add    %dh,0x8(%ebp)
     3b8:	e5 00                	in     $0x0,%eax
     3ba:	00 00                	add    %al,(%eax)
     3bc:	e6 00                	out    %al,$0x0
     3be:	00 00                	add    %al,(%eax)
     3c0:	02 00                	add    (%eax),%al
     3c2:	74 04                	je     3c8 <main-0xfffc38>
	...
     3cc:	e6 00                	out    %al,$0x0
     3ce:	00 00                	add    %al,(%eax)
     3d0:	e7 00                	out    %eax,$0x0
     3d2:	00 00                	add    %al,(%eax)
     3d4:	02 00                	add    (%eax),%al
     3d6:	74 04                	je     3dc <main-0xfffc24>
     3d8:	e7 00                	out    %eax,$0x0
     3da:	00 00                	add    %al,(%eax)
     3dc:	e9 00 00 00 02       	jmp    20003e1 <_end+0xffd9c5>
     3e1:	00 74 08 e9          	add    %dh,-0x17(%eax,%ecx,1)
     3e5:	00 00                	add    %al,(%eax)
     3e7:	00 06                	add    %al,(%esi)
     3e9:	01 00                	add    %eax,(%eax)
     3eb:	00 02                	add    %al,(%edx)
     3ed:	00 75 08             	add    %dh,0x8(%ebp)
     3f0:	06                   	push   %es
     3f1:	01 00                	add    %eax,(%eax)
     3f3:	00 07                	add    %al,(%edi)
     3f5:	01 00                	add    %eax,(%eax)
     3f7:	00 02                	add    %al,(%edx)
     3f9:	00 74 04 00          	add    %dh,0x0(%esp,%eax,1)
     3fd:	00 00                	add    %al,(%eax)
     3ff:	00 00                	add    %al,(%eax)
     401:	00 00                	add    %al,(%eax)
     403:	00 ef                	add    %ch,%bh
     405:	00 00                	add    %al,(%eax)
     407:	00 f6                	add    %dh,%dh
     409:	00 00                	add    %al,(%eax)
     40b:	00 01                	add    %al,(%ecx)
     40d:	00 50 f6             	add    %dl,-0xa(%eax)
     410:	00 00                	add    %al,(%eax)
     412:	00 04 01             	add    %al,(%ecx,%eax,1)
     415:	00 00                	add    %al,(%eax)
     417:	02 00                	add    (%eax),%al
     419:	74 08                	je     423 <main-0xfffbdd>
     41b:	04 01                	add    $0x1,%al
     41d:	00 00                	add    %al,(%eax)
     41f:	07                   	pop    %es
     420:	01 00                	add    %eax,(%eax)
     422:	00 03                	add    %al,(%ebx)
     424:	00 91 08 9f 00 00    	add    %dl,0x9f08(%ecx)
	...
     432:	00 00                	add    %al,(%eax)
     434:	01 00                	add    %eax,(%eax)
     436:	00 00                	add    %al,(%eax)
     438:	02 00                	add    (%eax),%al
     43a:	74 04                	je     440 <main-0xfffbc0>
     43c:	01 00                	add    %eax,(%eax)
     43e:	00 00                	add    %al,(%eax)
     440:	03 00                	add    (%eax),%eax
     442:	00 00                	add    %al,(%eax)
     444:	02 00                	add    (%eax),%al
     446:	74 08                	je     450 <main-0xfffbb0>
     448:	03 00                	add    (%eax),%eax
     44a:	00 00                	add    %al,(%eax)
     44c:	54                   	push   %esp
     44d:	00 00                	add    %al,(%eax)
     44f:	00 02                	add    %al,(%edx)
     451:	00 75 08             	add    %dh,0x8(%ebp)
     454:	54                   	push   %esp
     455:	00 00                	add    %al,(%eax)
     457:	00 55 00             	add    %dl,0x0(%ebp)
     45a:	00 00                	add    %al,(%eax)
     45c:	02 00                	add    (%eax),%al
     45e:	74 04                	je     464 <main-0xfffb9c>
	...
     46c:	22 00                	and    (%eax),%al
     46e:	00 00                	add    %al,(%eax)
     470:	01 00                	add    %eax,(%eax)
     472:	50                   	push   %eax
     473:	2b 00                	sub    (%eax),%eax
     475:	00 00                	add    %al,(%eax)
     477:	39 00                	cmp    %eax,(%eax)
     479:	00 00                	add    %al,(%eax)
     47b:	01 00                	add    %eax,(%eax)
     47d:	50                   	push   %eax
	...
     48a:	1a 00                	sbb    (%eax),%al
     48c:	00 00                	add    %al,(%eax)
     48e:	01 00                	add    %eax,(%eax)
     490:	52                   	push   %edx
     491:	1a 00                	sbb    (%eax),%al
     493:	00 00                	add    %al,(%eax)
     495:	55                   	push   %ebp
     496:	00 00                	add    %al,(%eax)
     498:	00 02                	add    %al,(%edx)
     49a:	00 91 48 00 00 00    	add    %dl,0x48(%ecx)
	...
     4a8:	00 1a                	add    %bl,(%edx)
     4aa:	00 00                	add    %al,(%eax)
     4ac:	00 01                	add    %al,(%ecx)
     4ae:	00 51 1a             	add    %dl,0x1a(%ecx)
     4b1:	00 00                	add    %al,(%eax)
     4b3:	00 55 00             	add    %dl,0x0(%ebp)
     4b6:	00 00                	add    %al,(%eax)
     4b8:	02 00                	add    (%eax),%al
     4ba:	91                   	xchg   %eax,%ecx
     4bb:	44                   	inc    %esp
	...
     4c4:	12 00                	adc    (%eax),%al
     4c6:	00 00                	add    %al,(%eax)
     4c8:	1a 00                	sbb    (%eax),%al
     4ca:	00 00                	add    %al,(%eax)
     4cc:	03 00                	add    (%eax),%eax
     4ce:	91                   	xchg   %eax,%ecx
     4cf:	6b 9f 1a 00 00 00 51 	imul   $0x51,0x1a(%edi),%ebx
     4d6:	00 00                	add    %al,(%eax)
     4d8:	00 01                	add    %al,(%ecx)
     4da:	00 53 00             	add    %dl,0x0(%ebx)
     4dd:	00 00                	add    %al,(%eax)
     4df:	00 00                	add    %al,(%eax)
     4e1:	00 00                	add    %al,(%eax)
     4e3:	00 55 00             	add    %dl,0x0(%ebp)
     4e6:	00 00                	add    %al,(%eax)
     4e8:	56                   	push   %esi
     4e9:	00 00                	add    %al,(%eax)
     4eb:	00 02                	add    %al,(%edx)
     4ed:	00 74 04 56          	add    %dh,0x56(%esp,%eax,1)
     4f1:	00 00                	add    %al,(%eax)
     4f3:	00 58 00             	add    %bl,0x0(%eax)
     4f6:	00 00                	add    %al,(%eax)
     4f8:	02 00                	add    (%eax),%al
     4fa:	74 08                	je     504 <main-0xfffafc>
     4fc:	58                   	pop    %eax
     4fd:	00 00                	add    %al,(%eax)
     4ff:	00 ac 00 00 00 02 00 	add    %ch,0x20000(%eax,%eax,1)
     506:	75 08                	jne    510 <main-0xfffaf0>
     508:	ac                   	lods   %ds:(%esi),%al
     509:	00 00                	add    %al,(%eax)
     50b:	00 ad 00 00 00 02    	add    %ch,0x2000000(%ebp)
     511:	00 74 04 00          	add    %dh,0x0(%esp,%eax,1)
     515:	00 00                	add    %al,(%eax)
     517:	00 00                	add    %al,(%eax)
     519:	00 00                	add    %al,(%eax)
     51b:	00 55 00             	add    %dl,0x0(%ebp)
     51e:	00 00                	add    %al,(%eax)
     520:	8f 00                	popl   (%eax)
     522:	00 00                	add    %al,(%eax)
     524:	01 00                	add    %eax,(%eax)
     526:	50                   	push   %eax
	...
     52f:	55                   	push   %ebp
     530:	00 00                	add    %al,(%eax)
     532:	00 6a 00             	add    %ch,0x0(%edx)
     535:	00 00                	add    %al,(%eax)
     537:	01 00                	add    %eax,(%eax)
     539:	52                   	push   %edx
     53a:	6a 00                	push   $0x0
     53c:	00 00                	add    %al,(%eax)
     53e:	ad                   	lods   %ds:(%esi),%eax
     53f:	00 00                	add    %al,(%eax)
     541:	00 02                	add    %al,(%edx)
     543:	00 91 60 00 00 00    	add    %dl,0x60(%ecx)
     549:	00 00                	add    %al,(%eax)
     54b:	00 00                	add    %al,(%eax)
     54d:	00 55 00             	add    %dl,0x0(%ebp)
     550:	00 00                	add    %al,(%eax)
     552:	6f                   	outsl  %ds:(%esi),(%dx)
     553:	00 00                	add    %al,(%eax)
     555:	00 01                	add    %al,(%ecx)
     557:	00 51 6f             	add    %dl,0x6f(%ecx)
     55a:	00 00                	add    %al,(%eax)
     55c:	00 ad 00 00 00 02    	add    %ch,0x2000000(%ebp)
     562:	00 91 5c 00 00 00    	add    %dl,0x5c(%ecx)
     568:	00 00                	add    %al,(%eax)
     56a:	00 00                	add    %al,(%eax)
     56c:	00 64 00 00          	add    %ah,0x0(%eax,%eax,1)
     570:	00 6f 00             	add    %ch,0x0(%edi)
     573:	00 00                	add    %al,(%eax)
     575:	03 00                	add    (%eax),%eax
     577:	91                   	xchg   %eax,%ecx
     578:	6b 9f 6f 00 00 00 8f 	imul   $0xffffff8f,0x6f(%edi),%ebx
     57f:	00 00                	add    %al,(%eax)
     581:	00 01                	add    %al,(%ecx)
     583:	00 52 00             	add    %dl,0x0(%edx)
     586:	00 00                	add    %al,(%eax)
     588:	00 00                	add    %al,(%eax)
     58a:	00 00                	add    %al,(%eax)
     58c:	00 64 00 00          	add    %ah,0x0(%eax,%eax,1)
     590:	00 6f 00             	add    %ch,0x0(%edi)
     593:	00 00                	add    %al,(%eax)
     595:	02 00                	add    (%eax),%al
     597:	30 9f a0 00 00 00    	xor    %bl,0xa0(%edi)
     59d:	a9 00 00 00 01       	test   $0x1000000,%eax
     5a2:	00 53 00             	add    %dl,0x0(%ebx)
     5a5:	00 00                	add    %al,(%eax)
     5a7:	00 00                	add    %al,(%eax)
     5a9:	00 00                	add    %al,(%eax)
     5ab:	00 ad 00 00 00 ae    	add    %ch,-0x52000000(%ebp)
     5b1:	00 00                	add    %al,(%eax)
     5b3:	00 02                	add    %al,(%edx)
     5b5:	00 74 04 ae          	add    %dh,-0x52(%esp,%eax,1)
     5b9:	00 00                	add    %al,(%eax)
     5bb:	00 b0 00 00 00 02    	add    %dh,0x2000000(%eax)
     5c1:	00 74 08 b0          	add    %dh,-0x50(%eax,%ecx,1)
     5c5:	00 00                	add    %al,(%eax)
     5c7:	00 d1                	add    %dl,%cl
     5c9:	0e                   	push   %cs
     5ca:	00 00                	add    %al,(%eax)
     5cc:	02 00                	add    (%eax),%al
     5ce:	75 08                	jne    5d8 <main-0xfffa28>
     5d0:	d1 0e                	rorl   (%esi)
     5d2:	00 00                	add    %al,(%eax)
     5d4:	d2 0e                	rorb   %cl,(%esi)
     5d6:	00 00                	add    %al,(%eax)
     5d8:	02 00                	add    (%eax),%al
     5da:	74 04                	je     5e0 <main-0xfffa20>
	...
     5e4:	ad                   	lods   %ds:(%esi),%eax
     5e5:	00 00                	add    %al,(%eax)
     5e7:	00 c4                	add    %al,%ah
     5e9:	00 00                	add    %al,(%eax)
     5eb:	00 02                	add    %al,(%edx)
     5ed:	00 91 00 c4 00 00    	add    %dl,0xc400(%ecx)
     5f3:	00 e0                	add    %ah,%al
     5f5:	00 00                	add    %al,(%eax)
     5f7:	00 01                	add    %al,(%ecx)
     5f9:	00 57 e0             	add    %dl,-0x20(%edi)
     5fc:	00 00                	add    %al,(%eax)
     5fe:	00 02                	add    %al,(%edx)
     600:	01 00                	add    %eax,(%eax)
     602:	00 03                	add    %al,(%ebx)
     604:	00 77 01             	add    %dh,0x1(%edi)
     607:	9f                   	lahf   
     608:	02 01                	add    (%ecx),%al
     60a:	00 00                	add    %al,(%eax)
     60c:	0c 01                	or     $0x1,%al
     60e:	00 00                	add    %al,(%eax)
     610:	01 00                	add    %eax,(%eax)
     612:	57                   	push   %edi
     613:	0f 01 00             	sgdtl  (%eax)
     616:	00 e1                	add    %ah,%cl
     618:	02 00                	add    (%eax),%al
     61a:	00 01                	add    %al,(%ecx)
     61c:	00 57 e1             	add    %dl,-0x1f(%edi)
     61f:	02 00                	add    (%eax),%al
     621:	00 36                	add    %dh,(%esi)
     623:	04 00                	add    $0x0,%al
     625:	00 03                	add    %al,(%ebx)
     627:	00 91 a4 7f 36 04    	add    %dl,0x4367fa4(%ecx)
     62d:	00 00                	add    %al,(%eax)
     62f:	9d                   	popf   
     630:	0c 00                	or     $0x0,%al
     632:	00 01                	add    %al,(%ecx)
     634:	00 57 9d             	add    %dl,-0x63(%edi)
     637:	0c 00                	or     $0x0,%al
     639:	00 30                	add    %dh,(%eax)
     63b:	0e                   	push   %cs
     63c:	00 00                	add    %al,(%eax)
     63e:	03 00                	add    (%eax),%eax
     640:	91                   	xchg   %eax,%ecx
     641:	98                   	cwtl   
     642:	7f 30                	jg     674 <main-0xfff98c>
     644:	0e                   	push   %cs
     645:	00 00                	add    %al,(%eax)
     647:	d0 0e                	rorb   (%esi)
     649:	00 00                	add    %al,(%eax)
     64b:	01 00                	add    %eax,(%eax)
     64d:	57                   	push   %edi
	...
     656:	ad                   	lods   %ds:(%esi),%eax
     657:	00 00                	add    %al,(%eax)
     659:	00 9a 01 00 00 02    	add    %bl,0x2000001(%edx)
     65f:	00 91 04 9a 01 00    	add    %dl,0x19a04(%ecx)
     665:	00 f9                	add    %bh,%cl
     667:	01 00                	add    %eax,(%eax)
     669:	00 01                	add    %al,(%ecx)
     66b:	00 53 f9             	add    %dl,-0x7(%ebx)
     66e:	01 00                	add    %eax,(%eax)
     670:	00 fb                	add    %bh,%bl
     672:	01 00                	add    %eax,(%eax)
     674:	00 01                	add    %al,(%ecx)
     676:	00 56 fb             	add    %dl,-0x5(%esi)
     679:	01 00                	add    %eax,(%eax)
     67b:	00 00                	add    %al,(%eax)
     67d:	02 00                	add    (%eax),%al
     67f:	00 03                	add    %al,(%ebx)
     681:	00 91 bc 7f 00 02    	add    %dl,0x2007fbc(%ecx)
     687:	00 00                	add    %al,(%eax)
     689:	08 02                	or     %al,(%edx)
     68b:	00 00                	add    %al,(%eax)
     68d:	01 00                	add    %eax,(%eax)
     68f:	53                   	push   %ebx
     690:	08 02                	or     %al,(%edx)
     692:	00 00                	add    %al,(%eax)
     694:	87 02                	xchg   %eax,(%edx)
     696:	00 00                	add    %al,(%eax)
     698:	03 00                	add    (%eax),%eax
     69a:	91                   	xchg   %eax,%ecx
     69b:	bc 7f 87 02 00       	mov    $0x2877f,%esp
     6a0:	00 97 02 00 00 07    	add    %dl,0x7000002(%edi)
     6a6:	00 91 bc 7f 06 23    	add    %dl,0x23067fbc(%ecx)
     6ac:	04 9f                	add    $0x9f,%al
     6ae:	97                   	xchg   %eax,%edi
     6af:	02 00                	add    (%eax),%al
     6b1:	00 a9 02 00 00 01    	add    %ch,0x1000002(%ecx)
     6b7:	00 50 a9             	add    %dl,-0x57(%eax)
     6ba:	02 00                	add    (%eax),%al
     6bc:	00 36                	add    %dh,(%esi)
     6be:	04 00                	add    $0x0,%al
     6c0:	00 02                	add    %al,(%edx)
     6c2:	00 91 04 36 04 00    	add    %dl,0x43604(%ecx)
     6c8:	00 3f                	add    %bh,(%edi)
     6ca:	04 00                	add    $0x0,%al
     6cc:	00 03                	add    %al,(%ebx)
     6ce:	00 91 bc 7f 3f 04    	add    %dl,0x43f7fbc(%ecx)
     6d4:	00 00                	add    %al,(%eax)
     6d6:	57                   	push   %edi
     6d7:	04 00                	add    $0x0,%al
     6d9:	00 01                	add    %al,(%ecx)
     6db:	00 53 57             	add    %dl,0x57(%ebx)
     6de:	04 00                	add    $0x0,%al
     6e0:	00 60 04             	add    %ah,0x4(%eax)
     6e3:	00 00                	add    %al,(%eax)
     6e5:	03 00                	add    (%eax),%eax
     6e7:	91                   	xchg   %eax,%ecx
     6e8:	bc 7f 60 04 00       	mov    $0x4607f,%esp
     6ed:	00 b0 04 00 00 01    	add    %dh,0x1000004(%eax)
     6f3:	00 52 b0             	add    %dl,-0x50(%edx)
     6f6:	04 00                	add    $0x0,%al
     6f8:	00 16                	add    %dl,(%esi)
     6fa:	09 00                	or     %eax,(%eax)
     6fc:	00 02                	add    %al,(%edx)
     6fe:	00 91 04 16 09 00    	add    %dl,0x91604(%ecx)
     704:	00 2a                	add    %ch,(%edx)
     706:	09 00                	or     %eax,(%eax)
     708:	00 03                	add    %al,(%ebx)
     70a:	00 91 bc 7f 2a 09    	add    %dl,0x92a7fbc(%ecx)
     710:	00 00                	add    %al,(%eax)
     712:	52                   	push   %edx
     713:	09 00                	or     %eax,(%eax)
     715:	00 01                	add    %al,(%ecx)
     717:	00 51 52             	add    %dl,0x52(%ecx)
     71a:	09 00                	or     %eax,(%eax)
     71c:	00 09                	add    %cl,(%ecx)
     71e:	0b 00                	or     (%eax),%eax
     720:	00 02                	add    %al,(%edx)
     722:	00 91 04 09 0b 00    	add    %dl,0xb0904(%ecx)
     728:	00 c7                	add    %al,%bh
     72a:	0b 00                	or     (%eax),%eax
     72c:	00 03                	add    %al,(%ebx)
     72e:	00 91 bc 7f c7 0b    	add    %dl,0xbc77fbc(%ecx)
     734:	00 00                	add    %al,(%eax)
     736:	d7                   	xlat   %ds:(%ebx)
     737:	0b 00                	or     (%eax),%eax
     739:	00 01                	add    %al,(%ecx)
     73b:	00 52 d7             	add    %dl,-0x29(%edx)
     73e:	0b 00                	or     (%eax),%eax
     740:	00 e0                	add    %ah,%al
     742:	0b 00                	or     (%eax),%eax
     744:	00 03                	add    %al,(%ebx)
     746:	00 91 bc 7f e0 0b    	add    %dl,0xbe07fbc(%ecx)
     74c:	00 00                	add    %al,(%eax)
     74e:	e5 0b                	in     $0xb,%eax
     750:	00 00                	add    %al,(%eax)
     752:	01 00                	add    %eax,(%eax)
     754:	52                   	push   %edx
     755:	e5 0b                	in     $0xb,%eax
     757:	00 00                	add    %al,(%eax)
     759:	0f 0c                	(bad)  
     75b:	00 00                	add    %al,(%eax)
     75d:	02 00                	add    (%eax),%al
     75f:	91                   	xchg   %eax,%ecx
     760:	04 0f                	add    $0xf,%al
     762:	0c 00                	or     $0x0,%al
     764:	00 29                	add    %ch,(%ecx)
     766:	0c 00                	or     $0x0,%al
     768:	00 03                	add    %al,(%ebx)
     76a:	00 91 bc 7f 29 0c    	add    %dl,0xc297fbc(%ecx)
     770:	00 00                	add    %al,(%eax)
     772:	3a 0c 00             	cmp    (%eax,%eax,1),%cl
     775:	00 01                	add    %al,(%ecx)
     777:	00 50 3a             	add    %dl,0x3a(%eax)
     77a:	0c 00                	or     $0x0,%al
     77c:	00 43 0c             	add    %al,0xc(%ebx)
     77f:	00 00                	add    %al,(%eax)
     781:	03 00                	add    (%eax),%eax
     783:	91                   	xchg   %eax,%ecx
     784:	bc 7f 43 0c 00       	mov    $0xc437f,%esp
     789:	00 48 0c             	add    %cl,0xc(%eax)
     78c:	00 00                	add    %al,(%eax)
     78e:	01 00                	add    %eax,(%eax)
     790:	53                   	push   %ebx
     791:	48                   	dec    %eax
     792:	0c 00                	or     $0x0,%al
     794:	00 30                	add    %dh,(%eax)
     796:	0e                   	push   %cs
     797:	00 00                	add    %al,(%eax)
     799:	02 00                	add    (%eax),%al
     79b:	91                   	xchg   %eax,%ecx
     79c:	04 30                	add    $0x30,%al
     79e:	0e                   	push   %cs
     79f:	00 00                	add    %al,(%eax)
     7a1:	51                   	push   %ecx
     7a2:	0e                   	push   %cs
     7a3:	00 00                	add    %al,(%eax)
     7a5:	03 00                	add    (%eax),%eax
     7a7:	91                   	xchg   %eax,%ecx
     7a8:	bc 7f 51 0e 00       	mov    $0xe517f,%esp
     7ad:	00 d2                	add    %dl,%dl
     7af:	0e                   	push   %cs
     7b0:	00 00                	add    %al,(%eax)
     7b2:	02 00                	add    (%eax),%al
     7b4:	91                   	xchg   %eax,%ecx
     7b5:	04 00                	add    $0x0,%al
     7b7:	00 00                	add    %al,(%eax)
     7b9:	00 00                	add    %al,(%eax)
     7bb:	00 00                	add    %al,(%eax)
     7bd:	00 e0                	add    %ah,%al
     7bf:	00 00                	add    %al,(%eax)
     7c1:	00 68 01             	add    %ch,0x1(%eax)
     7c4:	00 00                	add    %al,(%eax)
     7c6:	02 00                	add    (%eax),%al
     7c8:	30 9f 72 01 00 00    	xor    %bl,0x172(%edi)
     7ce:	88 01                	mov    %al,(%ecx)
     7d0:	00 00                	add    %al,(%eax)
     7d2:	01 00                	add    %eax,(%eax)
     7d4:	51                   	push   %ecx
     7d5:	88 01                	mov    %al,(%ecx)
     7d7:	00 00                	add    %al,(%eax)
     7d9:	a2 01 00 00 02       	mov    %al,0x2000001
     7de:	00 30                	add    %dh,(%eax)
     7e0:	9f                   	lahf   
     7e1:	a2 01 00 00 b9       	mov    %al,0xb9000001
     7e6:	01 00                	add    %eax,(%eax)
     7e8:	00 03                	add    %al,(%ebx)
     7ea:	00 91 04 06 b9 01    	add    %dl,0x1b90604(%ecx)
     7f0:	00 00                	add    %al,(%eax)
     7f2:	41                   	inc    %ecx
     7f3:	0b 00                	or     (%eax),%eax
     7f5:	00 03                	add    %al,(%ebx)
     7f7:	00 91 a8 7f 41 0b    	add    %dl,0xb417fa8(%ecx)
     7fd:	00 00                	add    %al,(%eax)
     7ff:	6e                   	outsb  %ds:(%esi),(%dx)
     800:	0b 00                	or     (%eax),%eax
     802:	00 02                	add    %al,(%edx)
     804:	00 38                	add    %bh,(%eax)
     806:	9f                   	lahf   
     807:	6e                   	outsb  %ds:(%esi),(%dx)
     808:	0b 00                	or     (%eax),%eax
     80a:	00 f6                	add    %dh,%dh
     80c:	0c 00                	or     $0x0,%al
     80e:	00 03                	add    %al,(%ebx)
     810:	00 91 a8 7f f6 0c    	add    %dl,0xcf67fa8(%ecx)
     816:	00 00                	add    %al,(%eax)
     818:	21 0d 00 00 01 00    	and    %ecx,0x10000
     81e:	56                   	push   %esi
     81f:	21 0d 00 00 39 0d    	and    %ecx,0xd390000
     825:	00 00                	add    %al,(%eax)
     827:	03 00                	add    (%eax),%eax
     829:	76 7f                	jbe    8aa <main-0xfff756>
     82b:	9f                   	lahf   
     82c:	39 0d 00 00 46 0d    	cmp    %ecx,0xd460000
     832:	00 00                	add    %al,(%eax)
     834:	01 00                	add    %eax,(%eax)
     836:	53                   	push   %ebx
     837:	46                   	inc    %esi
     838:	0d 00 00 49 0d       	or     $0xd490000,%eax
     83d:	00 00                	add    %al,(%eax)
     83f:	03 00                	add    (%eax),%eax
     841:	73 7f                	jae    8c2 <main-0xfff73e>
     843:	9f                   	lahf   
     844:	49                   	dec    %ecx
     845:	0d 00 00 54 0d       	or     $0xd540000,%eax
     84a:	00 00                	add    %al,(%eax)
     84c:	01 00                	add    %eax,(%eax)
     84e:	53                   	push   %ebx
     84f:	54                   	push   %esp
     850:	0d 00 00 a8 0d       	or     $0xda80000,%eax
     855:	00 00                	add    %al,(%eax)
     857:	02 00                	add    (%eax),%al
     859:	91                   	xchg   %eax,%ecx
     85a:	44                   	inc    %esp
     85b:	a8 0d                	test   $0xd,%al
     85d:	00 00                	add    %al,(%eax)
     85f:	bd 0d 00 00 06       	mov    $0x600000d,%ebp
     864:	00 91 44 06 31 1c    	add    %dl,0x1c310644(%ecx)
     86a:	9f                   	lahf   
     86b:	bd 0d 00 00 ca       	mov    $0xca00000d,%ebp
     870:	0d 00 00 01 00       	or     $0x10000,%eax
     875:	53                   	push   %ebx
     876:	ca 0d 00             	lret   $0xd
     879:	00 cd                	add    %cl,%ch
     87b:	0d 00 00 03 00       	or     $0x30000,%eax
     880:	73 7f                	jae    901 <main-0xfff6ff>
     882:	9f                   	lahf   
     883:	cd 0d                	int    $0xd
     885:	00 00                	add    %al,(%eax)
     887:	d8 0d 00 00 01 00    	fmuls  0x10000
     88d:	53                   	push   %ebx
     88e:	d8 0d 00 00 08 0e    	fmuls  0xe080000
     894:	00 00                	add    %al,(%eax)
     896:	03 00                	add    (%eax),%eax
     898:	91                   	xchg   %eax,%ecx
     899:	bc 7f 08 0e 00       	mov    $0xe087f,%esp
     89e:	00 19                	add    %bl,(%ecx)
     8a0:	0e                   	push   %cs
     8a1:	00 00                	add    %al,(%eax)
     8a3:	07                   	pop    %es
     8a4:	00 91 bc 7f 06 31    	add    %dl,0x31067fbc(%ecx)
     8aa:	1c 9f                	sbb    $0x9f,%al
     8ac:	19 0e                	sbb    %ecx,(%esi)
     8ae:	00 00                	add    %al,(%eax)
     8b0:	26                   	es
     8b1:	0e                   	push   %cs
     8b2:	00 00                	add    %al,(%eax)
     8b4:	01 00                	add    %eax,(%eax)
     8b6:	53                   	push   %ebx
     8b7:	26                   	es
     8b8:	0e                   	push   %cs
     8b9:	00 00                	add    %al,(%eax)
     8bb:	29 0e                	sub    %ecx,(%esi)
     8bd:	00 00                	add    %al,(%eax)
     8bf:	03 00                	add    (%eax),%eax
     8c1:	73 7f                	jae    942 <main-0xfff6be>
     8c3:	9f                   	lahf   
     8c4:	29 0e                	sub    %ecx,(%esi)
     8c6:	00 00                	add    %al,(%eax)
     8c8:	30 0e                	xor    %cl,(%esi)
     8ca:	00 00                	add    %al,(%eax)
     8cc:	01 00                	add    %eax,(%eax)
     8ce:	53                   	push   %ebx
     8cf:	30 0e                	xor    %cl,(%esi)
     8d1:	00 00                	add    %al,(%eax)
     8d3:	51                   	push   %ecx
     8d4:	0e                   	push   %cs
     8d5:	00 00                	add    %al,(%eax)
     8d7:	03 00                	add    (%eax),%eax
     8d9:	91                   	xchg   %eax,%ecx
     8da:	a8 7f                	test   $0x7f,%al
     8dc:	61                   	popa   
     8dd:	0e                   	push   %cs
     8de:	00 00                	add    %al,(%eax)
     8e0:	ca 0e 00             	lret   $0xe
     8e3:	00 03                	add    %al,(%ebx)
     8e5:	00 91 a8 7f 00 00    	add    %dl,0x7fa8(%ecx)
     8eb:	00 00                	add    %al,(%eax)
     8ed:	00 00                	add    %al,(%eax)
     8ef:	00 00                	add    %al,(%eax)
     8f1:	e0 00                	loopne 8f3 <main-0xfff70d>
     8f3:	00 00                	add    %al,(%eax)
     8f5:	d1 01                	roll   (%ecx)
     8f7:	00 00                	add    %al,(%eax)
     8f9:	03 00                	add    (%eax),%eax
     8fb:	09 ff                	or     %edi,%edi
     8fd:	9f                   	lahf   
     8fe:	db 01                	fildl  (%ecx)
     900:	00 00                	add    %al,(%eax)
     902:	ee                   	out    %al,(%dx)
     903:	01 00                	add    %eax,(%eax)
     905:	00 01                	add    %al,(%ecx)
     907:	00 56 ee             	add    %dl,-0x12(%esi)
     90a:	01 00                	add    %eax,(%eax)
     90c:	00 fb                	add    %bh,%bl
     90e:	01 00                	add    %eax,(%eax)
     910:	00 03                	add    %al,(%ebx)
     912:	00 09                	add    %cl,(%ecx)
     914:	ff 9f fb 01 00 00    	lcall  *0x1fb(%edi)
     91a:	00 02                	add    %al,(%edx)
     91c:	00 00                	add    %al,(%eax)
     91e:	02 00                	add    (%eax),%al
     920:	73 00                	jae    922 <main-0xfff6de>
     922:	00 02                	add    %al,(%edx)
     924:	00 00                	add    %al,(%eax)
     926:	08 02                	or     %al,(%edx)
     928:	00 00                	add    %al,(%eax)
     92a:	03 00                	add    (%eax),%eax
     92c:	09 ff                	or     %edi,%edi
     92e:	9f                   	lahf   
     92f:	08 02                	or     %al,(%edx)
     931:	00 00                	add    %al,(%eax)
     933:	91                   	xchg   %eax,%ecx
     934:	02 00                	add    (%eax),%al
     936:	00 01                	add    %al,(%ecx)
     938:	00 56 36             	add    %dl,0x36(%esi)
     93b:	04 00                	add    $0x0,%al
     93d:	00 42 04             	add    %al,0x4(%edx)
     940:	00 00                	add    %al,(%eax)
     942:	01 00                	add    %eax,(%eax)
     944:	56                   	push   %esi
     945:	57                   	push   %edi
     946:	04 00                	add    $0x0,%al
     948:	00 6b 04             	add    %ch,0x4(%ebx)
     94b:	00 00                	add    %al,(%eax)
     94d:	01 00                	add    %eax,(%eax)
     94f:	56                   	push   %esi
     950:	16                   	push   %ss
     951:	09 00                	or     %eax,(%eax)
     953:	00 66 0a             	add    %ah,0xa(%esi)
     956:	00 00                	add    %al,(%eax)
     958:	01 00                	add    %eax,(%eax)
     95a:	56                   	push   %esi
     95b:	66                   	data16
     95c:	0a 00                	or     (%eax),%al
     95e:	00 9a 0a 00 00 03    	add    %bl,0x300000a(%edx)
     964:	00 91 bc 7f 09 0b    	add    %dl,0xb097fbc(%ecx)
     96a:	00 00                	add    %al,(%eax)
     96c:	22 0b                	and    (%ebx),%cl
     96e:	00 00                	add    %al,(%eax)
     970:	01 00                	add    %eax,(%eax)
     972:	56                   	push   %esi
     973:	2f                   	das    
     974:	0b 00                	or     (%eax),%eax
     976:	00 74 0b 00          	add    %dh,0x0(%ebx,%ecx,1)
     97a:	00 01                	add    %al,(%ecx)
     97c:	00 56 81             	add    %dl,-0x7f(%esi)
     97f:	0b 00                	or     (%eax),%eax
     981:	00 a5 0b 00 00 01    	add    %ah,0x100000b(%ebp)
     987:	00 56 ad             	add    %dl,-0x53(%esi)
     98a:	0b 00                	or     (%eax),%eax
     98c:	00 b9 0b 00 00 01    	add    %bh,0x100000b(%ecx)
     992:	00 56 0f             	add    %dl,0xf(%esi)
     995:	0c 00                	or     $0x0,%al
     997:	00 1b                	add    %bl,(%ebx)
     999:	0c 00                	or     $0x0,%al
     99b:	00 01                	add    %al,(%ecx)
     99d:	00 56 30             	add    %dl,0x30(%esi)
     9a0:	0e                   	push   %cs
     9a1:	00 00                	add    %al,(%eax)
     9a3:	45                   	inc    %ebp
     9a4:	0e                   	push   %cs
     9a5:	00 00                	add    %al,(%eax)
     9a7:	01 00                	add    %eax,(%eax)
     9a9:	56                   	push   %esi
	...
     9b2:	e0 00                	loopne 9b4 <main-0xfff64c>
     9b4:	00 00                	add    %al,(%eax)
     9b6:	02 01                	add    (%ecx),%al
     9b8:	00 00                	add    %al,(%eax)
     9ba:	02 00                	add    (%eax),%al
     9bc:	30 9f 02 01 00 00    	xor    %bl,0x102(%edi)
     9c2:	0c 01                	or     $0x1,%al
     9c4:	00 00                	add    %al,(%eax)
     9c6:	03 00                	add    (%eax),%eax
     9c8:	91                   	xchg   %eax,%ecx
     9c9:	b4 7f                	mov    $0x7f,%ah
     9cb:	0f 01 00             	sgdtl  (%eax)
     9ce:	00 b4 01 00 00 03 00 	add    %dh,0x30000(%ecx,%eax,1)
     9d5:	91                   	xchg   %eax,%ecx
     9d6:	b4 7f                	mov    $0x7f,%ah
     9d8:	b4 01                	mov    $0x1,%ah
     9da:	00 00                	add    %al,(%eax)
     9dc:	b9 01 00 00 01       	mov    $0x1000001,%ecx
     9e1:	00 52 b9             	add    %dl,-0x47(%edx)
     9e4:	01 00                	add    %eax,(%eax)
     9e6:	00 54 0e 00          	add    %dl,0x0(%esi,%ecx,1)
     9ea:	00 03                	add    %al,(%ebx)
     9ec:	00 91 b4 7f 61 0e    	add    %dl,0xe617fb4(%ecx)
     9f2:	00 00                	add    %al,(%eax)
     9f4:	ca 0e 00             	lret   $0xe
     9f7:	00 03                	add    %al,(%ebx)
     9f9:	00 91 b4 7f 00 00    	add    %dl,0x7fb4(%ecx)
     9ff:	00 00                	add    %al,(%eax)
     a01:	00 00                	add    %al,(%eax)
     a03:	00 00                	add    %al,(%eax)
     a05:	e0 00                	loopne a07 <main-0xfff5f9>
     a07:	00 00                	add    %al,(%eax)
     a09:	4a                   	dec    %edx
     a0a:	01 00                	add    %eax,(%eax)
     a0c:	00 03                	add    %al,(%ebx)
     a0e:	00 08                	add    %cl,(%eax)
     a10:	20 9f 4a 01 00 00    	and    %bl,0x14a(%edi)
     a16:	51                   	push   %ecx
     a17:	01 00                	add    %eax,(%eax)
     a19:	00 03                	add    %al,(%ebx)
     a1b:	00 08                	add    %cl,(%eax)
     a1d:	30 9f 51 01 00 00    	xor    %bl,0x151(%edi)
     a23:	41                   	inc    %ecx
     a24:	0b 00                	or     (%eax),%eax
     a26:	00 03                	add    %al,(%ebx)
     a28:	00 91 a4 7f 41 0b    	add    %dl,0xb417fa4(%ecx)
     a2e:	00 00                	add    %al,(%eax)
     a30:	6e                   	outsb  %ds:(%esi),(%dx)
     a31:	0b 00                	or     (%eax),%eax
     a33:	00 03                	add    %al,(%ebx)
     a35:	00 08                	add    %cl,(%eax)
     a37:	30 9f 6e 0b 00 00    	xor    %bl,0xb6e(%edi)
     a3d:	54                   	push   %esp
     a3e:	0e                   	push   %cs
     a3f:	00 00                	add    %al,(%eax)
     a41:	03 00                	add    (%eax),%eax
     a43:	91                   	xchg   %eax,%ecx
     a44:	a4                   	movsb  %ds:(%esi),%es:(%edi)
     a45:	7f 61                	jg     aa8 <main-0xfff558>
     a47:	0e                   	push   %cs
     a48:	00 00                	add    %al,(%eax)
     a4a:	ca 0e 00             	lret   $0xe
     a4d:	00 03                	add    %al,(%ebx)
     a4f:	00 91 a4 7f 00 00    	add    %dl,0x7fa4(%ecx)
     a55:	00 00                	add    %al,(%eax)
     a57:	00 00                	add    %al,(%eax)
     a59:	00 00                	add    %al,(%eax)
     a5b:	93                   	xchg   %eax,%ebx
     a5c:	04 00                	add    $0x0,%al
     a5e:	00 cc                	add    %cl,%ah
     a60:	04 00                	add    $0x0,%al
     a62:	00 06                	add    %al,(%esi)
     a64:	00 53 93             	add    %dl,-0x6d(%ebx)
     a67:	04 56                	add    $0x56,%al
     a69:	93                   	xchg   %eax,%ebx
     a6a:	04 e5                	add    $0xe5,%al
     a6c:	04 00                	add    $0x0,%al
     a6e:	00 35 05 00 00 03    	add    %dh,0x3000005
     a74:	00 91 bc 7f 35 05    	add    %dl,0x5357fbc(%ecx)
     a7a:	00 00                	add    %al,(%eax)
     a7c:	04 06                	add    $0x6,%al
     a7e:	00 00                	add    %al,(%eax)
     a80:	06                   	push   %es
     a81:	00 53 93             	add    %dl,-0x6d(%ebx)
     a84:	04 56                	add    $0x56,%al
     a86:	93                   	xchg   %eax,%ebx
     a87:	04 07                	add    $0x7,%al
     a89:	06                   	push   %es
     a8a:	00 00                	add    %al,(%eax)
     a8c:	1c 06                	sbb    $0x6,%al
     a8e:	00 00                	add    %al,(%eax)
     a90:	06                   	push   %es
     a91:	00 53 93             	add    %dl,-0x6d(%ebx)
     a94:	04 56                	add    $0x56,%al
     a96:	93                   	xchg   %eax,%ebx
     a97:	04 36                	add    $0x36,%al
     a99:	06                   	push   %es
     a9a:	00 00                	add    %al,(%eax)
     a9c:	75 06                	jne    aa4 <main-0xfff55c>
     a9e:	00 00                	add    %al,(%eax)
     aa0:	06                   	push   %es
     aa1:	00 53 93             	add    %dl,-0x6d(%ebx)
     aa4:	04 56                	add    $0x56,%al
     aa6:	93                   	xchg   %eax,%ebx
     aa7:	04 b4                	add    $0xb4,%al
     aa9:	06                   	push   %es
     aaa:	00 00                	add    %al,(%eax)
     aac:	fb                   	sti    
     aad:	06                   	push   %es
     aae:	00 00                	add    %al,(%eax)
     ab0:	03 00                	add    (%eax),%eax
     ab2:	91                   	xchg   %eax,%ecx
     ab3:	bc 7f 12 07 00       	mov    $0x7127f,%esp
     ab8:	00 3c 07             	add    %bh,(%edi,%eax,1)
     abb:	00 00                	add    %al,(%eax)
     abd:	06                   	push   %es
     abe:	00 53 93             	add    %dl,-0x6d(%ebx)
     ac1:	04 56                	add    $0x56,%al
     ac3:	93                   	xchg   %eax,%ebx
     ac4:	04 3c                	add    $0x3c,%al
     ac6:	07                   	pop    %es
     ac7:	00 00                	add    %al,(%eax)
     ac9:	8f 07                	popl   (%edi)
     acb:	00 00                	add    %al,(%eax)
     acd:	03 00                	add    (%eax),%eax
     acf:	91                   	xchg   %eax,%ecx
     ad0:	bc 7f a6 07 00       	mov    $0x7a67f,%esp
     ad5:	00 c5                	add    %al,%ch
     ad7:	07                   	pop    %es
     ad8:	00 00                	add    %al,(%eax)
     ada:	06                   	push   %es
     adb:	00 53 93             	add    %dl,-0x6d(%ebx)
     ade:	04 56                	add    $0x56,%al
     ae0:	93                   	xchg   %eax,%ebx
     ae1:	04 c5                	add    $0xc5,%al
     ae3:	07                   	pop    %es
     ae4:	00 00                	add    %al,(%eax)
     ae6:	2b 08                	sub    (%eax),%ecx
     ae8:	00 00                	add    %al,(%eax)
     aea:	03 00                	add    (%eax),%eax
     aec:	91                   	xchg   %eax,%ecx
     aed:	bc 7f 41 08 00       	mov    $0x8417f,%esp
     af2:	00 44 08 00          	add    %al,0x0(%eax,%ecx,1)
     af6:	00 06                	add    %al,(%esi)
     af8:	00 53 93             	add    %dl,-0x6d(%ebx)
     afb:	04 56                	add    $0x56,%al
     afd:	93                   	xchg   %eax,%ebx
     afe:	04 5d                	add    $0x5d,%al
     b00:	08 00                	or     %al,(%eax)
     b02:	00 e0                	add    %ah,%al
     b04:	08 00                	or     %al,(%eax)
     b06:	00 03                	add    %al,(%ebx)
     b08:	00 91 bc 7f 45 09    	add    %dl,0x9457fbc(%ecx)
     b0e:	00 00                	add    %al,(%eax)
     b10:	81 09 00 00 0a 00    	orl    $0xa0000,(%ecx)
     b16:	9e                   	sahf   
     b17:	08 00                	or     %al,(%eax)
     b19:	00 00                	add    %al,(%eax)
     b1b:	00 00                	add    %al,(%eax)
     b1d:	00 00                	add    %al,(%eax)
     b1f:	00 81 09 00 00 c4    	add    %al,-0x3bfffff7(%ecx)
     b25:	09 00                	or     %eax,(%eax)
     b27:	00 0a                	add    %cl,(%edx)
     b29:	00 9e 08 01 00 00    	add    %bl,0x108(%esi)
     b2f:	00 00                	add    %al,(%eax)
     b31:	00 00                	add    %al,(%eax)
     b33:	00 c4                	add    %al,%ah
     b35:	09 00                	or     %eax,(%eax)
     b37:	00 d4                	add    %dl,%ah
     b39:	09 00                	or     %eax,(%eax)
     b3b:	00 0a                	add    %cl,(%edx)
     b3d:	00 9e 08 00 00 00    	add    %bl,0x8(%esi)
     b43:	00 00                	add    %al,(%eax)
     b45:	00 00                	add    %al,(%eax)
     b47:	00 dc                	add    %bl,%ah
     b49:	09 00                	or     %eax,(%eax)
     b4b:	00 e6                	add    %ah,%dh
     b4d:	09 00                	or     %eax,(%eax)
     b4f:	00 02                	add    %al,(%edx)
     b51:	00 91 44 e6 09 00    	add    %dl,0x9e644(%ecx)
     b57:	00 f4                	add    %dh,%ah
     b59:	09 00                	or     %eax,(%eax)
     b5b:	00 0a                	add    %cl,(%edx)
     b5d:	00 9e 08 00 00 00    	add    %bl,0x8(%esi)
     b63:	00 00                	add    %al,(%eax)
     b65:	00 00                	add    %al,(%eax)
     b67:	00 f4                	add    %dh,%ah
     b69:	09 00                	or     %eax,(%eax)
     b6b:	00 80 0a 00 00 02    	add    %al,0x200000a(%eax)
     b71:	00 91 44 93 0a 00    	add    %dl,0xa9344(%ecx)
     b77:	00 09                	add    %cl,(%ecx)
     b79:	0b 00                	or     (%eax),%eax
     b7b:	00 02                	add    %al,(%edx)
     b7d:	00 91 44 d5 0b 00    	add    %dl,0xbd544(%ecx)
     b83:	00 d7                	add    %dl,%bh
     b85:	0b 00                	or     (%eax),%eax
     b87:	00 03                	add    %al,(%ebx)
     b89:	00 91 bc 7f f0 0b    	add    %dl,0xbf07fbc(%ecx)
     b8f:	00 00                	add    %al,(%eax)
     b91:	0f 0c                	(bad)  
     b93:	00 00                	add    %al,(%eax)
     b95:	03 00                	add    (%eax),%eax
     b97:	91                   	xchg   %eax,%ecx
     b98:	bc 7f 61 0e 00       	mov    $0xe617f,%esp
     b9d:	00 75 0e             	add    %dh,0xe(%ebp)
     ba0:	00 00                	add    %al,(%eax)
     ba2:	06                   	push   %es
     ba3:	00 53 93             	add    %dl,-0x6d(%ebx)
     ba6:	04 56                	add    $0x56,%al
     ba8:	93                   	xchg   %eax,%ebx
     ba9:	04 75                	add    $0x75,%al
     bab:	0e                   	push   %cs
     bac:	00 00                	add    %al,(%eax)
     bae:	ca 0e 00             	lret   $0xe
     bb1:	00 03                	add    %al,(%ebx)
     bb3:	00 91 bc 7f 00 00    	add    %dl,0x7fbc(%ecx)
     bb9:	00 00                	add    %al,(%eax)
     bbb:	00 00                	add    %al,(%eax)
     bbd:	00 00                	add    %al,(%eax)
     bbf:	36                   	ss
     bc0:	06                   	push   %es
     bc1:	00 00                	add    %al,(%eax)
     bc3:	67 06                	addr16 push %es
     bc5:	00 00                	add    %al,(%eax)
     bc7:	0a 00                	or     (%eax),%al
     bc9:	9e                   	sahf   
     bca:	08 01                	or     %al,(%ecx)
     bcc:	00 00                	add    %al,(%eax)
     bce:	00 00                	add    %al,(%eax)
     bd0:	00 00                	add    %al,(%eax)
     bd2:	00 67 06             	add    %ah,0x6(%edi)
     bd5:	00 00                	add    %al,(%eax)
     bd7:	16                   	push   %ss
     bd8:	09 00                	or     %eax,(%eax)
     bda:	00 03                	add    %al,(%ebx)
     bdc:	00 91 8c 7f 61 0e    	add    %dl,0xe617f8c(%ecx)
     be2:	00 00                	add    %al,(%eax)
     be4:	ca 0e 00             	lret   $0xe
     be7:	00 03                	add    %al,(%ebx)
     be9:	00 91 8c 7f 00 00    	add    %dl,0x7f8c(%ecx)
     bef:	00 00                	add    %al,(%eax)
     bf1:	00 00                	add    %al,(%eax)
     bf3:	00 00                	add    %al,(%eax)
     bf5:	91                   	xchg   %eax,%ecx
     bf6:	02 00                	add    (%eax),%al
     bf8:	00 de                	add    %bl,%dh
     bfa:	02 00                	add    (%eax),%al
     bfc:	00 06                	add    %al,(%esi)
     bfe:	00 53 93             	add    %dl,-0x6d(%ebx)
     c01:	04 56                	add    $0x56,%al
     c03:	93                   	xchg   %eax,%ebx
     c04:	04 f6                	add    $0xf6,%al
     c06:	0b 00                	or     (%eax),%eax
     c08:	00 01                	add    %al,(%ecx)
     c0a:	0c 00                	or     $0x0,%al
     c0c:	00 06                	add    %al,(%esi)
     c0e:	00 53 93             	add    %dl,-0x6d(%ebx)
     c11:	04 56                	add    $0x56,%al
     c13:	93                   	xchg   %eax,%ebx
     c14:	04 06                	add    $0x6,%al
     c16:	0c 00                	or     $0x0,%al
     c18:	00 0f                	add    %cl,(%edi)
     c1a:	0c 00                	or     $0x0,%al
     c1c:	00 06                	add    %al,(%esi)
     c1e:	00 53 93             	add    %dl,-0x6d(%ebx)
     c21:	04 56                	add    $0x56,%al
     c23:	93                   	xchg   %eax,%ebx
     c24:	04 31                	add    $0x31,%al
     c26:	0c 00                	or     $0x0,%al
     c28:	00 3a                	add    %bh,(%edx)
     c2a:	0c 00                	or     $0x0,%al
     c2c:	00 06                	add    %al,(%esi)
     c2e:	00 53 93             	add    %dl,-0x6d(%ebx)
     c31:	04 56                	add    $0x56,%al
     c33:	93                   	xchg   %eax,%ebx
     c34:	04 4d                	add    $0x4d,%al
     c36:	0c 00                	or     $0x0,%al
     c38:	00 df                	add    %bl,%bh
     c3a:	0c 00                	or     $0x0,%al
     c3c:	00 06                	add    %al,(%esi)
     c3e:	00 53 93             	add    %dl,-0x6d(%ebx)
     c41:	04 56                	add    $0x56,%al
     c43:	93                   	xchg   %eax,%ebx
     c44:	04 e1                	add    $0xe1,%al
     c46:	0c 00                	or     $0x0,%al
     c48:	00 06                	add    %al,(%esi)
     c4a:	0d 00 00 06 00       	or     $0x60000,%eax
     c4f:	53                   	push   %ebx
     c50:	93                   	xchg   %eax,%ebx
     c51:	04 56                	add    $0x56,%al
     c53:	93                   	xchg   %eax,%ebx
     c54:	04 00                	add    $0x0,%al
     c56:	00 00                	add    %al,(%eax)
     c58:	00 00                	add    %al,(%eax)
     c5a:	00 00                	add    %al,(%eax)
     c5c:	00 e0                	add    %ah,%al
     c5e:	00 00                	add    %al,(%eax)
     c60:	00 02                	add    %al,(%edx)
     c62:	01 00                	add    %eax,(%eax)
     c64:	00 02                	add    %al,(%edx)
     c66:	00 30                	add    %dh,(%eax)
     c68:	9f                   	lahf   
     c69:	02 01                	add    (%ecx),%al
     c6b:	00 00                	add    %al,(%eax)
     c6d:	09 01                	or     %eax,(%ecx)
     c6f:	00 00                	add    %al,(%eax)
     c71:	01 00                	add    %eax,(%eax)
     c73:	50                   	push   %eax
     c74:	0f 01 00             	sgdtl  (%eax)
     c77:	00 2d 01 00 00 01    	add    %ch,0x1000001
     c7d:	00 50 32             	add    %dl,0x32(%eax)
     c80:	01 00                	add    %eax,(%eax)
     c82:	00 3c 01             	add    %bh,(%ecx,%eax,1)
     c85:	00 00                	add    %al,(%eax)
     c87:	01 00                	add    %eax,(%eax)
     c89:	50                   	push   %eax
     c8a:	3e 01 00             	add    %eax,%ds:(%eax)
     c8d:	00 8a 02 00 00 01    	add    %cl,0x1000002(%edx)
     c93:	00 50 36             	add    %dl,0x36(%eax)
     c96:	04 00                	add    $0x0,%al
     c98:	00 45 04             	add    %al,0x4(%ebp)
     c9b:	00 00                	add    %al,(%eax)
     c9d:	01 00                	add    %eax,(%eax)
     c9f:	50                   	push   %eax
     ca0:	57                   	push   %edi
     ca1:	04 00                	add    $0x0,%al
     ca3:	00 ae 04 00 00 01    	add    %ch,0x1000004(%esi)
     ca9:	00 50 1c             	add    %dl,0x1c(%eax)
     cac:	06                   	push   %es
     cad:	00 00                	add    %al,(%eax)
     caf:	39 06                	cmp    %eax,(%esi)
     cb1:	00 00                	add    %al,(%eax)
     cb3:	01 00                	add    %eax,(%eax)
     cb5:	50                   	push   %eax
     cb6:	16                   	push   %ss
     cb7:	09 00                	or     %eax,(%eax)
     cb9:	00 1e                	add    %bl,(%esi)
     cbb:	09 00                	or     %eax,(%eax)
     cbd:	00 01                	add    %al,(%ecx)
     cbf:	00 50 09             	add    %dl,0x9(%eax)
     cc2:	0b 00                	or     (%eax),%eax
     cc4:	00 34 0b             	add    %dh,(%ebx,%ecx,1)
     cc7:	00 00                	add    %al,(%eax)
     cc9:	01 00                	add    %eax,(%eax)
     ccb:	50                   	push   %eax
     ccc:	41                   	inc    %ecx
     ccd:	0b 00                	or     (%eax),%eax
     ccf:	00 51 0b             	add    %dl,0xb(%ecx)
     cd2:	00 00                	add    %al,(%eax)
     cd4:	01 00                	add    %eax,(%eax)
     cd6:	50                   	push   %eax
     cd7:	81 0b 00 00 1b 0c    	orl    $0xc1b0000,(%ebx)
     cdd:	00 00                	add    %al,(%eax)
     cdf:	01 00                	add    %eax,(%eax)
     ce1:	50                   	push   %eax
     ce2:	30 0e                	xor    %cl,(%esi)
     ce4:	00 00                	add    %al,(%eax)
     ce6:	4a                   	dec    %edx
     ce7:	0e                   	push   %cs
     ce8:	00 00                	add    %al,(%eax)
     cea:	01 00                	add    %eax,(%eax)
     cec:	50                   	push   %eax
	...
     cf5:	e0 00                	loopne cf7 <main-0xfff309>
     cf7:	00 00                	add    %al,(%eax)
     cf9:	f6                   	(bad)  
     cfa:	0b 00                	or     (%eax),%eax
     cfc:	00 02                	add    %al,(%edx)
     cfe:	00 30                	add    %dh,(%eax)
     d00:	9f                   	lahf   
     d01:	f6                   	(bad)  
     d02:	0b 00                	or     (%eax),%eax
     d04:	00 06                	add    %al,(%esi)
     d06:	0c 00                	or     $0x0,%al
     d08:	00 01                	add    %al,(%ecx)
     d0a:	00 50 06             	add    %dl,0x6(%eax)
     d0d:	0c 00                	or     $0x0,%al
     d0f:	00 0f                	add    %cl,(%edi)
     d11:	0c 00                	or     $0x0,%al
     d13:	00 03                	add    %al,(%ebx)
     d15:	00 08                	add    %cl,(%eax)
     d17:	2d 9f 0f 0c 00       	sub    $0xc0f9f,%eax
     d1c:	00 54 0c 00          	add    %dl,0x0(%esp,%ecx,1)
     d20:	00 02                	add    %al,(%edx)
     d22:	00 30                	add    %dh,(%eax)
     d24:	9f                   	lahf   
     d25:	54                   	push   %esp
     d26:	0c 00                	or     $0x0,%al
     d28:	00 30                	add    %dh,(%eax)
     d2a:	0e                   	push   %cs
     d2b:	00 00                	add    %al,(%eax)
     d2d:	03 00                	add    (%eax),%eax
     d2f:	91                   	xchg   %eax,%ecx
     d30:	9c                   	pushf  
     d31:	7f 30                	jg     d63 <main-0xfff29d>
     d33:	0e                   	push   %cs
     d34:	00 00                	add    %al,(%eax)
     d36:	51                   	push   %ecx
     d37:	0e                   	push   %cs
     d38:	00 00                	add    %al,(%eax)
     d3a:	02 00                	add    (%eax),%al
     d3c:	30 9f 61 0e 00 00    	xor    %bl,0xe61(%edi)
     d42:	ca 0e 00             	lret   $0xe
     d45:	00 02                	add    %al,(%edx)
     d47:	00 30                	add    %dh,(%eax)
     d49:	9f                   	lahf   
	...
     d52:	e0 00                	loopne d54 <main-0xfff2ac>
     d54:	00 00                	add    %al,(%eax)
     d56:	02 01                	add    (%ecx),%al
     d58:	00 00                	add    %al,(%eax)
     d5a:	02 00                	add    (%eax),%al
     d5c:	30 9f 02 01 00 00    	xor    %bl,0x102(%edi)
     d62:	0c 01                	or     $0x1,%al
     d64:	00 00                	add    %al,(%eax)
     d66:	02 00                	add    (%eax),%al
     d68:	91                   	xchg   %eax,%ecx
     d69:	44                   	inc    %esp
     d6a:	0f 01 00             	sgdtl  (%eax)
     d6d:	00 54 0e 00          	add    %dl,0x0(%esi,%ecx,1)
     d71:	00 02                	add    %al,(%edx)
     d73:	00 91 44 61 0e 00    	add    %dl,0xe6144(%ecx)
     d79:	00 ca                	add    %cl,%dl
     d7b:	0e                   	push   %cs
     d7c:	00 00                	add    %al,(%eax)
     d7e:	02 00                	add    (%eax),%al
     d80:	91                   	xchg   %eax,%ecx
     d81:	44                   	inc    %esp
	...
     d8a:	23 02                	and    (%edx),%eax
     d8c:	00 00                	add    %al,(%eax)
     d8e:	12 0b                	adc    (%ebx),%cl
     d90:	00 00                	add    %al,(%eax)
     d92:	02 00                	add    (%eax),%al
     d94:	30 9f 12 0b 00 00    	xor    %bl,0xb12(%edi)
     d9a:	1c 0b                	sbb    $0xb,%al
     d9c:	00 00                	add    %al,(%eax)
     d9e:	05 00 03 14 2a       	add    $0x2a140300,%eax
     da3:	00 01                	add    %al,(%ecx)
     da5:	1c 0b                	sbb    $0xb,%al
     da7:	00 00                	add    %al,(%eax)
     da9:	25 0b 00 00 02       	and    $0x200000b,%eax
     dae:	00 30                	add    %dh,(%eax)
     db0:	9f                   	lahf   
     db1:	25 0b 00 00 2f       	and    $0x2f00000b,%eax
     db6:	0b 00                	or     (%eax),%eax
     db8:	00 05 00 03 14 2a    	add    %al,0x2a140300
     dbe:	00 01                	add    %al,(%ecx)
     dc0:	2f                   	das    
     dc1:	0b 00                	or     (%eax),%eax
     dc3:	00 37                	add    %dh,(%edi)
     dc5:	0b 00                	or     (%eax),%eax
     dc7:	00 02                	add    %al,(%edx)
     dc9:	00 30                	add    %dh,(%eax)
     dcb:	9f                   	lahf   
     dcc:	37                   	aaa    
     dcd:	0b 00                	or     (%eax),%eax
     dcf:	00 41 0b             	add    %al,0xb(%ecx)
     dd2:	00 00                	add    %al,(%eax)
     dd4:	05 00 03 14 2a       	add    $0x2a140300,%eax
     dd9:	00 01                	add    %al,(%ecx)
     ddb:	41                   	inc    %ecx
     ddc:	0b 00                	or     (%eax),%eax
     dde:	00 77 0b             	add    %dh,0xb(%edi)
     de1:	00 00                	add    %al,(%eax)
     de3:	02 00                	add    (%eax),%al
     de5:	30 9f 77 0b 00 00    	xor    %bl,0xb77(%edi)
     deb:	81 0b 00 00 05 00    	orl    $0x50000,(%ebx)
     df1:	03 14 2a             	add    (%edx,%ebp,1),%edx
     df4:	00 01                	add    %al,(%ecx)
     df6:	81 0b 00 00 8a 0b    	orl    $0xb8a0000,(%ebx)
     dfc:	00 00                	add    %al,(%eax)
     dfe:	02 00                	add    (%eax),%al
     e00:	30 9f 8a 0b 00 00    	xor    %bl,0xb8a(%edi)
     e06:	91                   	xchg   %eax,%ecx
     e07:	0b 00                	or     (%eax),%eax
     e09:	00 05 00 03 14 2a    	add    %al,0x2a140300
     e0f:	00 01                	add    %al,(%ecx)
     e11:	91                   	xchg   %eax,%ecx
     e12:	0b 00                	or     (%eax),%eax
     e14:	00 9a 0b 00 00 02    	add    %bl,0x200000b(%edx)
     e1a:	00 30                	add    %dh,(%eax)
     e1c:	9f                   	lahf   
     e1d:	9a 0b 00 00 9f 0b 00 	lcall  $0xb,$0x9f00000b
     e24:	00 05 00 03 14 2a    	add    %al,0x2a140300
     e2a:	00 01                	add    %al,(%ecx)
     e2c:	9f                   	lahf   
     e2d:	0b 00                	or     (%eax),%eax
     e2f:	00 a8 0b 00 00 02    	add    %ch,0x200000b(%eax)
     e35:	00 30                	add    %dh,(%eax)
     e37:	9f                   	lahf   
     e38:	a8 0b                	test   $0xb,%al
     e3a:	00 00                	add    %al,(%eax)
     e3c:	ad                   	lods   %ds:(%esi),%eax
     e3d:	0b 00                	or     (%eax),%eax
     e3f:	00 05 00 03 14 2a    	add    %al,0x2a140300
     e45:	00 01                	add    %al,(%ecx)
     e47:	ad                   	lods   %ds:(%esi),%eax
     e48:	0b 00                	or     (%eax),%eax
     e4a:	00 b9 0b 00 00 02    	add    %bh,0x200000b(%ecx)
     e50:	00 30                	add    %dh,(%eax)
     e52:	9f                   	lahf   
     e53:	b9 0b 00 00 0f       	mov    $0xf00000b,%ecx
     e58:	0c 00                	or     $0x0,%al
     e5a:	00 03                	add    %al,(%ebx)
     e5c:	00 91 ac 7f 0f 0c    	add    %dl,0xc0f7fac(%ecx)
     e62:	00 00                	add    %al,(%eax)
     e64:	1b 0c 00             	sbb    (%eax,%eax,1),%ecx
     e67:	00 02                	add    %al,(%edx)
     e69:	00 30                	add    %dh,(%eax)
     e6b:	9f                   	lahf   
     e6c:	1b 0c 00             	sbb    (%eax,%eax,1),%ecx
     e6f:	00 30                	add    %dh,(%eax)
     e71:	0e                   	push   %cs
     e72:	00 00                	add    %al,(%eax)
     e74:	03 00                	add    (%eax),%eax
     e76:	91                   	xchg   %eax,%ecx
     e77:	ac                   	lods   %ds:(%esi),%al
     e78:	7f 30                	jg     eaa <main-0xfff156>
     e7a:	0e                   	push   %cs
     e7b:	00 00                	add    %al,(%eax)
     e7d:	51                   	push   %ecx
     e7e:	0e                   	push   %cs
     e7f:	00 00                	add    %al,(%eax)
     e81:	02 00                	add    (%eax),%al
     e83:	30 9f 61 0e 00 00    	xor    %bl,0xe61(%edi)
     e89:	ca 0e 00             	lret   $0xe
     e8c:	00 02                	add    %al,(%edx)
     e8e:	00 30                	add    %dh,(%eax)
     e90:	9f                   	lahf   
	...
     e99:	a6                   	cmpsb  %es:(%edi),%ds:(%esi)
     e9a:	02 00                	add    (%eax),%al
     e9c:	00 bb 02 00 00 01    	add    %bh,0x1000002(%ebx)
     ea2:	00 51 bb             	add    %dl,-0x45(%ecx)
     ea5:	02 00                	add    (%eax),%al
     ea7:	00 36                	add    %dh,(%esi)
     ea9:	04 00                	add    $0x0,%al
     eab:	00 03                	add    %al,(%ebx)
     ead:	00 91 a8 7f b9 0b    	add    %dl,0xbb97fa8(%ecx)
     eb3:	00 00                	add    %al,(%eax)
     eb5:	0f 0c                	(bad)  
     eb7:	00 00                	add    %al,(%eax)
     eb9:	01 00                	add    %eax,(%eax)
     ebb:	51                   	push   %ecx
     ebc:	1b 0c 00             	sbb    (%eax,%eax,1),%ecx
     ebf:	00 9d 0c 00 00 01    	add    %bl,0x100000c(%ebp)
     ec5:	00 51 9d             	add    %dl,-0x63(%ecx)
     ec8:	0c 00                	or     $0x0,%al
     eca:	00 30                	add    %dh,(%eax)
     ecc:	0e                   	push   %cs
     ecd:	00 00                	add    %al,(%eax)
     ecf:	02 00                	add    (%eax),%al
     ed1:	91                   	xchg   %eax,%ecx
     ed2:	44                   	inc    %esp
	...
     edb:	2a 03                	sub    (%ebx),%al
     edd:	00 00                	add    %al,(%eax)
     edf:	2e 03 00             	add    %cs:(%eax),%eax
     ee2:	00 02                	add    %al,(%edx)
     ee4:	00 73 00             	add    %dh,0x0(%ebx)
     ee7:	2e 03 00             	add    %cs:(%eax),%eax
     eea:	00 39                	add    %bh,(%ecx)
     eec:	03 00                	add    (%eax),%eax
     eee:	00 01                	add    %al,(%ecx)
     ef0:	00 50 40             	add    %dl,0x40(%eax)
     ef3:	03 00                	add    (%eax),%eax
     ef5:	00 44 03 00          	add    %al,0x0(%ebx,%eax,1)
     ef9:	00 02                	add    %al,(%edx)
     efb:	00 73 00             	add    %dh,0x0(%ebx)
     efe:	44                   	inc    %esp
     eff:	03 00                	add    (%eax),%eax
     f01:	00 4f 03             	add    %cl,0x3(%edi)
     f04:	00 00                	add    %al,(%eax)
     f06:	01 00                	add    %eax,(%eax)
     f08:	50                   	push   %eax
     f09:	c9                   	leave  
     f0a:	03 00                	add    (%eax),%eax
     f0c:	00 cf                	add    %cl,%bh
     f0e:	03 00                	add    (%eax),%eax
     f10:	00 02                	add    %al,(%edx)
     f12:	00 73 00             	add    %dh,0x0(%ebx)
     f15:	e5 03                	in     $0x3,%eax
     f17:	00 00                	add    %al,(%eax)
     f19:	f0 03 00             	lock add (%eax),%eax
     f1c:	00 01                	add    %al,(%ecx)
     f1e:	00 50 f7             	add    %dl,-0x9(%eax)
     f21:	03 00                	add    (%eax),%eax
     f23:	00 fd                	add    %bh,%ch
     f25:	03 00                	add    (%eax),%eax
     f27:	00 02                	add    %al,(%edx)
     f29:	00 73 00             	add    %dh,0x0(%ebx)
     f2c:	3f                   	aas    
     f2d:	04 00                	add    $0x0,%al
     f2f:	00 51 04             	add    %dl,0x4(%ecx)
     f32:	00 00                	add    %al,(%eax)
     f34:	04 00                	add    $0x0,%al
     f36:	91                   	xchg   %eax,%ecx
     f37:	bc 7f 06 00 00       	mov    $0x67f,%esp
     f3c:	00 00                	add    %al,(%eax)
     f3e:	00 00                	add    %al,(%eax)
     f40:	00 00                	add    %al,(%eax)
     f42:	e0 00                	loopne f44 <main-0xfff0bc>
     f44:	00 00                	add    %al,(%eax)
     f46:	15 02 00 00 02       	adc    $0x2000002,%eax
     f4b:	00 30                	add    %dh,(%eax)
     f4d:	9f                   	lahf   
     f4e:	18 02                	sbb    %al,(%edx)
     f50:	00 00                	add    %al,(%eax)
     f52:	23 02                	and    (%edx),%eax
     f54:	00 00                	add    %al,(%eax)
     f56:	01 00                	add    %eax,(%eax)
     f58:	53                   	push   %ebx
	...
     f61:	54                   	push   %esp
     f62:	0c 00                	or     $0x0,%al
     f64:	00 9d 0c 00 00 03    	add    %bl,0x300000c(%ebp)
     f6a:	00 91 fc 7e 9d 0c    	add    %dl,0xc9d7efc(%ecx)
     f70:	00 00                	add    %al,(%eax)
     f72:	ed                   	in     (%dx),%eax
     f73:	0c 00                	or     $0x0,%al
     f75:	00 01                	add    %al,(%ecx)
     f77:	00 57 ed             	add    %dl,-0x13(%edi)
     f7a:	0c 00                	or     $0x0,%al
     f7c:	00 de                	add    %bl,%dh
     f7e:	0d 00 00 03 00       	or     $0x30000,%eax
     f83:	91                   	xchg   %eax,%ecx
     f84:	ac                   	lods   %ds:(%esi),%al
     f85:	7f de                	jg     f65 <main-0xfff09b>
     f87:	0d 00 00 0b 0e       	or     $0xe0b0000,%eax
     f8c:	00 00                	add    %al,(%eax)
     f8e:	01 00                	add    %eax,(%eax)
     f90:	53                   	push   %ebx
	...
     f99:	54                   	push   %esp
     f9a:	0c 00                	or     $0x0,%al
     f9c:	00 9d 0c 00 00 02    	add    %bl,0x200000c(%ebp)
     fa2:	00 30                	add    %dh,(%eax)
     fa4:	9f                   	lahf   
     fa5:	9d                   	popf   
     fa6:	0c 00                	or     $0x0,%al
     fa8:	00 83 0d 00 00 03    	add    %al,0x300000d(%ebx)
     fae:	00 91 bc 7f 83 0d    	add    %dl,0xd837fbc(%ecx)
     fb4:	00 00                	add    %al,(%eax)
     fb6:	9c                   	pushf  
     fb7:	0d 00 00 01 00       	or     $0x10000,%eax
     fbc:	53                   	push   %ebx
	...
     fc5:	a0 02 00 00 a6       	mov    0xa6000002,%al
     fca:	02 00                	add    (%eax),%al
     fcc:	00 06                	add    %al,(%esi)
     fce:	00 91 bc 7f 06 23    	add    %dl,0x23067fbc(%ecx)
     fd4:	04 a6                	add    $0xa6,%al
     fd6:	02 00                	add    (%eax),%al
     fd8:	00 bb 02 00 00 0a    	add    %bh,0xa000002(%ebx)
     fde:	00 91 bc 7f 06 23    	add    %dl,0x23067fbc(%ecx)
     fe4:	04 06                	add    $0x6,%al
     fe6:	23 01                	and    (%ecx),%eax
     fe8:	9f                   	lahf   
     fe9:	bb 02 00 00 e9       	mov    $0xe9000002,%ebx
     fee:	02 00                	add    (%eax),%al
     ff0:	00 06                	add    %al,(%esi)
     ff2:	00 91 44 06 23 01    	add    %dl,0x1230644(%ecx)
     ff8:	9f                   	lahf   
     ff9:	e9 02 00 00 ec       	jmp    ec001000 <_end+0xeaffe5e4>
     ffe:	02 00                	add    (%eax),%al
    1000:	00 03                	add    %al,(%ebx)
    1002:	00 73 01             	add    %dh,0x1(%ebx)
    1005:	9f                   	lahf   
    1006:	ec                   	in     (%dx),%al
    1007:	02 00                	add    (%eax),%al
    1009:	00 e5                	add    %ah,%ch
    100b:	03 00                	add    (%eax),%eax
    100d:	00 01                	add    %al,(%ecx)
    100f:	00 53 f4             	add    %dl,-0xc(%ebx)
    1012:	03 00                	add    (%eax),%eax
    1014:	00 fd                	add    %bh,%ch
    1016:	03 00                	add    (%eax),%eax
    1018:	00 01                	add    %al,(%ecx)
    101a:	00 53 00             	add    %dl,0x0(%ebx)
    101d:	04 00                	add    $0x0,%al
    101f:	00 0b                	add    %cl,(%ebx)
    1021:	04 00                	add    $0x0,%al
    1023:	00 01                	add    %al,(%ecx)
    1025:	00 53 0b             	add    %dl,0xb(%ebx)
    1028:	04 00                	add    $0x0,%al
    102a:	00 36                	add    %dh,(%esi)
    102c:	04 00                	add    $0x0,%al
    102e:	00 03                	add    %al,(%ebx)
    1030:	00 73 01             	add    %dh,0x1(%ebx)
    1033:	9f                   	lahf   
	...
    103c:	e9 02 00 00 17       	jmp    17001043 <_end+0x15ffe627>
    1041:	03 00                	add    (%eax),%eax
    1043:	00 03                	add    %al,(%ebx)
    1045:	00 91 ac 7f 17 03    	add    %dl,0x3177fac(%ecx)
    104b:	00 00                	add    %al,(%eax)
    104d:	1e                   	push   %ds
    104e:	03 00                	add    (%eax),%eax
    1050:	00 02                	add    %al,(%edx)
    1052:	00 31                	add    %dh,(%ecx)
    1054:	9f                   	lahf   
    1055:	1e                   	push   %ds
    1056:	03 00                	add    (%eax),%eax
    1058:	00 dc                	add    %bl,%ah
    105a:	03 00                	add    (%eax),%eax
    105c:	00 03                	add    %al,(%ebx)
    105e:	00 91 ac 7f dc 03    	add    %dl,0x3dc7fac(%ecx)
    1064:	00 00                	add    %al,(%eax)
    1066:	e5 03                	in     $0x3,%eax
    1068:	00 00                	add    %al,(%eax)
    106a:	02 00                	add    (%eax),%al
    106c:	31 9f e5 03 00 00    	xor    %ebx,0x3e5(%edi)
    1072:	36                   	ss
    1073:	04 00                	add    $0x0,%al
    1075:	00 03                	add    %al,(%ebx)
    1077:	00 91 ac 7f 00 00    	add    %dl,0x7fac(%ecx)
    107d:	00 00                	add    %al,(%eax)
    107f:	00 00                	add    %al,(%eax)
    1081:	00 00                	add    %al,(%eax)
    1083:	e9 02 00 00 07       	jmp    700108a <_end+0x5ffe66e>
    1088:	03 00                	add    (%eax),%eax
    108a:	00 01                	add    %al,(%ecx)
    108c:	00 52 07             	add    %dl,0x7(%edx)
    108f:	03 00                	add    (%eax),%eax
    1091:	00 05 04 00 00 02    	add    %al,0x2000004
    1097:	00 91 44 0b 04 00    	add    %dl,0x40b44(%ecx)
    109d:	00 30                	add    %dh,(%eax)
    109f:	04 00                	add    $0x0,%al
    10a1:	00 01                	add    %al,(%ecx)
    10a3:	00 52 30             	add    %dl,0x30(%edx)
    10a6:	04 00                	add    $0x0,%al
    10a8:	00 36                	add    %dh,(%esi)
    10aa:	04 00                	add    $0x0,%al
    10ac:	00 02                	add    %al,(%edx)
    10ae:	00 91 44 00 00 00    	add    %dl,0x44(%ecx)
    10b4:	00 00                	add    %al,(%eax)
    10b6:	00 00                	add    %al,(%eax)
    10b8:	00 24 03             	add    %ah,(%ebx,%eax,1)
    10bb:	00 00                	add    %al,(%eax)
    10bd:	2e 03 00             	add    %cs:(%eax),%eax
    10c0:	00 01                	add    %al,(%ecx)
    10c2:	00 52 2e             	add    %dl,0x2e(%edx)
    10c5:	03 00                	add    (%eax),%eax
    10c7:	00 93 03 00 00 03    	add    %dl,0x3000003(%ebx)
    10cd:	00 91 bc 7f 00 00    	add    %dl,0x7fbc(%ecx)
    10d3:	00 00                	add    %al,(%eax)
    10d5:	00 00                	add    %al,(%eax)
    10d7:	00 00                	add    %al,(%eax)
    10d9:	2f                   	das    
    10da:	09 00                	or     %eax,(%eax)
    10dc:	00 39                	add    %bh,(%ecx)
    10de:	09 00                	or     %eax,(%eax)
    10e0:	00 04 00             	add    %al,(%eax,%eax,1)
    10e3:	91                   	xchg   %eax,%ecx
    10e4:	bc 7f 06 39 09       	mov    $0x939067f,%esp
    10e9:	00 00                	add    %al,(%eax)
    10eb:	d4 09                	aam    $0x9
    10ed:	00 00                	add    %al,(%eax)
    10ef:	01 00                	add    %eax,(%eax)
    10f1:	53                   	push   %ebx
    10f2:	d4 09                	aam    $0x9
    10f4:	00 00                	add    %al,(%eax)
    10f6:	e6 09                	out    %al,$0x9
    10f8:	00 00                	add    %al,(%eax)
    10fa:	01 00                	add    %eax,(%eax)
    10fc:	50                   	push   %eax
    10fd:	e6 09                	out    %al,$0x9
    10ff:	00 00                	add    %al,(%eax)
    1101:	f4                   	hlt    
    1102:	09 00                	or     %eax,(%eax)
    1104:	00 01                	add    %al,(%ecx)
    1106:	00 53 1d             	add    %dl,0x1d(%ebx)
    1109:	0a 00                	or     (%eax),%al
    110b:	00 32                	add    %dh,(%edx)
    110d:	0a 00                	or     (%eax),%al
    110f:	00 01                	add    %al,(%ecx)
    1111:	00 50 66             	add    %dl,0x66(%eax)
    1114:	0a 00                	or     (%eax),%al
    1116:	00 a4 0a 00 00 01 00 	add    %ah,0x10000(%edx,%ecx,1)
    111d:	53                   	push   %ebx
	...
    112a:	01 00                	add    %eax,(%eax)
    112c:	00 00                	add    %al,(%eax)
    112e:	02 00                	add    (%eax),%al
    1130:	74 04                	je     1136 <main-0xffeeca>
    1132:	01 00                	add    %eax,(%eax)
    1134:	00 00                	add    %al,(%eax)
    1136:	03 00                	add    (%eax),%eax
    1138:	00 00                	add    %al,(%eax)
    113a:	02 00                	add    (%eax),%al
    113c:	74 08                	je     1146 <main-0xffeeba>
    113e:	03 00                	add    (%eax),%eax
    1140:	00 00                	add    %al,(%eax)
    1142:	16                   	push   %ss
    1143:	00 00                	add    %al,(%eax)
    1145:	00 02                	add    %al,(%edx)
    1147:	00 75 08             	add    %dh,0x8(%ebp)
	...
    1156:	01 00                	add    %eax,(%eax)
    1158:	00 00                	add    %al,(%eax)
    115a:	02 00                	add    (%eax),%al
    115c:	74 04                	je     1162 <main-0xffee9e>
    115e:	01 00                	add    %eax,(%eax)
    1160:	00 00                	add    %al,(%eax)
    1162:	03 00                	add    (%eax),%eax
    1164:	00 00                	add    %al,(%eax)
    1166:	02 00                	add    (%eax),%al
    1168:	74 08                	je     1172 <main-0xffee8e>
    116a:	03 00                	add    (%eax),%eax
    116c:	00 00                	add    %al,(%eax)
    116e:	17                   	pop    %ss
    116f:	00 00                	add    %al,(%eax)
    1171:	00 02                	add    %al,(%edx)
    1173:	00 75 08             	add    %dh,0x8(%ebp)
    1176:	17                   	pop    %ss
    1177:	00 00                	add    %al,(%eax)
    1179:	00 18                	add    %bl,(%eax)
    117b:	00 00                	add    %al,(%eax)
    117d:	00 02                	add    %al,(%edx)
    117f:	00 74 04 00          	add    %dh,0x0(%esp,%eax,1)
	...
    118b:	00 00                	add    %al,(%eax)
    118d:	00 08                	add    %cl,(%eax)
    118f:	00 00                	add    %al,(%eax)
    1191:	00 02                	add    %al,(%edx)
    1193:	00 91 00 08 00 00    	add    %dl,0x800(%ecx)
    1199:	00 0b                	add    %cl,(%ebx)
    119b:	00 00                	add    %al,(%eax)
    119d:	00 01                	add    %al,(%ecx)
    119f:	00 50 0b             	add    %dl,0xb(%eax)
    11a2:	00 00                	add    %al,(%eax)
    11a4:	00 18                	add    %bl,(%eax)
    11a6:	00 00                	add    %al,(%eax)
    11a8:	00 01                	add    %al,(%ecx)
    11aa:	00 52 00             	add    %dl,0x0(%edx)
	...
    11b5:	00 00                	add    %al,(%eax)
    11b7:	00 01                	add    %al,(%ecx)
    11b9:	00 00                	add    %al,(%eax)
    11bb:	00 02                	add    %al,(%edx)
    11bd:	00 74 04 01          	add    %dh,0x1(%esp,%eax,1)
    11c1:	00 00                	add    %al,(%eax)
    11c3:	00 03                	add    %al,(%ebx)
    11c5:	00 00                	add    %al,(%eax)
    11c7:	00 02                	add    %al,(%edx)
    11c9:	00 74 08 03          	add    %dh,0x3(%eax,%ecx,1)
    11cd:	00 00                	add    %al,(%eax)
    11cf:	00 09                	add    %cl,(%ecx)
    11d1:	00 00                	add    %al,(%eax)
    11d3:	00 02                	add    %al,(%edx)
    11d5:	00 75 08             	add    %dh,0x8(%ebp)
    11d8:	09 00                	or     %eax,(%eax)
    11da:	00 00                	add    %al,(%eax)
    11dc:	0a 00                	or     (%eax),%al
    11de:	00 00                	add    %al,(%eax)
    11e0:	02 00                	add    (%eax),%al
    11e2:	74 04                	je     11e8 <main-0xffee18>
	...
    11ec:	0a 00                	or     (%eax),%al
    11ee:	00 00                	add    %al,(%eax)
    11f0:	0b 00                	or     (%eax),%eax
    11f2:	00 00                	add    %al,(%eax)
    11f4:	02 00                	add    (%eax),%al
    11f6:	74 04                	je     11fc <main-0xffee04>
    11f8:	0b 00                	or     (%eax),%eax
    11fa:	00 00                	add    %al,(%eax)
    11fc:	0d 00 00 00 02       	or     $0x2000000,%eax
    1201:	00 74 08 0d          	add    %dh,0xd(%eax,%ecx,1)
    1205:	00 00                	add    %al,(%eax)
    1207:	00 0e                	add    %cl,(%esi)
    1209:	00 00                	add    %al,(%eax)
    120b:	00 02                	add    %al,(%edx)
    120d:	00 75 08             	add    %dh,0x8(%ebp)
    1210:	0e                   	push   %cs
    1211:	00 00                	add    %al,(%eax)
    1213:	00 0f                	add    %cl,(%edi)
    1215:	00 00                	add    %al,(%eax)
    1217:	00 02                	add    %al,(%edx)
    1219:	00 74 04 00          	add    %dh,0x0(%esp,%eax,1)
    121d:	00 00                	add    %al,(%eax)
    121f:	00 00                	add    %al,(%eax)
    1221:	00 00                	add    %al,(%eax)
    1223:	00 0f                	add    %cl,(%edi)
    1225:	00 00                	add    %al,(%eax)
    1227:	00 10                	add    %dl,(%eax)
    1229:	00 00                	add    %al,(%eax)
    122b:	00 02                	add    %al,(%edx)
    122d:	00 74 04 10          	add    %dh,0x10(%esp,%eax,1)
    1231:	00 00                	add    %al,(%eax)
    1233:	00 12                	add    %dl,(%edx)
    1235:	00 00                	add    %al,(%eax)
    1237:	00 02                	add    %al,(%edx)
    1239:	00 74 08 12          	add    %dh,0x12(%eax,%ecx,1)
    123d:	00 00                	add    %al,(%eax)
    123f:	00 18                	add    %bl,(%eax)
    1241:	00 00                	add    %al,(%eax)
    1243:	00 02                	add    %al,(%edx)
    1245:	00 75 08             	add    %dh,0x8(%ebp)
    1248:	18 00                	sbb    %al,(%eax)
    124a:	00 00                	add    %al,(%eax)
    124c:	19 00                	sbb    %eax,(%eax)
    124e:	00 00                	add    %al,(%eax)
    1250:	02 00                	add    (%eax),%al
    1252:	74 04                	je     1258 <main-0xffeda8>
	...
    125c:	19 00                	sbb    %eax,(%eax)
    125e:	00 00                	add    %al,(%eax)
    1260:	1a 00                	sbb    (%eax),%al
    1262:	00 00                	add    %al,(%eax)
    1264:	02 00                	add    (%eax),%al
    1266:	74 04                	je     126c <main-0xffed94>
    1268:	1a 00                	sbb    (%eax),%al
    126a:	00 00                	add    %al,(%eax)
    126c:	1c 00                	sbb    $0x0,%al
    126e:	00 00                	add    %al,(%eax)
    1270:	02 00                	add    (%eax),%al
    1272:	74 08                	je     127c <main-0xffed84>
    1274:	1c 00                	sbb    $0x0,%al
    1276:	00 00                	add    %al,(%eax)
    1278:	22 00                	and    (%eax),%al
    127a:	00 00                	add    %al,(%eax)
    127c:	02 00                	add    (%eax),%al
    127e:	75 08                	jne    1288 <main-0xffed78>
    1280:	22 00                	and    (%eax),%al
    1282:	00 00                	add    %al,(%eax)
    1284:	23 00                	and    (%eax),%eax
    1286:	00 00                	add    %al,(%eax)
    1288:	02 00                	add    (%eax),%al
    128a:	74 04                	je     1290 <main-0xffed70>
	...
    1294:	23 00                	and    (%eax),%eax
    1296:	00 00                	add    %al,(%eax)
    1298:	24 00                	and    $0x0,%al
    129a:	00 00                	add    %al,(%eax)
    129c:	02 00                	add    (%eax),%al
    129e:	74 04                	je     12a4 <main-0xffed5c>
    12a0:	24 00                	and    $0x0,%al
    12a2:	00 00                	add    %al,(%eax)
    12a4:	26 00 00             	add    %al,%es:(%eax)
    12a7:	00 02                	add    %al,(%edx)
    12a9:	00 74 08 26          	add    %dh,0x26(%eax,%ecx,1)
    12ad:	00 00                	add    %al,(%eax)
    12af:	00 2c 00             	add    %ch,(%eax,%eax,1)
    12b2:	00 00                	add    %al,(%eax)
    12b4:	02 00                	add    (%eax),%al
    12b6:	75 08                	jne    12c0 <main-0xffed40>
    12b8:	2c 00                	sub    $0x0,%al
    12ba:	00 00                	add    %al,(%eax)
    12bc:	2d 00 00 00 02       	sub    $0x2000000,%eax
    12c1:	00 74 04 00          	add    %dh,0x0(%esp,%eax,1)
    12c5:	00 00                	add    %al,(%eax)
    12c7:	00 00                	add    %al,(%eax)
    12c9:	00 00                	add    %al,(%eax)
    12cb:	00 2d 00 00 00 2e    	add    %ch,0x2e000000
    12d1:	00 00                	add    %al,(%eax)
    12d3:	00 02                	add    %al,(%edx)
    12d5:	00 74 04 2e          	add    %dh,0x2e(%esp,%eax,1)
    12d9:	00 00                	add    %al,(%eax)
    12db:	00 30                	add    %dh,(%eax)
    12dd:	00 00                	add    %al,(%eax)
    12df:	00 02                	add    %al,(%edx)
    12e1:	00 74 08 30          	add    %dh,0x30(%eax,%ecx,1)
    12e5:	00 00                	add    %al,(%eax)
    12e7:	00 36                	add    %dh,(%esi)
    12e9:	00 00                	add    %al,(%eax)
    12eb:	00 02                	add    %al,(%edx)
    12ed:	00 75 08             	add    %dh,0x8(%ebp)
    12f0:	36 00 00             	add    %al,%ss:(%eax)
    12f3:	00 37                	add    %dh,(%edi)
    12f5:	00 00                	add    %al,(%eax)
    12f7:	00 02                	add    %al,(%edx)
    12f9:	00 74 04 00          	add    %dh,0x0(%esp,%eax,1)
    12fd:	00 00                	add    %al,(%eax)
    12ff:	00 00                	add    %al,(%eax)
    1301:	00 00                	add    %al,(%eax)
    1303:	00 37                	add    %dh,(%edi)
    1305:	00 00                	add    %al,(%eax)
    1307:	00 38                	add    %bh,(%eax)
    1309:	00 00                	add    %al,(%eax)
    130b:	00 02                	add    %al,(%edx)
    130d:	00 74 04 38          	add    %dh,0x38(%esp,%eax,1)
    1311:	00 00                	add    %al,(%eax)
    1313:	00 3a                	add    %bh,(%edx)
    1315:	00 00                	add    %al,(%eax)
    1317:	00 02                	add    %al,(%edx)
    1319:	00 74 08 3a          	add    %dh,0x3a(%eax,%ecx,1)
    131d:	00 00                	add    %al,(%eax)
    131f:	00 40 00             	add    %al,0x0(%eax)
    1322:	00 00                	add    %al,(%eax)
    1324:	02 00                	add    (%eax),%al
    1326:	75 08                	jne    1330 <main-0xffecd0>
    1328:	40                   	inc    %eax
    1329:	00 00                	add    %al,(%eax)
    132b:	00 41 00             	add    %al,0x0(%ecx)
    132e:	00 00                	add    %al,(%eax)
    1330:	02 00                	add    (%eax),%al
    1332:	74 04                	je     1338 <main-0xffecc8>
	...
    133c:	41                   	inc    %ecx
    133d:	00 00                	add    %al,(%eax)
    133f:	00 42 00             	add    %al,0x0(%edx)
    1342:	00 00                	add    %al,(%eax)
    1344:	02 00                	add    (%eax),%al
    1346:	74 04                	je     134c <main-0xffecb4>
    1348:	42                   	inc    %edx
    1349:	00 00                	add    %al,(%eax)
    134b:	00 44 00 00          	add    %al,0x0(%eax,%eax,1)
    134f:	00 02                	add    %al,(%edx)
    1351:	00 74 08 44          	add    %dh,0x44(%eax,%ecx,1)
    1355:	00 00                	add    %al,(%eax)
    1357:	00 4a 00             	add    %cl,0x0(%edx)
    135a:	00 00                	add    %al,(%eax)
    135c:	02 00                	add    (%eax),%al
    135e:	75 08                	jne    1368 <main-0xffec98>
    1360:	4a                   	dec    %edx
    1361:	00 00                	add    %al,(%eax)
    1363:	00 4b 00             	add    %cl,0x0(%ebx)
    1366:	00 00                	add    %al,(%eax)
    1368:	02 00                	add    (%eax),%al
    136a:	74 04                	je     1370 <main-0xffec90>
	...
    1374:	4b                   	dec    %ebx
    1375:	00 00                	add    %al,(%eax)
    1377:	00 4c 00 00          	add    %cl,0x0(%eax,%eax,1)
    137b:	00 02                	add    %al,(%edx)
    137d:	00 74 04 4c          	add    %dh,0x4c(%esp,%eax,1)
    1381:	00 00                	add    %al,(%eax)
    1383:	00 4e 00             	add    %cl,0x0(%esi)
    1386:	00 00                	add    %al,(%eax)
    1388:	02 00                	add    (%eax),%al
    138a:	74 08                	je     1394 <main-0xffec6c>
    138c:	4e                   	dec    %esi
    138d:	00 00                	add    %al,(%eax)
    138f:	00 54 00 00          	add    %dl,0x0(%eax,%eax,1)
    1393:	00 02                	add    %al,(%edx)
    1395:	00 75 08             	add    %dh,0x8(%ebp)
    1398:	54                   	push   %esp
    1399:	00 00                	add    %al,(%eax)
    139b:	00 55 00             	add    %dl,0x0(%ebp)
    139e:	00 00                	add    %al,(%eax)
    13a0:	02 00                	add    (%eax),%al
    13a2:	74 04                	je     13a8 <main-0xffec58>
	...
    13ac:	55                   	push   %ebp
    13ad:	00 00                	add    %al,(%eax)
    13af:	00 56 00             	add    %dl,0x0(%esi)
    13b2:	00 00                	add    %al,(%eax)
    13b4:	02 00                	add    (%eax),%al
    13b6:	74 04                	je     13bc <main-0xffec44>
    13b8:	56                   	push   %esi
    13b9:	00 00                	add    %al,(%eax)
    13bb:	00 58 00             	add    %bl,0x0(%eax)
    13be:	00 00                	add    %al,(%eax)
    13c0:	02 00                	add    (%eax),%al
    13c2:	74 08                	je     13cc <main-0xffec34>
    13c4:	58                   	pop    %eax
    13c5:	00 00                	add    %al,(%eax)
    13c7:	00 5e 00             	add    %bl,0x0(%esi)
    13ca:	00 00                	add    %al,(%eax)
    13cc:	02 00                	add    (%eax),%al
    13ce:	75 08                	jne    13d8 <main-0xffec28>
    13d0:	5e                   	pop    %esi
    13d1:	00 00                	add    %al,(%eax)
    13d3:	00 5f 00             	add    %bl,0x0(%edi)
    13d6:	00 00                	add    %al,(%eax)
    13d8:	02 00                	add    (%eax),%al
    13da:	74 04                	je     13e0 <main-0xffec20>
	...
    13e4:	5f                   	pop    %edi
    13e5:	00 00                	add    %al,(%eax)
    13e7:	00 60 00             	add    %ah,0x0(%eax)
    13ea:	00 00                	add    %al,(%eax)
    13ec:	02 00                	add    (%eax),%al
    13ee:	74 04                	je     13f4 <main-0xffec0c>
    13f0:	60                   	pusha  
    13f1:	00 00                	add    %al,(%eax)
    13f3:	00 62 00             	add    %ah,0x0(%edx)
    13f6:	00 00                	add    %al,(%eax)
    13f8:	02 00                	add    (%eax),%al
    13fa:	74 08                	je     1404 <main-0xffebfc>
    13fc:	62 00                	bound  %eax,(%eax)
    13fe:	00 00                	add    %al,(%eax)
    1400:	68 00 00 00 02       	push   $0x2000000
    1405:	00 75 08             	add    %dh,0x8(%ebp)
    1408:	68 00 00 00 69       	push   $0x69000000
    140d:	00 00                	add    %al,(%eax)
    140f:	00 02                	add    %al,(%edx)
    1411:	00 74 04 00          	add    %dh,0x0(%esp,%eax,1)
    1415:	00 00                	add    %al,(%eax)
    1417:	00 00                	add    %al,(%eax)
    1419:	00 00                	add    %al,(%eax)
    141b:	00 69 00             	add    %ch,0x0(%ecx)
    141e:	00 00                	add    %al,(%eax)
    1420:	6a 00                	push   $0x0
    1422:	00 00                	add    %al,(%eax)
    1424:	02 00                	add    (%eax),%al
    1426:	74 04                	je     142c <main-0xffebd4>
    1428:	6a 00                	push   $0x0
    142a:	00 00                	add    %al,(%eax)
    142c:	6c                   	insb   (%dx),%es:(%edi)
    142d:	00 00                	add    %al,(%eax)
    142f:	00 02                	add    %al,(%edx)
    1431:	00 74 08 6c          	add    %dh,0x6c(%eax,%ecx,1)
    1435:	00 00                	add    %al,(%eax)
    1437:	00 72 00             	add    %dh,0x0(%edx)
    143a:	00 00                	add    %al,(%eax)
    143c:	02 00                	add    (%eax),%al
    143e:	75 08                	jne    1448 <main-0xffebb8>
    1440:	72 00                	jb     1442 <main-0xffebbe>
    1442:	00 00                	add    %al,(%eax)
    1444:	73 00                	jae    1446 <main-0xffebba>
    1446:	00 00                	add    %al,(%eax)
    1448:	02 00                	add    (%eax),%al
    144a:	74 04                	je     1450 <main-0xffebb0>
	...
    1454:	73 00                	jae    1456 <main-0xffebaa>
    1456:	00 00                	add    %al,(%eax)
    1458:	74 00                	je     145a <main-0xffeba6>
    145a:	00 00                	add    %al,(%eax)
    145c:	02 00                	add    (%eax),%al
    145e:	74 04                	je     1464 <main-0xffeb9c>
    1460:	74 00                	je     1462 <main-0xffeb9e>
    1462:	00 00                	add    %al,(%eax)
    1464:	76 00                	jbe    1466 <main-0xffeb9a>
    1466:	00 00                	add    %al,(%eax)
    1468:	02 00                	add    (%eax),%al
    146a:	74 08                	je     1474 <main-0xffeb8c>
    146c:	76 00                	jbe    146e <main-0xffeb92>
    146e:	00 00                	add    %al,(%eax)
    1470:	7c 00                	jl     1472 <main-0xffeb8e>
    1472:	00 00                	add    %al,(%eax)
    1474:	02 00                	add    (%eax),%al
    1476:	75 08                	jne    1480 <main-0xffeb80>
    1478:	7c 00                	jl     147a <main-0xffeb86>
    147a:	00 00                	add    %al,(%eax)
    147c:	7d 00                	jge    147e <main-0xffeb82>
    147e:	00 00                	add    %al,(%eax)
    1480:	02 00                	add    (%eax),%al
    1482:	74 04                	je     1488 <main-0xffeb78>
	...
    148c:	7d 00                	jge    148e <main-0xffeb72>
    148e:	00 00                	add    %al,(%eax)
    1490:	7e 00                	jle    1492 <main-0xffeb6e>
    1492:	00 00                	add    %al,(%eax)
    1494:	02 00                	add    (%eax),%al
    1496:	74 04                	je     149c <main-0xffeb64>
    1498:	7e 00                	jle    149a <main-0xffeb66>
    149a:	00 00                	add    %al,(%eax)
    149c:	80 00 00             	addb   $0x0,(%eax)
    149f:	00 02                	add    %al,(%edx)
    14a1:	00 74 08 80          	add    %dh,-0x80(%eax,%ecx,1)
    14a5:	00 00                	add    %al,(%eax)
    14a7:	00 86 00 00 00 02    	add    %al,0x2000000(%esi)
    14ad:	00 75 08             	add    %dh,0x8(%ebp)
    14b0:	86 00                	xchg   %al,(%eax)
    14b2:	00 00                	add    %al,(%eax)
    14b4:	87 00                	xchg   %eax,(%eax)
    14b6:	00 00                	add    %al,(%eax)
    14b8:	02 00                	add    (%eax),%al
    14ba:	74 04                	je     14c0 <main-0xffeb40>
	...
    14c4:	87 00                	xchg   %eax,(%eax)
    14c6:	00 00                	add    %al,(%eax)
    14c8:	88 00                	mov    %al,(%eax)
    14ca:	00 00                	add    %al,(%eax)
    14cc:	02 00                	add    (%eax),%al
    14ce:	74 04                	je     14d4 <main-0xffeb2c>
    14d0:	88 00                	mov    %al,(%eax)
    14d2:	00 00                	add    %al,(%eax)
    14d4:	8a 00                	mov    (%eax),%al
    14d6:	00 00                	add    %al,(%eax)
    14d8:	02 00                	add    (%eax),%al
    14da:	74 08                	je     14e4 <main-0xffeb1c>
    14dc:	8a 00                	mov    (%eax),%al
    14de:	00 00                	add    %al,(%eax)
    14e0:	8c 00                	mov    %es,(%eax)
    14e2:	00 00                	add    %al,(%eax)
    14e4:	02 00                	add    (%eax),%al
    14e6:	75 08                	jne    14f0 <main-0xffeb10>
	...
    14f0:	8c 00                	mov    %es,(%eax)
    14f2:	00 00                	add    %al,(%eax)
    14f4:	8d 00                	lea    (%eax),%eax
    14f6:	00 00                	add    %al,(%eax)
    14f8:	02 00                	add    (%eax),%al
    14fa:	74 04                	je     1500 <main-0xffeb00>
    14fc:	8d 00                	lea    (%eax),%eax
    14fe:	00 00                	add    %al,(%eax)
    1500:	8f 00                	popl   (%eax)
    1502:	00 00                	add    %al,(%eax)
    1504:	02 00                	add    (%eax),%al
    1506:	74 08                	je     1510 <main-0xffeaf0>
    1508:	8f 00                	popl   (%eax)
    150a:	00 00                	add    %al,(%eax)
    150c:	95                   	xchg   %eax,%ebp
    150d:	00 00                	add    %al,(%eax)
    150f:	00 02                	add    %al,(%edx)
    1511:	00 75 08             	add    %dh,0x8(%ebp)
    1514:	95                   	xchg   %eax,%ebp
    1515:	00 00                	add    %al,(%eax)
    1517:	00 96 00 00 00 02    	add    %dl,0x2000000(%esi)
    151d:	00 74 04 00          	add    %dh,0x0(%esp,%eax,1)
    1521:	00 00                	add    %al,(%eax)
    1523:	00 00                	add    %al,(%eax)
    1525:	00 00                	add    %al,(%eax)
    1527:	00 96 00 00 00 97    	add    %dl,-0x69000000(%esi)
    152d:	00 00                	add    %al,(%eax)
    152f:	00 02                	add    %al,(%edx)
    1531:	00 74 04 97          	add    %dh,-0x69(%esp,%eax,1)
    1535:	00 00                	add    %al,(%eax)
    1537:	00 99 00 00 00 02    	add    %bl,0x2000000(%ecx)
    153d:	00 74 08 99          	add    %dh,-0x67(%eax,%ecx,1)
    1541:	00 00                	add    %al,(%eax)
    1543:	00 9b 00 00 00 02    	add    %bl,0x2000000(%ebx)
    1549:	00 75 08             	add    %dh,0x8(%ebp)
	...
    1554:	9b                   	fwait
    1555:	00 00                	add    %al,(%eax)
    1557:	00 9c 00 00 00 02 00 	add    %bl,0x20000(%eax,%eax,1)
    155e:	74 04                	je     1564 <main-0xffea9c>
    1560:	9c                   	pushf  
    1561:	00 00                	add    %al,(%eax)
    1563:	00 9e 00 00 00 02    	add    %bl,0x2000000(%esi)
    1569:	00 74 08 9e          	add    %dh,-0x62(%eax,%ecx,1)
    156d:	00 00                	add    %al,(%eax)
    156f:	00 a4 00 00 00 02 00 	add    %ah,0x20000(%eax,%eax,1)
    1576:	75 08                	jne    1580 <main-0xffea80>
    1578:	a4                   	movsb  %ds:(%esi),%es:(%edi)
    1579:	00 00                	add    %al,(%eax)
    157b:	00 a5 00 00 00 02    	add    %ah,0x2000000(%ebp)
    1581:	00 74 04 00          	add    %dh,0x0(%esp,%eax,1)
    1585:	00 00                	add    %al,(%eax)
    1587:	00 00                	add    %al,(%eax)
    1589:	00 00                	add    %al,(%eax)
    158b:	00 a5 00 00 00 a6    	add    %ah,-0x5a000000(%ebp)
    1591:	00 00                	add    %al,(%eax)
    1593:	00 02                	add    %al,(%edx)
    1595:	00 74 04 a6          	add    %dh,-0x5a(%esp,%eax,1)
    1599:	00 00                	add    %al,(%eax)
    159b:	00 a8 00 00 00 02    	add    %ch,0x2000000(%eax)
    15a1:	00 74 08 a8          	add    %dh,-0x58(%eax,%ecx,1)
    15a5:	00 00                	add    %al,(%eax)
    15a7:	00 ae 00 00 00 02    	add    %ch,0x2000000(%esi)
    15ad:	00 75 08             	add    %dh,0x8(%ebp)
    15b0:	ae                   	scas   %es:(%edi),%al
    15b1:	00 00                	add    %al,(%eax)
    15b3:	00 af 00 00 00 02    	add    %ch,0x2000000(%edi)
    15b9:	00 74 04 00          	add    %dh,0x0(%esp,%eax,1)
    15bd:	00 00                	add    %al,(%eax)
    15bf:	00 00                	add    %al,(%eax)
    15c1:	00 00                	add    %al,(%eax)
    15c3:	00 af 00 00 00 b0    	add    %ch,-0x50000000(%edi)
    15c9:	00 00                	add    %al,(%eax)
    15cb:	00 02                	add    %al,(%edx)
    15cd:	00 74 04 b0          	add    %dh,-0x50(%esp,%eax,1)
    15d1:	00 00                	add    %al,(%eax)
    15d3:	00 b2 00 00 00 02    	add    %dh,0x2000000(%edx)
    15d9:	00 74 08 b2          	add    %dh,-0x4e(%eax,%ecx,1)
    15dd:	00 00                	add    %al,(%eax)
    15df:	00 b8 00 00 00 02    	add    %bh,0x2000000(%eax)
    15e5:	00 75 08             	add    %dh,0x8(%ebp)
    15e8:	b8 00 00 00 b9       	mov    $0xb9000000,%eax
    15ed:	00 00                	add    %al,(%eax)
    15ef:	00 02                	add    %al,(%edx)
    15f1:	00 74 04 00          	add    %dh,0x0(%esp,%eax,1)
    15f5:	00 00                	add    %al,(%eax)
    15f7:	00 00                	add    %al,(%eax)
    15f9:	00 00                	add    %al,(%eax)
    15fb:	00 b9 00 00 00 ba    	add    %bh,-0x46000000(%ecx)
    1601:	00 00                	add    %al,(%eax)
    1603:	00 02                	add    %al,(%edx)
    1605:	00 74 04 ba          	add    %dh,-0x46(%esp,%eax,1)
    1609:	00 00                	add    %al,(%eax)
    160b:	00 bc 00 00 00 02 00 	add    %bh,0x20000(%eax,%eax,1)
    1612:	74 08                	je     161c <main-0xffe9e4>
    1614:	bc 00 00 00 bd       	mov    $0xbd000000,%esp
    1619:	00 00                	add    %al,(%eax)
    161b:	00 02                	add    %al,(%edx)
    161d:	00 75 08             	add    %dh,0x8(%ebp)
    1620:	bd 00 00 00 be       	mov    $0xbe000000,%ebp
    1625:	00 00                	add    %al,(%eax)
    1627:	00 02                	add    %al,(%edx)
    1629:	00 74 04 00          	add    %dh,0x0(%esp,%eax,1)
	...
    1635:	00 00                	add    %al,(%eax)
    1637:	00 01                	add    %al,(%ecx)
    1639:	00 00                	add    %al,(%eax)
    163b:	00 02                	add    %al,(%edx)
    163d:	00 74 04 01          	add    %dh,0x1(%esp,%eax,1)
    1641:	00 00                	add    %al,(%eax)
    1643:	00 03                	add    %al,(%ebx)
    1645:	00 00                	add    %al,(%eax)
    1647:	00 02                	add    %al,(%edx)
    1649:	00 74 08 03          	add    %dh,0x3(%eax,%ecx,1)
    164d:	00 00                	add    %al,(%eax)
    164f:	00 04 00             	add    %al,(%eax,%eax,1)
    1652:	00 00                	add    %al,(%eax)
    1654:	02 00                	add    (%eax),%al
    1656:	75 08                	jne    1660 <main-0xffe9a0>
    1658:	04 00                	add    $0x0,%al
    165a:	00 00                	add    %al,(%eax)
    165c:	05 00 00 00 02       	add    $0x2000000,%eax
    1661:	00 74 04 00          	add    %dh,0x0(%esp,%eax,1)
	...
    166d:	00 00                	add    %al,(%eax)
    166f:	00 01                	add    %al,(%ecx)
    1671:	00 00                	add    %al,(%eax)
    1673:	00 02                	add    %al,(%edx)
    1675:	00 74 04 01          	add    %dh,0x1(%esp,%eax,1)
    1679:	00 00                	add    %al,(%eax)
    167b:	00 03                	add    %al,(%ebx)
    167d:	00 00                	add    %al,(%eax)
    167f:	00 02                	add    %al,(%edx)
    1681:	00 74 08 03          	add    %dh,0x3(%eax,%ecx,1)
    1685:	00 00                	add    %al,(%eax)
    1687:	00 67 00             	add    %ah,0x0(%edi)
    168a:	00 00                	add    %al,(%eax)
    168c:	02 00                	add    (%eax),%al
    168e:	75 08                	jne    1698 <main-0xffe968>
    1690:	67 00 00             	add    %al,(%bx,%si)
    1693:	00 68 00             	add    %ch,0x0(%eax)
    1696:	00 00                	add    %al,(%eax)
    1698:	02 00                	add    (%eax),%al
    169a:	74 04                	je     16a0 <main-0xffe960>
	...
    16a8:	52                   	push   %edx
    16a9:	00 00                	add    %al,(%eax)
    16ab:	00 01                	add    %al,(%ecx)
    16ad:	00 50 00             	add    %dl,0x0(%eax)
	...
    16b8:	00 00                	add    %al,(%eax)
    16ba:	00 12                	add    %dl,(%edx)
    16bc:	00 00                	add    %al,(%eax)
    16be:	00 01                	add    %al,(%ecx)
    16c0:	00 52 12             	add    %dl,0x12(%edx)
    16c3:	00 00                	add    %al,(%eax)
    16c5:	00 25 00 00 00 01    	add    %ah,0x1000000
    16cb:	00 57 25             	add    %dl,0x25(%edi)
    16ce:	00 00                	add    %al,(%eax)
    16d0:	00 4f 00             	add    %cl,0x0(%edi)
    16d3:	00 00                	add    %al,(%eax)
    16d5:	02 00                	add    (%eax),%al
    16d7:	91                   	xchg   %eax,%ecx
    16d8:	60                   	pusha  
	...
    16e5:	17                   	pop    %ss
    16e6:	00 00                	add    %al,(%eax)
    16e8:	00 01                	add    %al,(%ecx)
    16ea:	00 51 17             	add    %dl,0x17(%ecx)
    16ed:	00 00                	add    %al,(%eax)
    16ef:	00 65 00             	add    %ah,0x0(%ebp)
    16f2:	00 00                	add    %al,(%eax)
    16f4:	01 00                	add    %eax,(%eax)
    16f6:	56                   	push   %esi
	...
    16ff:	0d 00 00 00 25       	or     $0x25000000,%eax
    1704:	00 00                	add    %al,(%eax)
    1706:	00 02                	add    %al,(%edx)
    1708:	00 30                	add    %dh,(%eax)
    170a:	9f                   	lahf   
    170b:	45                   	inc    %ebp
    170c:	00 00                	add    %al,(%eax)
    170e:	00 4f 00             	add    %cl,0x0(%edi)
    1711:	00 00                	add    %al,(%eax)
    1713:	01 00                	add    %eax,(%eax)
    1715:	52                   	push   %edx
	...
    171e:	68 00 00 00 69       	push   $0x69000000
    1723:	00 00                	add    %al,(%eax)
    1725:	00 02                	add    %al,(%edx)
    1727:	00 74 04 69          	add    %dh,0x69(%esp,%eax,1)
    172b:	00 00                	add    %al,(%eax)
    172d:	00 6b 00             	add    %ch,0x0(%ebx)
    1730:	00 00                	add    %al,(%eax)
    1732:	02 00                	add    (%eax),%al
    1734:	74 08                	je     173e <main-0xffe8c2>
    1736:	6b 00 00             	imul   $0x0,(%eax),%eax
    1739:	00 db                	add    %bl,%bl
    173b:	04 00                	add    $0x0,%al
    173d:	00 02                	add    %al,(%edx)
    173f:	00 75 08             	add    %dh,0x8(%ebp)
    1742:	db 04 00             	fildl  (%eax,%eax,1)
    1745:	00 dc                	add    %bl,%ah
    1747:	04 00                	add    $0x0,%al
    1749:	00 02                	add    %al,(%edx)
    174b:	00 74 04 00          	add    %dh,0x0(%esp,%eax,1)
    174f:	00 00                	add    %al,(%eax)
    1751:	00 00                	add    %al,(%eax)
    1753:	00 00                	add    %al,(%eax)
    1755:	00 d0                	add    %dl,%al
    1757:	00 00                	add    %al,(%eax)
    1759:	00 46 02             	add    %al,0x2(%esi)
    175c:	00 00                	add    %al,(%eax)
    175e:	04 00                	add    $0x0,%al
    1760:	74 d8                	je     173a <main-0xffe8c6>
    1762:	00 9f 49 02 00 00    	add    %bl,0x249(%edi)
    1768:	53                   	push   %ebx
    1769:	02 00                	add    (%eax),%al
    176b:	00 01                	add    %al,(%ecx)
    176d:	00 56 53             	add    %dl,0x53(%esi)
    1770:	02 00                	add    (%eax),%al
    1772:	00 59 02             	add    %bl,0x2(%ecx)
    1775:	00 00                	add    %al,(%eax)
    1777:	03 00                	add    (%eax),%eax
    1779:	70 7c                	jo     17f7 <main-0xffe809>
    177b:	9f                   	lahf   
    177c:	59                   	pop    %ecx
    177d:	02 00                	add    (%eax),%al
    177f:	00 05 03 00 00 01    	add    %al,0x1000003
    1785:	00 56 05             	add    %dl,0x5(%esi)
    1788:	03 00                	add    (%eax),%eax
    178a:	00 d4                	add    %dl,%ah
    178c:	04 00                	add    $0x0,%al
    178e:	00 02                	add    %al,(%edx)
    1790:	00 74 24 00          	add    %dh,0x0(%esp)
    1794:	00 00                	add    %al,(%eax)
    1796:	00 00                	add    %al,(%eax)
    1798:	00 00                	add    %al,(%eax)
    179a:	00 d0                	add    %dl,%al
    179c:	00 00                	add    %al,(%eax)
    179e:	00 50 01             	add    %dl,0x1(%eax)
    17a1:	00 00                	add    %al,(%eax)
    17a3:	04 00                	add    $0x0,%al
    17a5:	74 c4                	je     176b <main-0xffe895>
    17a7:	00 9f 50 01 00 00    	add    %bl,0x150(%edi)
    17ad:	75 01                	jne    17b0 <main-0xffe850>
    17af:	00 00                	add    %al,(%eax)
    17b1:	04 00                	add    $0x0,%al
    17b3:	74 c8                	je     177d <main-0xffe883>
    17b5:	00 9f 75 01 00 00    	add    %bl,0x175(%edi)
    17bb:	28 02                	sub    %al,(%edx)
    17bd:	00 00                	add    %al,(%eax)
    17bf:	04 00                	add    $0x0,%al
    17c1:	74 cc                	je     178f <main-0xffe871>
    17c3:	00 9f 00 00 00 00    	add    %bl,0x0(%edi)
    17c9:	00 00                	add    %al,(%eax)
    17cb:	00 00                	add    %al,(%eax)
    17cd:	d0 00                	rolb   (%eax)
    17cf:	00 00                	add    %al,(%eax)
    17d1:	84 02                	test   %al,(%edx)
    17d3:	00 00                	add    %al,(%eax)
    17d5:	03 00                	add    (%eax),%eax
    17d7:	74 30                	je     1809 <main-0xffe7f7>
    17d9:	9f                   	lahf   
    17da:	84 02                	test   %al,(%edx)
    17dc:	00 00                	add    %al,(%eax)
    17de:	ab                   	stos   %eax,%es:(%edi)
    17df:	02 00                	add    (%eax),%al
    17e1:	00 01                	add    %al,(%ecx)
    17e3:	00 57 ab             	add    %dl,-0x55(%edi)
    17e6:	02 00                	add    (%eax),%al
    17e8:	00 d4                	add    %dl,%ah
    17ea:	04 00                	add    $0x0,%al
    17ec:	00 02                	add    %al,(%edx)
    17ee:	00 74 04 00          	add    %dh,0x0(%esp,%eax,1)
    17f2:	00 00                	add    %al,(%eax)
    17f4:	00 00                	add    %al,(%eax)
    17f6:	00 00                	add    %al,(%eax)
    17f8:	00 dc                	add    %bl,%ah
    17fa:	02 00                	add    (%eax),%al
    17fc:	00 d4                	add    %dl,%ah
    17fe:	04 00                	add    $0x0,%al
    1800:	00 03                	add    %al,(%ebx)
    1802:	00 74 28 06          	add    %dh,0x6(%eax,%ebp,1)
	...
    180e:	e7 02                	out    %eax,$0x2
    1810:	00 00                	add    %al,(%eax)
    1812:	d4 04                	aam    $0x4
    1814:	00 00                	add    %al,(%eax)
    1816:	05 00 74 2c 06       	add    $0x62c7400,%eax
    181b:	23 08                	and    (%eax),%ecx
	...
    1825:	3b 03                	cmp    (%ebx),%eax
    1827:	00 00                	add    %al,(%eax)
    1829:	74 03                	je     182e <main-0xffe7d2>
    182b:	00 00                	add    %al,(%eax)
    182d:	01 00                	add    %eax,(%eax)
    182f:	50                   	push   %eax
    1830:	74 03                	je     1835 <main-0xffe7cb>
    1832:	00 00                	add    %al,(%eax)
    1834:	ac                   	lods   %ds:(%esi),%al
    1835:	03 00                	add    (%eax),%eax
    1837:	00 02                	add    %al,(%edx)
    1839:	00 74 2c ca          	add    %dh,-0x36(%esp,%ebp,1)
    183d:	03 00                	add    (%eax),%eax
    183f:	00 e2                	add    %ah,%dl
    1841:	03 00                	add    (%eax),%eax
    1843:	00 03                	add    %al,(%ebx)
    1845:	00 70 7f             	add    %dh,0x7f(%eax)
    1848:	9f                   	lahf   
    1849:	e2 03                	loop   184e <main-0xffe7b2>
    184b:	00 00                	add    %al,(%eax)
    184d:	fb                   	sti    
    184e:	03 00                	add    (%eax),%eax
    1850:	00 03                	add    %al,(%ebx)
    1852:	00 77 7f             	add    %dh,0x7f(%edi)
    1855:	9f                   	lahf   
    1856:	fb                   	sti    
    1857:	03 00                	add    (%eax),%eax
    1859:	00 fe                	add    %bh,%dh
    185b:	03 00                	add    (%eax),%eax
    185d:	00 03                	add    %al,(%ebx)
    185f:	00 70 7f             	add    %dh,0x7f(%eax)
    1862:	9f                   	lahf   
    1863:	fe 03                	incb   (%ebx)
    1865:	00 00                	add    %al,(%eax)
    1867:	49                   	dec    %ecx
    1868:	04 00                	add    $0x0,%al
    186a:	00 01                	add    %al,(%ecx)
    186c:	00 50 49             	add    %dl,0x49(%eax)
    186f:	04 00                	add    $0x0,%al
    1871:	00 d4                	add    %dl,%ah
    1873:	04 00                	add    $0x0,%al
    1875:	00 09                	add    %cl,(%ecx)
    1877:	00 74 1c 06          	add    %dh,0x6(%esp,%ebx,1)
    187b:	32 24 74             	xor    (%esp,%esi,2),%ah
    187e:	04 06                	add    $0x6,%al
    1880:	22 00                	and    (%eax),%al
    1882:	00 00                	add    %al,(%eax)
    1884:	00 00                	add    %al,(%eax)
    1886:	00 00                	add    %al,(%eax)
    1888:	00 34 03             	add    %dh,(%ebx,%eax,1)
    188b:	00 00                	add    %al,(%eax)
    188d:	36 03 00             	add    %ss:(%eax),%eax
    1890:	00 01                	add    %al,(%ecx)
    1892:	00 52 3b             	add    %dl,0x3b(%edx)
    1895:	03 00                	add    (%eax),%eax
    1897:	00 70 03             	add    %dh,0x3(%eax)
    189a:	00 00                	add    %al,(%eax)
    189c:	01 00                	add    %eax,(%eax)
    189e:	52                   	push   %edx
	...
    18a7:	81 01 00 00 10 02    	addl   $0x2100000,(%ecx)
    18ad:	00 00                	add    %al,(%eax)
    18af:	03 00                	add    (%eax),%eax
    18b1:	74 d4                	je     1887 <main-0xffe779>
    18b3:	00 84 02 00 00 b3 02 	add    %al,0x2b30000(%edx,%eax,1)
    18ba:	00 00                	add    %al,(%eax)
    18bc:	01 00                	add    %eax,(%eax)
    18be:	52                   	push   %edx
    18bf:	5c                   	pop    %esp
    18c0:	03 00                	add    (%eax),%eax
    18c2:	00 74 03 00          	add    %dh,0x0(%ebx,%eax,1)
    18c6:	00 02                	add    %al,(%edx)
    18c8:	00 30                	add    %dh,(%eax)
    18ca:	9f                   	lahf   
    18cb:	86 03                	xchg   %al,(%ebx)
    18cd:	00 00                	add    %al,(%eax)
    18cf:	8c 03                	mov    %es,(%ebx)
    18d1:	00 00                	add    %al,(%eax)
    18d3:	01 00                	add    %eax,(%eax)
    18d5:	57                   	push   %edi
    18d6:	8c 03                	mov    %es,(%ebx)
    18d8:	00 00                	add    %al,(%eax)
    18da:	91                   	xchg   %eax,%ecx
    18db:	03 00                	add    (%eax),%eax
    18dd:	00 01                	add    %al,(%ecx)
    18df:	00 56 a0             	add    %dl,-0x60(%esi)
    18e2:	03 00                	add    (%eax),%eax
    18e4:	00 ac 03 00 00 01 00 	add    %ch,0x10000(%ebx,%eax,1)
    18eb:	56                   	push   %esi
    18ec:	b9 03 00 00 c6       	mov    $0xc6000003,%ecx
    18f1:	03 00                	add    (%eax),%eax
    18f3:	00 01                	add    %al,(%ecx)
    18f5:	00 52 ca             	add    %dl,-0x36(%edx)
    18f8:	03 00                	add    (%eax),%eax
    18fa:	00 e2                	add    %ah,%dl
    18fc:	03 00                	add    (%eax),%eax
    18fe:	00 02                	add    %al,(%edx)
    1900:	00 30                	add    %dh,(%eax)
    1902:	9f                   	lahf   
    1903:	e7 03                	out    %eax,$0x3
    1905:	00 00                	add    %al,(%eax)
    1907:	fb                   	sti    
    1908:	03 00                	add    (%eax),%eax
    190a:	00 01                	add    %al,(%ecx)
    190c:	00 50 00             	add    %dl,0x0(%eax)
    190f:	00 00                	add    %al,(%eax)
    1911:	00 00                	add    %al,(%eax)
    1913:	00 00                	add    %al,(%eax)
    1915:	00 35 02 00 00 46    	add    %dh,0x46000002
    191b:	02 00                	add    (%eax),%al
    191d:	00 01                	add    %al,(%ecx)
    191f:	00 50 46             	add    %dl,0x46(%eax)
    1922:	02 00                	add    (%eax),%al
    1924:	00 59 02             	add    %bl,0x2(%ecx)
    1927:	00 00                	add    %al,(%eax)
    1929:	01 00                	add    %eax,(%eax)
    192b:	51                   	push   %ecx
	...
    1934:	2f                   	das    
    1935:	01 00                	add    %eax,(%eax)
    1937:	00 50 01             	add    %dl,0x1(%eax)
    193a:	00 00                	add    %al,(%eax)
    193c:	02 00                	add    (%eax),%al
    193e:	34 9f                	xor    $0x9f,%al
    1940:	50                   	push   %eax
    1941:	01 00                	add    %eax,(%eax)
    1943:	00 75 01             	add    %dh,0x1(%ebp)
    1946:	00 00                	add    %al,(%eax)
    1948:	02 00                	add    (%eax),%al
    194a:	33 9f 75 01 00 00    	xor    0x175(%edi),%ebx
    1950:	81 01 00 00 02 00    	addl   $0x20000,(%ecx)
    1956:	32 9f 81 01 00 00    	xor    0x181(%edi),%bl
    195c:	10 02                	adc    %al,(%edx)
    195e:	00 00                	add    %al,(%eax)
    1960:	02 00                	add    (%eax),%al
    1962:	31 9f 10 02 00 00    	xor    %ebx,0x210(%edi)
    1968:	28 02                	sub    %al,(%edx)
    196a:	00 00                	add    %al,(%eax)
    196c:	02 00                	add    (%eax),%al
    196e:	32 9f 00 00 00 00    	xor    0x0(%edi),%bl
    1974:	00 00                	add    %al,(%eax)
    1976:	00 00                	add    %al,(%eax)
    1978:	84 02                	test   %al,(%edx)
    197a:	00 00                	add    %al,(%eax)
    197c:	98                   	cwtl   
    197d:	02 00                	add    (%eax),%al
    197f:	00 02                	add    %al,(%edx)
    1981:	00 30                	add    %dh,(%eax)
    1983:	9f                   	lahf   
    1984:	9b                   	fwait
    1985:	02 00                	add    (%eax),%al
    1987:	00 bb 02 00 00 01    	add    %bh,0x1000002(%ebx)
    198d:	00 50 bb             	add    %dl,-0x45(%eax)
    1990:	02 00                	add    (%eax),%al
    1992:	00 bf 02 00 00 01    	add    %bh,0x1000002(%edi)
    1998:	00 51 bf             	add    %dl,-0x41(%ecx)
    199b:	02 00                	add    (%eax),%al
    199d:	00 d2                	add    %dl,%dl
    199f:	02 00                	add    (%eax),%al
    19a1:	00 01                	add    %al,(%ecx)
    19a3:	00 57 00             	add    %dl,0x0(%edi)
    19a6:	00 00                	add    %al,(%eax)
    19a8:	00 00                	add    %al,(%eax)
    19aa:	00 00                	add    %al,(%eax)
    19ac:	00 d2                	add    %dl,%dl
    19ae:	02 00                	add    (%eax),%al
    19b0:	00 05 03 00 00 02    	add    %al,0x2000003
    19b6:	00 30                	add    %dh,(%eax)
    19b8:	9f                   	lahf   
    19b9:	05 03 00 00 d4       	add    $0xd4000003,%eax
    19be:	04 00                	add    $0x0,%al
    19c0:	00 02                	add    %al,(%edx)
    19c2:	00 74 28 00          	add    %dh,0x0(%eax,%ebp,1)
    19c6:	00 00                	add    %al,(%eax)
    19c8:	00 00                	add    %al,(%eax)
    19ca:	00 00                	add    %al,(%eax)
    19cc:	00 62 02             	add    %ah,0x2(%edx)
    19cf:	00 00                	add    %al,(%eax)
    19d1:	6d                   	insl   (%dx),%es:(%edi)
    19d2:	02 00                	add    (%eax),%al
    19d4:	00 03                	add    %al,(%ebx)
    19d6:	00 77 7f             	add    %dh,0x7f(%edi)
    19d9:	9f                   	lahf   
    19da:	6d                   	insl   (%dx),%es:(%edi)
    19db:	02 00                	add    (%eax),%al
    19dd:	00 98 02 00 00 01    	add    %bl,0x1000002(%eax)
    19e3:	00 50 5c             	add    %dl,0x5c(%eax)
    19e6:	03 00                	add    (%eax),%eax
    19e8:	00 74 03 00          	add    %dh,0x0(%ebx,%eax,1)
    19ec:	00 02                	add    %al,(%edx)
    19ee:	00 74 20 74          	add    %dh,0x74(%eax,%eiz,1)
    19f2:	03 00                	add    (%eax),%eax
    19f4:	00 a0 03 00 00 01    	add    %ah,0x1000003(%eax)
    19fa:	00 52 a0             	add    %dl,-0x60(%edx)
    19fd:	03 00                	add    (%eax),%eax
    19ff:	00 a6 03 00 00 03    	add    %ah,0x3000003(%esi)
    1a05:	00 72 7f             	add    %dh,0x7f(%edx)
    1a08:	9f                   	lahf   
    1a09:	a6                   	cmpsb  %es:(%edi),%ds:(%esi)
    1a0a:	03 00                	add    (%eax),%eax
    1a0c:	00 ac 03 00 00 01 00 	add    %ch,0x10000(%ebx,%eax,1)
    1a13:	52                   	push   %edx
    1a14:	ca 03 00             	lret   $0x3
    1a17:	00 e2                	add    %ah,%dl
    1a19:	03 00                	add    (%eax),%eax
    1a1b:	00 02                	add    %al,(%edx)
    1a1d:	00 74 20 e2          	add    %dh,-0x1e(%eax,%eiz,1)
    1a21:	03 00                	add    (%eax),%eax
    1a23:	00 ef                	add    %ch,%bh
    1a25:	03 00                	add    (%eax),%eax
    1a27:	00 01                	add    %al,(%ecx)
    1a29:	00 52 ef             	add    %dl,-0x11(%edx)
    1a2c:	03 00                	add    (%eax),%eax
    1a2e:	00 f5                	add    %dh,%ch
    1a30:	03 00                	add    (%eax),%eax
    1a32:	00 03                	add    %al,(%ebx)
    1a34:	00 72 7f             	add    %dh,0x7f(%edx)
    1a37:	9f                   	lahf   
    1a38:	f5                   	cmc    
    1a39:	03 00                	add    (%eax),%eax
    1a3b:	00 fb                	add    %bh,%bl
    1a3d:	03 00                	add    (%eax),%eax
    1a3f:	00 01                	add    %al,(%ecx)
    1a41:	00 52 4d             	add    %dl,0x4d(%edx)
    1a44:	04 00                	add    $0x0,%al
    1a46:	00 94 04 00 00 01 00 	add    %dl,0x10000(%esp,%eax,1)
    1a4d:	50                   	push   %eax
	...
    1a56:	91                   	xchg   %eax,%ecx
    1a57:	01 00                	add    %eax,(%eax)
    1a59:	00 a5 01 00 00 01    	add    %ah,0x1000001(%ebp)
    1a5f:	00 51 a5             	add    %dl,-0x5b(%ecx)
    1a62:	01 00                	add    %eax,(%eax)
    1a64:	00 ac 01 00 00 01 00 	add    %ch,0x10000(%ecx,%eax,1)
    1a6b:	52                   	push   %edx
    1a6c:	ac                   	lods   %ds:(%esi),%al
    1a6d:	01 00                	add    %eax,(%eax)
    1a6f:	00 ae 01 00 00 01    	add    %ch,0x1000001(%esi)
    1a75:	00 50 ae             	add    %dl,-0x52(%eax)
    1a78:	01 00                	add    %eax,(%eax)
    1a7a:	00 b7 01 00 00 02    	add    %dh,0x2000001(%edi)
    1a80:	00 74 2c b7          	add    %dh,-0x49(%esp,%ebp,1)
    1a84:	01 00                	add    %eax,(%eax)
    1a86:	00 f3                	add    %dh,%bl
    1a88:	01 00                	add    %eax,(%eax)
    1a8a:	00 01                	add    %al,(%ecx)
    1a8c:	00 56 00             	add    %dl,0x0(%esi)
    1a8f:	00 00                	add    %al,(%eax)
    1a91:	00 00                	add    %al,(%eax)
    1a93:	00 00                	add    %al,(%eax)
    1a95:	00 16                	add    %dl,(%esi)
    1a97:	03 00                	add    (%eax),%eax
    1a99:	00 d4                	add    %dl,%ah
    1a9b:	04 00                	add    $0x0,%al
    1a9d:	00 09                	add    %cl,(%ecx)
    1a9f:	00 74 28 06          	add    %dh,0x6(%eax,%ebp,1)
    1aa3:	32 24 74             	xor    (%esp,%esi,2),%ah
    1aa6:	24 06                	and    $0x6,%al
    1aa8:	22 00                	and    (%eax),%al
    1aaa:	00 00                	add    %al,(%eax)
    1aac:	00 00                	add    %al,(%eax)
    1aae:	00 00                	add    %al,(%eax)
    1ab0:	00 1a                	add    %bl,(%edx)
    1ab2:	03 00                	add    (%eax),%eax
    1ab4:	00 d4                	add    %dl,%ah
    1ab6:	04 00                	add    $0x0,%al
    1ab8:	00 0b                	add    %cl,(%ebx)
    1aba:	00 74 28 06          	add    %dh,0x6(%eax,%ebp,1)
    1abe:	32 24 74             	xor    (%esp,%esi,2),%ah
    1ac1:	24 06                	and    $0x6,%al
    1ac3:	22 23                	and    (%ebx),%ah
    1ac5:	04 00                	add    $0x0,%al
    1ac7:	00 00                	add    %al,(%eax)
    1ac9:	00 00                	add    %al,(%eax)
    1acb:	00 00                	add    %al,(%eax)
    1acd:	00 1e                	add    %bl,(%esi)
    1acf:	03 00                	add    (%eax),%eax
    1ad1:	00 d4                	add    %dl,%ah
    1ad3:	04 00                	add    $0x0,%al
    1ad5:	00 0b                	add    %cl,(%ebx)
    1ad7:	00 74 28 06          	add    %dh,0x6(%eax,%ebp,1)
    1adb:	32 24 74             	xor    (%esp,%esi,2),%ah
    1ade:	24 06                	and    $0x6,%al
    1ae0:	22 23                	and    (%ebx),%ah
    1ae2:	08 00                	or     %al,(%eax)
    1ae4:	00 00                	add    %al,(%eax)
    1ae6:	00 00                	add    %al,(%eax)
    1ae8:	00 00                	add    %al,(%eax)
    1aea:	00 2b                	add    %ch,(%ebx)
    1aec:	03 00                	add    (%eax),%eax
    1aee:	00 34 03             	add    %dh,(%ebx,%eax,1)
    1af1:	00 00                	add    %al,(%eax)
    1af3:	01 00                	add    %eax,(%eax)
    1af5:	50                   	push   %eax
	...
    1afe:	dc 04 00             	faddl  (%eax,%eax,1)
    1b01:	00 dd                	add    %bl,%ch
    1b03:	04 00                	add    $0x0,%al
    1b05:	00 02                	add    %al,(%edx)
    1b07:	00 74 04 dd          	add    %dh,-0x23(%esp,%eax,1)
    1b0b:	04 00                	add    $0x0,%al
    1b0d:	00 df                	add    %bl,%bh
    1b0f:	04 00                	add    $0x0,%al
    1b11:	00 02                	add    %al,(%edx)
    1b13:	00 74 08 df          	add    %dh,-0x21(%eax,%ecx,1)
    1b17:	04 00                	add    $0x0,%al
    1b19:	00 13                	add    %dl,(%ebx)
    1b1b:	05 00 00 02 00       	add    $0x20000,%eax
    1b20:	75 08                	jne    1b2a <main-0xffe4d6>
    1b22:	13 05 00 00 14 05    	adc    0x5140000,%eax
    1b28:	00 00                	add    %al,(%eax)
    1b2a:	02 00                	add    (%eax),%al
    1b2c:	74 04                	je     1b32 <main-0xffe4ce>
	...
    1b36:	0e                   	push   %cs
    1b37:	05 00 00 14 05       	add    $0x5140000,%eax
    1b3c:	00 00                	add    %al,(%eax)
    1b3e:	02 00                	add    (%eax),%al
    1b40:	74 14                	je     1b56 <main-0xffe4aa>
	...
    1b4a:	14 05                	adc    $0x5,%al
    1b4c:	00 00                	add    %al,(%eax)
    1b4e:	15 05 00 00 02       	adc    $0x2000005,%eax
    1b53:	00 74 04 15          	add    %dh,0x15(%esp,%eax,1)
    1b57:	05 00 00 17 05       	add    $0x5170000,%eax
    1b5c:	00 00                	add    %al,(%eax)
    1b5e:	02 00                	add    (%eax),%al
    1b60:	74 08                	je     1b6a <main-0xffe496>
    1b62:	17                   	pop    %ss
    1b63:	05 00 00 43 05       	add    $0x5430000,%eax
    1b68:	00 00                	add    %al,(%eax)
    1b6a:	02 00                	add    (%eax),%al
    1b6c:	75 08                	jne    1b76 <main-0xffe48a>
    1b6e:	43                   	inc    %ebx
    1b6f:	05 00 00 44 05       	add    $0x5440000,%eax
    1b74:	00 00                	add    %al,(%eax)
    1b76:	02 00                	add    (%eax),%al
    1b78:	74 04                	je     1b7e <main-0xffe482>
	...

Disassembly of section .debug_pubtypes:

00000000 <.debug_pubtypes>:
   0:	0e                   	push   %cs
   1:	00 00                	add    %al,(%eax)
   3:	00 02                	add    %al,(%edx)
   5:	00 00                	add    %al,(%eax)
   7:	00 00                	add    %al,(%eax)
   9:	00 6c 00 00          	add    %ch,0x0(%eax,%eax,1)
   d:	00 00                	add    %al,(%eax)
   f:	00 00                	add    %al,(%eax)
  11:	00 0e                	add    %cl,(%esi)
  13:	00 00                	add    %al,(%eax)
  15:	00 02                	add    %al,(%edx)
  17:	00 6c 00 00          	add    %ch,0x0(%eax,%eax,1)
  1b:	00 a2 00 00 00 00    	add    %ah,0x0(%edx)
  21:	00 00                	add    %al,(%eax)
  23:	00 1a                	add    %bl,(%edx)
  25:	00 00                	add    %al,(%eax)
  27:	00 02                	add    %al,(%edx)
  29:	00 0e                	add    %cl,(%esi)
  2b:	01 00                	add    %eax,(%eax)
  2d:	00 c8                	add    %cl,%al
  2f:	01 00                	add    %eax,(%eax)
  31:	00 25 00 00 00 76    	add    %ah,0x76000000
  37:	61                   	popa   
  38:	5f                   	pop    %edi
  39:	6c                   	insb   (%dx),%es:(%edi)
  3a:	69 73 74 00 00 00 00 	imul   $0x0,0x74(%ebx),%esi
  41:	00 2c 00             	add    %ch,(%eax,%eax,1)
  44:	00 00                	add    %al,(%eax)
  46:	02 00                	add    (%eax),%al
  48:	5d                   	pop    %ebp
  49:	03 00                	add    (%eax),%eax
  4b:	00 49 02             	add    %cl,0x2(%ecx)
  4e:	00 00                	add    %al,(%eax)
  50:	25 00 00 00 76       	and    $0x76000000,%eax
  55:	61                   	popa   
  56:	5f                   	pop    %edi
  57:	6c                   	insb   (%dx),%es:(%edi)
  58:	69 73 74 00 41 00 00 	imul   $0x4100,0x74(%ebx),%esi
  5f:	00 73 70             	add    %dh,0x70(%ebx)
  62:	72 69                	jb     cd <main-0xffff33>
  64:	6e                   	outsb  %ds:(%esi),(%dx)
  65:	74 66                	je     cd <main-0xffff33>
  67:	5f                   	pop    %edi
  68:	73 74                	jae    de <main-0xffff22>
  6a:	61                   	popa   
  6b:	74 65                	je     d2 <main-0xffff2e>
  6d:	00 00                	add    %al,(%eax)
  6f:	00 00                	add    %al,(%eax)
  71:	00 28                	add    %ch,(%eax)
  73:	00 00                	add    %al,(%eax)
  75:	00 02                	add    %al,(%edx)
  77:	00 a6 05 00 00 ff    	add    %ah,-0xfffffb(%esi)
  7d:	04 00                	add    $0x0,%al
  7f:	00 25 00 00 00 76    	add    %ah,0x76000000
  85:	61                   	popa   
  86:	5f                   	pop    %edi
  87:	6c                   	insb   (%dx),%es:(%edi)
  88:	69 73 74 00 64 00 00 	imul   $0x6400,0x74(%ebx),%esi
  8f:	00 62 6f             	add    %ah,0x6f(%edx)
  92:	6f                   	outsl  %ds:(%esi),(%dx)
  93:	6c                   	insb   (%dx),%es:(%edi)
  94:	65                   	gs
  95:	61                   	popa   
  96:	6e                   	outsb  %ds:(%esi),(%dx)
  97:	5f                   	pop    %edi
  98:	74 00                	je     9a <main-0xffff66>
  9a:	00 00                	add    %al,(%eax)
  9c:	00 00                	add    %al,(%eax)
  9e:	0e                   	push   %cs
  9f:	00 00                	add    %al,(%eax)
  a1:	00 02                	add    %al,(%edx)
  a3:	00 a5 0a 00 00 5c    	add    %ah,0x5c00000a(%ebp)
  a9:	00 00                	add    %al,(%eax)
  ab:	00 00                	add    %al,(%eax)
  ad:	00 00                	add    %al,(%eax)
  af:	00 38                	add    %bh,(%eax)
  b1:	00 00                	add    %al,(%eax)
  b3:	00 02                	add    %al,(%edx)
  b5:	00 75 0b             	add    %dh,0xb(%ebp)
  b8:	00 00                	add    %al,(%eax)
  ba:	9f                   	lahf   
  bb:	05 00 00 25 00       	add    $0x250000,%eax
  c0:	00 00                	add    %al,(%eax)
  c2:	75 72                	jne    136 <main-0xfffeca>
  c4:	65                   	gs
  c5:	67 5f                	addr16 pop %edi
  c7:	74 00                	je     c9 <main-0xffff37>
  c9:	4b                   	dec    %ebx
  ca:	01 00                	add    %eax,(%eax)
  cc:	00 75 72             	add    %dh,0x72(%ebp)
  cf:	65                   	gs
  d0:	67 5f                	addr16 pop %edi
  d2:	74 00                	je     d4 <main-0xffff2c>
  d4:	56                   	push   %esi
  d5:	01 00                	add    %eax,(%eax)
  d7:	00 73 77             	add    %dh,0x77(%ebx)
  da:	65                   	gs
  db:	78 6e                	js     14b <main-0xfffeb5>
  dd:	5f                   	pop    %edi
  de:	68 61 6e 64 6c       	push   $0x6c646e61
  e3:	65                   	gs
  e4:	72 5f                	jb     145 <main-0xfffebb>
  e6:	74 00                	je     e8 <main-0xffff18>
  e8:	00 00                	add    %al,(%eax)
  ea:	00 00                	add    %al,(%eax)
  ec:	41                   	inc    %ecx
  ed:	00 00                	add    %al,(%eax)
  ef:	00 02                	add    %al,(%edx)
  f1:	00 7b 12             	add    %bh,0x12(%ebx)
  f4:	00 00                	add    %al,(%eax)
  f6:	9e                   	sahf   
  f7:	03 00                	add    (%eax),%eax
  f9:	00 25 00 00 00 75    	add    %ah,0x75000000
  ff:	5f                   	pop    %edi
 100:	69 6e 74 00 37 00 00 	imul   $0x3700,0x74(%esi),%ebp
 107:	00 64 69 67          	add    %ah,0x67(%ecx,%ebp,2)
 10b:	69 74 00 42 00 00 00 	imul   $0x71000000,0x42(%eax,%eax,1),%esi
 112:	71 
 113:	75 61                	jne    176 <main-0xfffe8a>
 115:	64                   	fs
 116:	5f                   	pop    %edi
 117:	74 00                	je     119 <main-0xfffee7>
 119:	54                   	push   %esp
 11a:	00 00                	add    %al,(%eax)
 11c:	00 75 5f             	add    %dh,0x5f(%ebp)
 11f:	71 75                	jno    196 <main-0xfffe6a>
 121:	61                   	popa   
 122:	64                   	fs
 123:	5f                   	pop    %edi
 124:	74 00                	je     126 <main-0xfffeda>
 126:	66                   	data16
 127:	00 00                	add    %al,(%eax)
 129:	00 75 75             	add    %dh,0x75(%ebp)
 12c:	00 00                	add    %al,(%eax)
 12e:	00 00                	add    %al,(%eax)
	...

Disassembly of section .debug_ranges:

00000000 <.debug_ranges>:
   0:	b9 00 00 00 bf       	mov    $0xbf000000,%ecx
   5:	00 00                	add    %al,(%eax)
   7:	00 54 0c 00          	add    %dl,0x0(%esp,%ecx,1)
   b:	00 30                	add    %dh,(%eax)
   d:	0e                   	push   %cs
	...
  16:	00 00                	add    %al,(%eax)
  18:	57                   	push   %edi
  19:	04 00                	add    $0x0,%al
  1b:	00 16                	add    %dl,(%esi)
  1d:	09 00                	or     %eax,(%eax)
  1f:	00 75 0e             	add    %dh,0xe(%ebp)
  22:	00 00                	add    %al,(%eax)
  24:	ca 0e 00             	lret   $0xe
	...
  2f:	00 fa                	add    %bh,%dl
  31:	02 00                	add    (%eax),%al
  33:	00 05 03 00 00 0d    	add    %al,0xd000003
  39:	03 00                	add    (%eax),%eax
  3b:	00 1d 04 00 00 00    	add    %bl,0x4
  41:	00 00                	add    %al,(%eax)
  43:	00 00                	add    %al,(%eax)
  45:	00 00                	add    %al,(%eax)
	...
