
test1:     file format elf32-i386


Disassembly of section .text:

01000000 <thread_run>:
 1000000:	55                   	push   %ebp
 1000001:	89 e5                	mov    %esp,%ebp
 1000003:	83 ec 08             	sub    $0x8,%esp
 1000006:	8b 45 08             	mov    0x8(%ebp),%eax
 1000009:	8b 00                	mov    (%eax),%eax
 100000b:	89 44 24 04          	mov    %eax,0x4(%esp)
 100000f:	c7 04 24 54 23 00 01 	movl   $0x1002354,(%esp)
 1000016:	e8 91 05 00 00       	call   10005ac <sim_printf>
 100001b:	eb fe                	jmp    100001b <thread_run+0x1b>

0100001d <main>:
 100001d:	55                   	push   %ebp
 100001e:	89 e5                	mov    %esp,%ebp
 1000020:	83 ec 14             	sub    $0x14,%esp
 1000023:	c7 45 fc 01 00 00 00 	movl   $0x1,-0x4(%ebp)
 100002a:	c7 04 24 0a 00 00 00 	movl   $0xa,(%esp)
 1000031:	e8 2a 01 00 00       	call   1000160 <thr_init>
 1000036:	c7 44 24 0c 00 00 00 	movl   $0x1000000,0xc(%esp)
 100003d:	01 
 100003e:	89 44 24 08          	mov    %eax,0x8(%esp)
 1000042:	c7 44 24 04 cf 23 00 	movl   $0x10023cf,0x4(%esp)
 1000049:	01 
 100004a:	c7 04 24 74 23 00 01 	movl   $0x1002374,(%esp)
 1000051:	e8 56 05 00 00       	call   10005ac <sim_printf>
 1000056:	8d 45 fc             	lea    -0x4(%ebp),%eax
 1000059:	89 44 24 04          	mov    %eax,0x4(%esp)
 100005d:	c7 04 24 00 00 00 01 	movl   $0x1000000,(%esp)
 1000064:	e8 c1 02 00 00       	call   100032a <thr_create>
 1000069:	89 44 24 08          	mov    %eax,0x8(%esp)
 100006d:	c7 44 24 04 cf 23 00 	movl   $0x10023cf,0x4(%esp)
 1000074:	01 
 1000075:	c7 04 24 a8 23 00 01 	movl   $0x10023a8,(%esp)
 100007c:	e8 2b 05 00 00       	call   10005ac <sim_printf>
 1000081:	eb fe                	jmp    1000081 <main+0x64>
 1000083:	90                   	nop

01000084 <_main>:
 1000084:	55                   	push   %ebp
 1000085:	89 e5                	mov    %esp,%ebp
 1000087:	83 ec 08             	sub    $0x8,%esp
 100008a:	8b 45 14             	mov    0x14(%ebp),%eax
 100008d:	89 44 24 04          	mov    %eax,0x4(%esp)
 1000091:	8b 45 10             	mov    0x10(%ebp),%eax
 1000094:	89 04 24             	mov    %eax,(%esp)
 1000097:	e8 94 1c 00 00       	call   1001d30 <install_autostack>
 100009c:	8b 45 0c             	mov    0xc(%ebp),%eax
 100009f:	89 44 24 04          	mov    %eax,0x4(%esp)
 10000a3:	8b 45 08             	mov    0x8(%ebp),%eax
 10000a6:	89 04 24             	mov    %eax,(%esp)
 10000a9:	e8 6f ff ff ff       	call   100001d <main>
 10000ae:	89 04 24             	mov    %eax,(%esp)
 10000b1:	e8 2e 15 00 00       	call   10015e4 <exit>
 10000b6:	90                   	nop
 10000b7:	90                   	nop

010000b8 <thr_set_main_stackH>:
 10000b8:	55                   	push   %ebp
 10000b9:	89 e5                	mov    %esp,%ebp
 10000bb:	8b 45 08             	mov    0x8(%ebp),%eax
 10000be:	a3 1c 39 00 01       	mov    %eax,0x100391c
 10000c3:	5d                   	pop    %ebp
 10000c4:	c3                   	ret    

010000c5 <thr_set_main_stackL>:
 10000c5:	55                   	push   %ebp
 10000c6:	89 e5                	mov    %esp,%ebp
 10000c8:	8b 45 08             	mov    0x8(%ebp),%eax
 10000cb:	a3 20 39 00 01       	mov    %eax,0x1003920
 10000d0:	5d                   	pop    %ebp
 10000d1:	c3                   	ret    

010000d2 <thr_get_main_stackH>:
 10000d2:	55                   	push   %ebp
 10000d3:	89 e5                	mov    %esp,%ebp
 10000d5:	a1 1c 39 00 01       	mov    0x100391c,%eax
 10000da:	5d                   	pop    %ebp
 10000db:	c3                   	ret    

010000dc <thr_get_main_stackL>:
 10000dc:	55                   	push   %ebp
 10000dd:	89 e5                	mov    %esp,%ebp
 10000df:	a1 20 39 00 01       	mov    0x1003920,%eax
 10000e4:	5d                   	pop    %ebp
 10000e5:	c3                   	ret    

010000e6 <thr_int_deallocate_stack>:
 10000e6:	55                   	push   %ebp
 10000e7:	89 e5                	mov    %esp,%ebp
 10000e9:	5d                   	pop    %ebp
 10000ea:	c3                   	ret    

010000eb <thr_int_insert_tcb>:
 10000eb:	55                   	push   %ebp
 10000ec:	89 e5                	mov    %esp,%ebp
 10000ee:	b8 00 00 00 00       	mov    $0x0,%eax
 10000f3:	5d                   	pop    %ebp
 10000f4:	c3                   	ret    

010000f5 <thr_int_allocate_new_tid>:
 10000f5:	55                   	push   %ebp
 10000f6:	89 e5                	mov    %esp,%ebp
 10000f8:	b8 01 00 00 00       	mov    $0x1,%eax
 10000fd:	5d                   	pop    %ebp
 10000fe:	c3                   	ret    

010000ff <thr_int_deallocate_tid>:
 10000ff:	55                   	push   %ebp
 1000100:	89 e5                	mov    %esp,%ebp
 1000102:	5d                   	pop    %ebp
 1000103:	c3                   	ret    

01000104 <thr_int_create_tcb>:
 1000104:	55                   	push   %ebp
 1000105:	89 e5                	mov    %esp,%ebp
 1000107:	56                   	push   %esi
 1000108:	53                   	push   %ebx
 1000109:	83 ec 0c             	sub    $0xc,%esp
 100010c:	e8 e4 ff ff ff       	call   10000f5 <thr_int_allocate_new_tid>
 1000111:	89 c6                	mov    %eax,%esi
 1000113:	c7 04 24 14 00 00 00 	movl   $0x14,(%esp)
 100011a:	e8 a4 03 00 00       	call   10004c3 <malloc>
 100011f:	89 c3                	mov    %eax,%ebx
 1000121:	c7 44 24 08 14 00 00 	movl   $0x14,0x8(%esp)
 1000128:	00 
 1000129:	c7 44 24 04 00 00 00 	movl   $0x0,0x4(%esp)
 1000130:	00 
 1000131:	89 04 24             	mov    %eax,(%esp)
 1000134:	e8 c3 14 00 00       	call   10015fc <memset>
 1000139:	85 db                	test   %ebx,%ebx
 100013b:	74 1a                	je     1000157 <thr_int_create_tcb+0x53>
 100013d:	89 73 08             	mov    %esi,0x8(%ebx)
 1000140:	8b 45 08             	mov    0x8(%ebp),%eax
 1000143:	89 03                	mov    %eax,(%ebx)
 1000145:	8b 45 0c             	mov    0xc(%ebp),%eax
 1000148:	89 43 04             	mov    %eax,0x4(%ebx)
 100014b:	8b 45 10             	mov    0x10(%ebp),%eax
 100014e:	89 43 0c             	mov    %eax,0xc(%ebx)
 1000151:	8b 45 14             	mov    0x14(%ebp),%eax
 1000154:	89 43 10             	mov    %eax,0x10(%ebx)
 1000157:	89 d8                	mov    %ebx,%eax
 1000159:	83 c4 0c             	add    $0xc,%esp
 100015c:	5b                   	pop    %ebx
 100015d:	5e                   	pop    %esi
 100015e:	5d                   	pop    %ebp
 100015f:	c3                   	ret    

01000160 <thr_init>:
 1000160:	55                   	push   %ebp
 1000161:	89 e5                	mov    %esp,%ebp
 1000163:	83 ec 1c             	sub    $0x1c,%esp
 1000166:	89 5d f4             	mov    %ebx,-0xc(%ebp)
 1000169:	89 75 f8             	mov    %esi,-0x8(%ebp)
 100016c:	89 7d fc             	mov    %edi,-0x4(%ebp)
 100016f:	8b 7d 08             	mov    0x8(%ebp),%edi
 1000172:	c7 44 24 04 06 26 00 	movl   $0x1002606,0x4(%esp)
 1000179:	01 
 100017a:	c7 04 24 d4 23 00 01 	movl   $0x10023d4,(%esp)
 1000181:	e8 26 04 00 00       	call   10005ac <sim_printf>
 1000186:	a1 1c 39 00 01       	mov    0x100391c,%eax
 100018b:	8b 1d 20 39 00 01    	mov    0x1003920,%ebx
 1000191:	85 c0                	test   %eax,%eax
 1000193:	74 04                	je     1000199 <thr_init+0x39>
 1000195:	85 db                	test   %ebx,%ebx
 1000197:	75 26                	jne    10001bf <thr_init+0x5f>
 1000199:	89 5c 24 0c          	mov    %ebx,0xc(%esp)
 100019d:	89 44 24 08          	mov    %eax,0x8(%esp)
 10001a1:	c7 44 24 04 06 26 00 	movl   $0x1002606,0x4(%esp)
 10001a8:	01 
 10001a9:	c7 04 24 e8 23 00 01 	movl   $0x10023e8,(%esp)
 10001b0:	e8 f7 03 00 00       	call   10005ac <sim_printf>
 10001b5:	b8 ff ff ff ff       	mov    $0xffffffff,%eax
 10001ba:	e9 91 00 00 00       	jmp    1000250 <thr_init+0xf0>
 10001bf:	89 5c 24 0c          	mov    %ebx,0xc(%esp)
 10001c3:	89 44 24 08          	mov    %eax,0x8(%esp)
 10001c7:	c7 44 24 04 06 26 00 	movl   $0x1002606,0x4(%esp)
 10001ce:	01 
 10001cf:	c7 04 24 20 24 00 01 	movl   $0x1002420,(%esp)
 10001d6:	e8 d1 03 00 00       	call   10005ac <sim_printf>
 10001db:	89 f8                	mov    %edi,%eax
 10001dd:	25 ff 0f 00 00       	and    $0xfff,%eax
 10001e2:	83 f8 01             	cmp    $0x1,%eax
 10001e5:	19 c0                	sbb    %eax,%eax
 10001e7:	f7 d0                	not    %eax
 10001e9:	25 00 10 00 00       	and    $0x1000,%eax
 10001ee:	89 fe                	mov    %edi,%esi
 10001f0:	81 e6 00 f0 ff ff    	and    $0xfffff000,%esi
 10001f6:	8d 34 30             	lea    (%eax,%esi,1),%esi
 10001f9:	89 35 2c 39 00 01    	mov    %esi,0x100392c
 10001ff:	89 74 24 08          	mov    %esi,0x8(%esp)
 1000203:	c7 44 24 04 06 26 00 	movl   $0x1002606,0x4(%esp)
 100020a:	01 
 100020b:	c7 04 24 54 24 00 01 	movl   $0x1002454,(%esp)
 1000212:	e8 95 03 00 00       	call   10005ac <sim_printf>
 1000217:	81 eb 04 20 00 00    	sub    $0x2004,%ebx
 100021d:	89 d8                	mov    %ebx,%eax
 100021f:	29 f0                	sub    %esi,%eax
 1000221:	8d 40 04             	lea    0x4(%eax),%eax
 1000224:	89 1d 24 39 00 01    	mov    %ebx,0x1003924
 100022a:	a3 28 39 00 01       	mov    %eax,0x1003928
 100022f:	89 44 24 0c          	mov    %eax,0xc(%esp)
 1000233:	89 5c 24 08          	mov    %ebx,0x8(%esp)
 1000237:	c7 44 24 04 06 26 00 	movl   $0x1002606,0x4(%esp)
 100023e:	01 
 100023f:	c7 04 24 74 24 00 01 	movl   $0x1002474,(%esp)
 1000246:	e8 61 03 00 00       	call   10005ac <sim_printf>
 100024b:	b8 00 00 00 00       	mov    $0x0,%eax
 1000250:	8b 5d f4             	mov    -0xc(%ebp),%ebx
 1000253:	8b 75 f8             	mov    -0x8(%ebp),%esi
 1000256:	8b 7d fc             	mov    -0x4(%ebp),%edi
 1000259:	89 ec                	mov    %ebp,%esp
 100025b:	5d                   	pop    %ebp
 100025c:	c3                   	ret    

0100025d <thr_int_fork_c_wrapper>:
 100025d:	55                   	push   %ebp
 100025e:	89 e5                	mov    %esp,%ebp
 1000260:	83 ec 14             	sub    $0x14,%esp
 1000263:	89 5d f8             	mov    %ebx,-0x8(%ebp)
 1000266:	89 75 fc             	mov    %esi,-0x4(%ebp)
 1000269:	8b 5d 08             	mov    0x8(%ebp),%ebx
 100026c:	85 db                	test   %ebx,%ebx
 100026e:	74 2f                	je     100029f <thr_int_fork_c_wrapper+0x42>
 1000270:	8b 33                	mov    (%ebx),%esi
 1000272:	89 74 24 08          	mov    %esi,0x8(%esp)
 1000276:	c7 44 24 04 cd 25 00 	movl   $0x10025cd,0x4(%esp)
 100027d:	01 
 100027e:	c7 04 24 a8 24 00 01 	movl   $0x10024a8,(%esp)
 1000285:	e8 22 03 00 00       	call   10005ac <sim_printf>
 100028a:	89 34 24             	mov    %esi,(%esp)
 100028d:	e8 ca 01 00 00       	call   100045c <thr_int_fork_asm_wrapper>
 1000292:	85 c0                	test   %eax,%eax
 1000294:	75 09                	jne    100029f <thr_int_fork_c_wrapper+0x42>
 1000296:	8b 43 10             	mov    0x10(%ebx),%eax
 1000299:	89 04 24             	mov    %eax,(%esp)
 100029c:	ff 53 0c             	call   *0xc(%ebx)
 100029f:	8b 5d f8             	mov    -0x8(%ebp),%ebx
 10002a2:	8b 75 fc             	mov    -0x4(%ebp),%esi
 10002a5:	89 ec                	mov    %ebp,%esp
 10002a7:	5d                   	pop    %ebp
 10002a8:	c3                   	ret    

010002a9 <thr_int_allocate_stack>:
 10002a9:	55                   	push   %ebp
 10002aa:	89 e5                	mov    %esp,%ebp
 10002ac:	53                   	push   %ebx
 10002ad:	83 ec 0c             	sub    $0xc,%esp
 10002b0:	a1 2c 39 00 01       	mov    0x100392c,%eax
 10002b5:	bb 00 00 00 00       	mov    $0x0,%ebx
 10002ba:	83 3d 30 39 00 01 00 	cmpl   $0x0,0x1003930
 10002c1:	75 17                	jne    10002da <thr_int_allocate_stack+0x31>
 10002c3:	ba 28 39 00 01       	mov    $0x1003928,%edx
 10002c8:	8b 1a                	mov    (%edx),%ebx
 10002ca:	8d 4b fc             	lea    -0x4(%ebx),%ecx
 10002cd:	89 0d 24 39 00 01    	mov    %ecx,0x1003924
 10002d3:	29 c1                	sub    %eax,%ecx
 10002d5:	8d 41 04             	lea    0x4(%ecx),%eax
 10002d8:	89 02                	mov    %eax,(%edx)
 10002da:	89 5c 24 08          	mov    %ebx,0x8(%esp)
 10002de:	c7 44 24 04 e4 25 00 	movl   $0x10025e4,0x4(%esp)
 10002e5:	01 
 10002e6:	c7 04 24 c8 24 00 01 	movl   $0x10024c8,(%esp)
 10002ed:	e8 ba 02 00 00       	call   10005ac <sim_printf>
 10002f2:	8b 45 08             	mov    0x8(%ebp),%eax
 10002f5:	89 44 24 04          	mov    %eax,0x4(%esp)
 10002f9:	89 1c 24             	mov    %ebx,(%esp)
 10002fc:	e8 23 1a 00 00       	call   1001d24 <new_pages>
 1000301:	85 c0                	test   %eax,%eax
 1000303:	79 1d                	jns    1000322 <thr_int_allocate_stack+0x79>
 1000305:	89 44 24 08          	mov    %eax,0x8(%esp)
 1000309:	c7 44 24 04 e4 25 00 	movl   $0x10025e4,0x4(%esp)
 1000310:	01 
 1000311:	c7 04 24 e8 24 00 01 	movl   $0x10024e8,(%esp)
 1000318:	e8 8f 02 00 00       	call   10005ac <sim_printf>
 100031d:	bb 00 00 00 00       	mov    $0x0,%ebx
 1000322:	89 d8                	mov    %ebx,%eax
 1000324:	83 c4 0c             	add    $0xc,%esp
 1000327:	5b                   	pop    %ebx
 1000328:	5d                   	pop    %ebp
 1000329:	c3                   	ret    

0100032a <thr_create>:
 100032a:	55                   	push   %ebp
 100032b:	89 e5                	mov    %esp,%ebp
 100032d:	83 ec 20             	sub    $0x20,%esp
 1000330:	89 5d f4             	mov    %ebx,-0xc(%ebp)
 1000333:	89 75 f8             	mov    %esi,-0x8(%ebp)
 1000336:	89 7d fc             	mov    %edi,-0x4(%ebp)
 1000339:	c7 44 24 04 fb 25 00 	movl   $0x10025fb,0x4(%esp)
 1000340:	01 
 1000341:	c7 04 24 d4 23 00 01 	movl   $0x10023d4,(%esp)
 1000348:	e8 5f 02 00 00       	call   10005ac <sim_printf>
 100034d:	83 7d 08 00          	cmpl   $0x0,0x8(%ebp)
 1000351:	74 06                	je     1000359 <thr_create+0x2f>
 1000353:	83 7d 0c 00          	cmpl   $0x0,0xc(%ebp)
 1000357:	75 2c                	jne    1000385 <thr_create+0x5b>
 1000359:	8b 45 0c             	mov    0xc(%ebp),%eax
 100035c:	89 44 24 0c          	mov    %eax,0xc(%esp)
 1000360:	8b 45 08             	mov    0x8(%ebp),%eax
 1000363:	89 44 24 08          	mov    %eax,0x8(%esp)
 1000367:	c7 44 24 04 fb 25 00 	movl   $0x10025fb,0x4(%esp)
 100036e:	01 
 100036f:	c7 04 24 18 25 00 01 	movl   $0x1002518,(%esp)
 1000376:	e8 31 02 00 00       	call   10005ac <sim_printf>
 100037b:	b8 00 00 00 00       	mov    $0x0,%eax
 1000380:	e9 c9 00 00 00       	jmp    100044e <thr_create+0x124>
 1000385:	8b 3d 2c 39 00 01    	mov    0x100392c,%edi
 100038b:	89 3c 24             	mov    %edi,(%esp)
 100038e:	e8 16 ff ff ff       	call   10002a9 <thr_int_allocate_stack>
 1000393:	89 c6                	mov    %eax,%esi
 1000395:	85 c0                	test   %eax,%eax
 1000397:	75 1e                	jne    10003b7 <thr_create+0x8d>
 1000399:	c7 44 24 04 fb 25 00 	movl   $0x10025fb,0x4(%esp)
 10003a0:	01 
 10003a1:	c7 04 24 44 25 00 01 	movl   $0x1002544,(%esp)
 10003a8:	e8 ff 01 00 00       	call   10005ac <sim_printf>
 10003ad:	b8 ff ff ff ff       	mov    $0xffffffff,%eax
 10003b2:	e9 97 00 00 00       	jmp    100044e <thr_create+0x124>
 10003b7:	8d 5c 38 fc          	lea    -0x4(%eax,%edi,1),%ebx
 10003bb:	89 7c 24 10          	mov    %edi,0x10(%esp)
 10003bf:	89 44 24 0c          	mov    %eax,0xc(%esp)
 10003c3:	89 5c 24 08          	mov    %ebx,0x8(%esp)
 10003c7:	c7 44 24 04 fb 25 00 	movl   $0x10025fb,0x4(%esp)
 10003ce:	01 
 10003cf:	c7 04 24 68 25 00 01 	movl   $0x1002568,(%esp)
 10003d6:	e8 d1 01 00 00       	call   10005ac <sim_printf>
 10003db:	8b 45 0c             	mov    0xc(%ebp),%eax
 10003de:	89 44 24 0c          	mov    %eax,0xc(%esp)
 10003e2:	8b 45 08             	mov    0x8(%ebp),%eax
 10003e5:	89 44 24 08          	mov    %eax,0x8(%esp)
 10003e9:	89 74 24 04          	mov    %esi,0x4(%esp)
 10003ed:	89 1c 24             	mov    %ebx,(%esp)
 10003f0:	e8 0f fd ff ff       	call   1000104 <thr_int_create_tcb>
 10003f5:	89 c3                	mov    %eax,%ebx
 10003f7:	85 c0                	test   %eax,%eax
 10003f9:	75 1b                	jne    1000416 <thr_create+0xec>
 10003fb:	c7 44 24 04 fb 25 00 	movl   $0x10025fb,0x4(%esp)
 1000402:	01 
 1000403:	c7 04 24 44 25 00 01 	movl   $0x1002544,(%esp)
 100040a:	e8 9d 01 00 00       	call   10005ac <sim_printf>
 100040f:	b8 ff ff ff ff       	mov    $0xffffffff,%eax
 1000414:	eb 38                	jmp    100044e <thr_create+0x124>
 1000416:	8b 70 08             	mov    0x8(%eax),%esi
 1000419:	89 04 24             	mov    %eax,(%esp)
 100041c:	e8 ca fc ff ff       	call   10000eb <thr_int_insert_tcb>
 1000421:	85 c0                	test   %eax,%eax
 1000423:	74 1f                	je     1000444 <thr_create+0x11a>
 1000425:	89 44 24 08          	mov    %eax,0x8(%esp)
 1000429:	c7 44 24 04 fb 25 00 	movl   $0x10025fb,0x4(%esp)
 1000430:	01 
 1000431:	c7 04 24 a0 25 00 01 	movl   $0x10025a0,(%esp)
 1000438:	e8 6f 01 00 00       	call   10005ac <sim_printf>
 100043d:	b8 ff ff ff ff       	mov    $0xffffffff,%eax
 1000442:	eb 0a                	jmp    100044e <thr_create+0x124>
 1000444:	89 1c 24             	mov    %ebx,(%esp)
 1000447:	e8 11 fe ff ff       	call   100025d <thr_int_fork_c_wrapper>
 100044c:	89 f0                	mov    %esi,%eax
 100044e:	8b 5d f4             	mov    -0xc(%ebp),%ebx
 1000451:	8b 75 f8             	mov    -0x8(%ebp),%esi
 1000454:	8b 7d fc             	mov    -0x4(%ebp),%edi
 1000457:	89 ec                	mov    %ebp,%esp
 1000459:	5d                   	pop    %ebp
 100045a:	c3                   	ret    
 100045b:	90                   	nop

0100045c <thr_int_fork_asm_wrapper>:
 100045c:	55                   	push   %ebp
 100045d:	8b 44 24 08          	mov    0x8(%esp),%eax
 1000461:	8b 4c 24 04          	mov    0x4(%esp),%ecx
 1000465:	89 08                	mov    %ecx,(%eax)
 1000467:	89 e2                	mov    %esp,%edx
 1000469:	bd 00 00 00 00       	mov    $0x0,%ebp
 100046e:	89 c4                	mov    %eax,%esp
 1000470:	cd 52                	int    $0x52
 1000472:	83 f8 00             	cmp    $0x0,%eax
 1000475:	74 03                	je     100047a <.CHILD>
 1000477:	89 d4                	mov    %edx,%esp
 1000479:	5d                   	pop    %ebp

0100047a <.CHILD>:
 100047a:	c3                   	ret    
 100047b:	90                   	nop

0100047c <free>:
 100047c:	55                   	push   %ebp
 100047d:	89 e5                	mov    %esp,%ebp
 100047f:	83 ec 04             	sub    $0x4,%esp
 1000482:	8b 45 08             	mov    0x8(%ebp),%eax
 1000485:	89 04 24             	mov    %eax,(%esp)
 1000488:	e8 ab 11 00 00       	call   1001638 <_free>
 100048d:	c9                   	leave  
 100048e:	c3                   	ret    

0100048f <realloc>:
 100048f:	55                   	push   %ebp
 1000490:	89 e5                	mov    %esp,%ebp
 1000492:	83 ec 08             	sub    $0x8,%esp
 1000495:	8b 45 0c             	mov    0xc(%ebp),%eax
 1000498:	89 44 24 04          	mov    %eax,0x4(%esp)
 100049c:	8b 45 08             	mov    0x8(%ebp),%eax
 100049f:	89 04 24             	mov    %eax,(%esp)
 10004a2:	e8 ad 11 00 00       	call   1001654 <_realloc>
 10004a7:	c9                   	leave  
 10004a8:	c3                   	ret    

010004a9 <calloc>:
 10004a9:	55                   	push   %ebp
 10004aa:	89 e5                	mov    %esp,%ebp
 10004ac:	83 ec 08             	sub    $0x8,%esp
 10004af:	8b 45 0c             	mov    0xc(%ebp),%eax
 10004b2:	89 44 24 04          	mov    %eax,0x4(%esp)
 10004b6:	8b 45 08             	mov    0x8(%ebp),%eax
 10004b9:	89 04 24             	mov    %eax,(%esp)
 10004bc:	e8 f1 11 00 00       	call   10016b2 <_calloc>
 10004c1:	c9                   	leave  
 10004c2:	c3                   	ret    

010004c3 <malloc>:
 10004c3:	55                   	push   %ebp
 10004c4:	89 e5                	mov    %esp,%ebp
 10004c6:	83 ec 04             	sub    $0x4,%esp
 10004c9:	8b 45 08             	mov    0x8(%ebp),%eax
 10004cc:	89 04 24             	mov    %eax,(%esp)
 10004cf:	e8 a8 11 00 00       	call   100167c <_malloc>
 10004d4:	c9                   	leave  
 10004d5:	c3                   	ret    
 10004d6:	90                   	nop
 10004d7:	90                   	nop

010004d8 <sim_fr_here>:
 10004d8:	55                   	push   %ebp
 10004d9:	89 e5                	mov    %esp,%ebp
 10004db:	83 ec 04             	sub    $0x4,%esp
 10004de:	c7 04 24 07 80 10 04 	movl   $0x4108007,(%esp)
 10004e5:	e8 02 01 00 00       	call   10005ec <sim_call>
 10004ea:	c9                   	leave  
 10004eb:	c3                   	ret    

010004ec <sim_fr_prog>:
 10004ec:	55                   	push   %ebp
 10004ed:	89 e5                	mov    %esp,%ebp
 10004ef:	83 ec 08             	sub    $0x8,%esp
 10004f2:	8b 45 08             	mov    0x8(%ebp),%eax
 10004f5:	89 44 24 04          	mov    %eax,0x4(%esp)
 10004f9:	c7 04 24 06 80 10 04 	movl   $0x4108006,(%esp)
 1000500:	e8 e7 00 00 00       	call   10005ec <sim_call>
 1000505:	c9                   	leave  
 1000506:	c3                   	ret    

01000507 <sim_ck1>:
 1000507:	55                   	push   %ebp
 1000508:	89 e5                	mov    %esp,%ebp
 100050a:	83 ec 04             	sub    $0x4,%esp
 100050d:	c7 04 24 00 80 10 04 	movl   $0x4108000,(%esp)
 1000514:	e8 d3 00 00 00       	call   10005ec <sim_call>
 1000519:	c9                   	leave  
 100051a:	c3                   	ret    

0100051b <sim_halt>:
 100051b:	55                   	push   %ebp
 100051c:	89 e5                	mov    %esp,%ebp
 100051e:	83 ec 04             	sub    $0x4,%esp
 1000521:	c7 04 24 04 00 10 04 	movl   $0x4100004,(%esp)
 1000528:	e8 bf 00 00 00       	call   10005ec <sim_call>
 100052d:	c9                   	leave  
 100052e:	c3                   	ret    

0100052f <sim_breakpoint>:
 100052f:	55                   	push   %ebp
 1000530:	89 e5                	mov    %esp,%ebp
 1000532:	83 ec 04             	sub    $0x4,%esp
 1000535:	c7 04 24 03 00 10 04 	movl   $0x4100003,(%esp)
 100053c:	e8 ab 00 00 00       	call   10005ec <sim_call>
 1000541:	c9                   	leave  
 1000542:	c3                   	ret    

01000543 <sim_puts>:
 1000543:	55                   	push   %ebp
 1000544:	89 e5                	mov    %esp,%ebp
 1000546:	83 ec 08             	sub    $0x8,%esp
 1000549:	8b 45 08             	mov    0x8(%ebp),%eax
 100054c:	89 44 24 04          	mov    %eax,0x4(%esp)
 1000550:	c7 04 24 02 00 10 04 	movl   $0x4100002,(%esp)
 1000557:	e8 90 00 00 00       	call   10005ec <sim_call>
 100055c:	c9                   	leave  
 100055d:	c3                   	ret    

0100055e <sim_memsize>:
 100055e:	55                   	push   %ebp
 100055f:	89 e5                	mov    %esp,%ebp
 1000561:	83 ec 04             	sub    $0x4,%esp
 1000564:	c7 04 24 01 00 10 04 	movl   $0x4100001,(%esp)
 100056b:	e8 7c 00 00 00       	call   10005ec <sim_call>
 1000570:	c9                   	leave  
 1000571:	c3                   	ret    

01000572 <sim_in_simics>:
 1000572:	55                   	push   %ebp
 1000573:	89 e5                	mov    %esp,%ebp
 1000575:	83 ec 04             	sub    $0x4,%esp
 1000578:	c7 04 24 00 00 10 04 	movl   $0x4100000,(%esp)
 100057f:	e8 68 00 00 00       	call   10005ec <sim_call>
 1000584:	c9                   	leave  
 1000585:	c3                   	ret    

01000586 <magic_readline>:
 1000586:	55                   	push   %ebp
 1000587:	89 e5                	mov    %esp,%ebp
 1000589:	83 ec 08             	sub    $0x8,%esp
 100058c:	c7 04 24 04 80 10 04 	movl   $0x4108004,(%esp)
 1000593:	e8 54 00 00 00       	call   10005ec <sim_call>
 1000598:	8b 45 0c             	mov    0xc(%ebp),%eax
 100059b:	89 44 24 04          	mov    %eax,0x4(%esp)
 100059f:	8b 45 08             	mov    0x8(%ebp),%eax
 10005a2:	89 04 24             	mov    %eax,(%esp)
 10005a5:	e8 1f 17 00 00       	call   1001cc9 <readline>
 10005aa:	c9                   	leave  
 10005ab:	c3                   	ret    

010005ac <sim_printf>:
 10005ac:	55                   	push   %ebp
 10005ad:	89 e5                	mov    %esp,%ebp
 10005af:	53                   	push   %ebx
 10005b0:	81 ec 10 01 00 00    	sub    $0x110,%esp
 10005b6:	8d 45 0c             	lea    0xc(%ebp),%eax
 10005b9:	89 44 24 0c          	mov    %eax,0xc(%esp)
 10005bd:	8b 45 08             	mov    0x8(%ebp),%eax
 10005c0:	89 44 24 08          	mov    %eax,0x8(%esp)
 10005c4:	c7 44 24 04 ff 00 00 	movl   $0xff,0x4(%esp)
 10005cb:	00 
 10005cc:	8d 9d fc fe ff ff    	lea    -0x104(%ebp),%ebx
 10005d2:	89 1c 24             	mov    %ebx,(%esp)
 10005d5:	e8 4d 00 00 00       	call   1000627 <vsnprintf>
 10005da:	89 1c 24             	mov    %ebx,(%esp)
 10005dd:	e8 61 ff ff ff       	call   1000543 <sim_puts>
 10005e2:	81 c4 10 01 00 00    	add    $0x110,%esp
 10005e8:	5b                   	pop    %ebx
 10005e9:	5d                   	pop    %ebp
 10005ea:	c3                   	ret    
 10005eb:	90                   	nop

010005ec <sim_call>:
 10005ec:	53                   	push   %ebx
 10005ed:	8b 5c 24 08          	mov    0x8(%esp),%ebx
 10005f1:	8b 4c 24 0c          	mov    0xc(%esp),%ecx
 10005f5:	8b 54 24 10          	mov    0x10(%esp),%edx
 10005f9:	b8 00 00 00 00       	mov    $0x0,%eax
 10005fe:	87 db                	xchg   %ebx,%ebx
 1000600:	5b                   	pop    %ebx
 1000601:	c3                   	ret    
 1000602:	90                   	nop
 1000603:	90                   	nop

01000604 <savechar>:
 1000604:	55                   	push   %ebp
 1000605:	89 e5                	mov    %esp,%ebp
 1000607:	8b 45 08             	mov    0x8(%ebp),%eax
 100060a:	8b 50 08             	mov    0x8(%eax),%edx
 100060d:	83 fa ff             	cmp    $0xffffffff,%edx
 1000610:	74 05                	je     1000617 <savechar+0x13>
 1000612:	3b 50 04             	cmp    0x4(%eax),%edx
 1000615:	74 0e                	je     1000625 <savechar+0x21>
 1000617:	83 40 04 01          	addl   $0x1,0x4(%eax)
 100061b:	8b 10                	mov    (%eax),%edx
 100061d:	8b 4d 0c             	mov    0xc(%ebp),%ecx
 1000620:	88 0a                	mov    %cl,(%edx)
 1000622:	83 00 01             	addl   $0x1,(%eax)
 1000625:	5d                   	pop    %ebp
 1000626:	c3                   	ret    

01000627 <vsnprintf>:
 1000627:	55                   	push   %ebp
 1000628:	89 e5                	mov    %esp,%ebp
 100062a:	83 ec 20             	sub    $0x20,%esp
 100062d:	8b 45 0c             	mov    0xc(%ebp),%eax
 1000630:	83 e8 01             	sub    $0x1,%eax
 1000633:	89 45 fc             	mov    %eax,-0x4(%ebp)
 1000636:	c7 45 f8 00 00 00 00 	movl   $0x0,-0x8(%ebp)
 100063d:	8b 45 08             	mov    0x8(%ebp),%eax
 1000640:	89 45 f4             	mov    %eax,-0xc(%ebp)
 1000643:	8d 45 f4             	lea    -0xc(%ebp),%eax
 1000646:	89 44 24 10          	mov    %eax,0x10(%esp)
 100064a:	c7 44 24 0c 04 06 00 	movl   $0x1000604,0xc(%esp)
 1000651:	01 
 1000652:	c7 44 24 08 00 00 00 	movl   $0x0,0x8(%esp)
 1000659:	00 
 100065a:	8b 45 14             	mov    0x14(%ebp),%eax
 100065d:	89 44 24 04          	mov    %eax,0x4(%esp)
 1000661:	8b 45 10             	mov    0x10(%ebp),%eax
 1000664:	89 04 24             	mov    %eax,(%esp)
 1000667:	e8 51 01 00 00       	call   10007bd <_doprnt>
 100066c:	8b 45 f4             	mov    -0xc(%ebp),%eax
 100066f:	c6 00 00             	movb   $0x0,(%eax)
 1000672:	8b 45 f8             	mov    -0x8(%ebp),%eax
 1000675:	c9                   	leave  
 1000676:	c3                   	ret    

01000677 <snprintf>:
 1000677:	55                   	push   %ebp
 1000678:	89 e5                	mov    %esp,%ebp
 100067a:	83 ec 10             	sub    $0x10,%esp
 100067d:	8d 45 14             	lea    0x14(%ebp),%eax
 1000680:	89 44 24 0c          	mov    %eax,0xc(%esp)
 1000684:	8b 45 10             	mov    0x10(%ebp),%eax
 1000687:	89 44 24 08          	mov    %eax,0x8(%esp)
 100068b:	8b 45 0c             	mov    0xc(%ebp),%eax
 100068e:	89 44 24 04          	mov    %eax,0x4(%esp)
 1000692:	8b 45 08             	mov    0x8(%ebp),%eax
 1000695:	89 04 24             	mov    %eax,(%esp)
 1000698:	e8 8a ff ff ff       	call   1000627 <vsnprintf>
 100069d:	c9                   	leave  
 100069e:	c3                   	ret    

0100069f <vsprintf>:
 100069f:	55                   	push   %ebp
 10006a0:	89 e5                	mov    %esp,%ebp
 10006a2:	83 ec 20             	sub    $0x20,%esp
 10006a5:	c7 45 fc ff ff ff ff 	movl   $0xffffffff,-0x4(%ebp)
 10006ac:	c7 45 f8 00 00 00 00 	movl   $0x0,-0x8(%ebp)
 10006b3:	8b 45 08             	mov    0x8(%ebp),%eax
 10006b6:	89 45 f4             	mov    %eax,-0xc(%ebp)
 10006b9:	8d 45 f4             	lea    -0xc(%ebp),%eax
 10006bc:	89 44 24 10          	mov    %eax,0x10(%esp)
 10006c0:	c7 44 24 0c 04 06 00 	movl   $0x1000604,0xc(%esp)
 10006c7:	01 
 10006c8:	c7 44 24 08 00 00 00 	movl   $0x0,0x8(%esp)
 10006cf:	00 
 10006d0:	8b 45 10             	mov    0x10(%ebp),%eax
 10006d3:	89 44 24 04          	mov    %eax,0x4(%esp)
 10006d7:	8b 45 0c             	mov    0xc(%ebp),%eax
 10006da:	89 04 24             	mov    %eax,(%esp)
 10006dd:	e8 db 00 00 00       	call   10007bd <_doprnt>
 10006e2:	8b 45 f4             	mov    -0xc(%ebp),%eax
 10006e5:	c6 00 00             	movb   $0x0,(%eax)
 10006e8:	8b 45 f8             	mov    -0x8(%ebp),%eax
 10006eb:	c9                   	leave  
 10006ec:	c3                   	ret    

010006ed <sprintf>:
 10006ed:	55                   	push   %ebp
 10006ee:	89 e5                	mov    %esp,%ebp
 10006f0:	83 ec 0c             	sub    $0xc,%esp
 10006f3:	8d 45 10             	lea    0x10(%ebp),%eax
 10006f6:	89 44 24 08          	mov    %eax,0x8(%esp)
 10006fa:	8b 45 0c             	mov    0xc(%ebp),%eax
 10006fd:	89 44 24 04          	mov    %eax,0x4(%esp)
 1000701:	8b 45 08             	mov    0x8(%ebp),%eax
 1000704:	89 04 24             	mov    %eax,(%esp)
 1000707:	e8 93 ff ff ff       	call   100069f <vsprintf>
 100070c:	c9                   	leave  
 100070d:	c3                   	ret    
 100070e:	90                   	nop
 100070f:	90                   	nop

01000710 <printnum>:
 1000710:	55                   	push   %ebp
 1000711:	89 e5                	mov    %esp,%ebp
 1000713:	57                   	push   %edi
 1000714:	56                   	push   %esi
 1000715:	53                   	push   %ebx
 1000716:	83 ec 30             	sub    $0x30,%esp
 1000719:	89 55 d0             	mov    %edx,-0x30(%ebp)
 100071c:	89 4d cc             	mov    %ecx,-0x34(%ebp)
 100071f:	8b 7d 08             	mov    0x8(%ebp),%edi
 1000722:	8d 5d f3             	lea    -0xd(%ebp),%ebx
 1000725:	b9 11 28 00 01       	mov    $0x1002811,%ecx
 100072a:	ba 00 00 00 00       	mov    $0x0,%edx
 100072f:	f7 75 d0             	divl   -0x30(%ebp)
 1000732:	0f b6 14 11          	movzbl (%ecx,%edx,1),%edx
 1000736:	88 13                	mov    %dl,(%ebx)
 1000738:	83 eb 01             	sub    $0x1,%ebx
 100073b:	85 c0                	test   %eax,%eax
 100073d:	75 eb                	jne    100072a <printnum+0x1a>
 100073f:	83 c3 01             	add    $0x1,%ebx
 1000742:	8d 75 f4             	lea    -0xc(%ebp),%esi
 1000745:	39 f3                	cmp    %esi,%ebx
 1000747:	74 14                	je     100075d <printnum+0x4d>
 1000749:	0f be 03             	movsbl (%ebx),%eax
 100074c:	89 44 24 04          	mov    %eax,0x4(%esp)
 1000750:	89 3c 24             	mov    %edi,(%esp)
 1000753:	ff 55 cc             	call   *-0x34(%ebp)
 1000756:	83 c3 01             	add    $0x1,%ebx
 1000759:	39 f3                	cmp    %esi,%ebx
 100075b:	75 ec                	jne    1000749 <printnum+0x39>
 100075d:	83 c4 30             	add    $0x30,%esp
 1000760:	5b                   	pop    %ebx
 1000761:	5e                   	pop    %esi
 1000762:	5f                   	pop    %edi
 1000763:	5d                   	pop    %ebp
 1000764:	c3                   	ret    

01000765 <printnum_16>:
 1000765:	55                   	push   %ebp
 1000766:	89 e5                	mov    %esp,%ebp
 1000768:	57                   	push   %edi
 1000769:	56                   	push   %esi
 100076a:	53                   	push   %ebx
 100076b:	83 ec 18             	sub    $0x18,%esp
 100076e:	89 55 e8             	mov    %edx,-0x18(%ebp)
 1000771:	89 4d e4             	mov    %ecx,-0x1c(%ebp)
 1000774:	8d 75 eb             	lea    -0x15(%ebp),%esi
 1000777:	8d 55 f3             	lea    -0xd(%ebp),%edx
 100077a:	b9 11 28 00 01       	mov    $0x1002811,%ecx
 100077f:	89 c3                	mov    %eax,%ebx
 1000781:	83 e3 0f             	and    $0xf,%ebx
 1000784:	0f b6 1c 19          	movzbl (%ecx,%ebx,1),%ebx
 1000788:	88 1a                	mov    %bl,(%edx)
 100078a:	83 ea 01             	sub    $0x1,%edx
 100078d:	c1 e8 04             	shr    $0x4,%eax
 1000790:	39 f2                	cmp    %esi,%edx
 1000792:	75 eb                	jne    100077f <printnum_16+0x1a>
 1000794:	bb 00 00 00 00       	mov    $0x0,%ebx
 1000799:	8d 75 ec             	lea    -0x14(%ebp),%esi
 100079c:	8b 7d e4             	mov    -0x1c(%ebp),%edi
 100079f:	0f be 04 1e          	movsbl (%esi,%ebx,1),%eax
 10007a3:	89 44 24 04          	mov    %eax,0x4(%esp)
 10007a7:	89 3c 24             	mov    %edi,(%esp)
 10007aa:	ff 55 e8             	call   *-0x18(%ebp)
 10007ad:	83 c3 01             	add    $0x1,%ebx
 10007b0:	83 fb 08             	cmp    $0x8,%ebx
 10007b3:	75 ea                	jne    100079f <printnum_16+0x3a>
 10007b5:	83 c4 18             	add    $0x18,%esp
 10007b8:	5b                   	pop    %ebx
 10007b9:	5e                   	pop    %esi
 10007ba:	5f                   	pop    %edi
 10007bb:	5d                   	pop    %ebp
 10007bc:	c3                   	ret    

010007bd <_doprnt>:
 10007bd:	55                   	push   %ebp
 10007be:	89 e5                	mov    %esp,%ebp
 10007c0:	57                   	push   %edi
 10007c1:	56                   	push   %esi
 10007c2:	53                   	push   %ebx
 10007c3:	83 c4 80             	add    $0xffffff80,%esp
 10007c6:	8b 7d 08             	mov    0x8(%ebp),%edi
 10007c9:	8d 45 f3             	lea    -0xd(%ebp),%eax
 10007cc:	89 45 84             	mov    %eax,-0x7c(%ebp)
 10007cf:	e9 90 0d 00 00       	jmp    1001564 <_doprnt+0xda7>
 10007d4:	3c 25                	cmp    $0x25,%al
 10007d6:	74 18                	je     10007f0 <_doprnt+0x33>
 10007d8:	83 c7 01             	add    $0x1,%edi
 10007db:	0f be c0             	movsbl %al,%eax
 10007de:	89 44 24 04          	mov    %eax,0x4(%esp)
 10007e2:	8b 55 18             	mov    0x18(%ebp),%edx
 10007e5:	89 14 24             	mov    %edx,(%esp)
 10007e8:	ff 55 14             	call   *0x14(%ebp)
 10007eb:	e9 74 0d 00 00       	jmp    1001564 <_doprnt+0xda7>
 10007f0:	8d 57 02             	lea    0x2(%edi),%edx
 10007f3:	c7 45 cc 00 00 00 00 	movl   $0x0,-0x34(%ebp)
 10007fa:	b8 00 00 00 00       	mov    $0x0,%eax
 10007ff:	c7 45 bc 00 00 00 00 	movl   $0x0,-0x44(%ebp)
 1000806:	bb 20 00 00 00       	mov    $0x20,%ebx
 100080b:	be 2b 00 00 00       	mov    $0x2b,%esi
 1000810:	eb 0a                	jmp    100081c <_doprnt+0x5f>
 1000812:	c7 45 bc 01 00 00 00 	movl   $0x1,-0x44(%ebp)
 1000819:	83 c2 01             	add    $0x1,%edx
 100081c:	8d 7a ff             	lea    -0x1(%edx),%edi
 100081f:	0f b6 4a ff          	movzbl -0x1(%edx),%ecx
 1000823:	80 f9 23             	cmp    $0x23,%cl
 1000826:	75 09                	jne    1000831 <_doprnt+0x74>
 1000828:	c7 45 cc 01 00 00 00 	movl   $0x1,-0x34(%ebp)
 100082f:	eb e8                	jmp    1000819 <_doprnt+0x5c>
 1000831:	80 f9 2d             	cmp    $0x2d,%cl
 1000834:	74 dc                	je     1000812 <_doprnt+0x55>
 1000836:	80 f9 2b             	cmp    $0x2b,%cl
 1000839:	75 07                	jne    1000842 <_doprnt+0x85>
 100083b:	89 f0                	mov    %esi,%eax
 100083d:	8d 76 00             	lea    0x0(%esi),%esi
 1000840:	eb d7                	jmp    1000819 <_doprnt+0x5c>
 1000842:	80 f9 20             	cmp    $0x20,%cl
 1000845:	75 07                	jne    100084e <_doprnt+0x91>
 1000847:	85 c0                	test   %eax,%eax
 1000849:	0f 44 c3             	cmove  %ebx,%eax
 100084c:	eb cb                	jmp    1000819 <_doprnt+0x5c>
 100084e:	8b 75 bc             	mov    -0x44(%ebp),%esi
 1000851:	c6 45 ac 20          	movb   $0x20,-0x54(%ebp)
 1000855:	80 f9 30             	cmp    $0x30,%cl
 1000858:	75 07                	jne    1000861 <_doprnt+0xa4>
 100085a:	8d 7f 01             	lea    0x1(%edi),%edi
 100085d:	c6 45 ac 30          	movb   $0x30,-0x54(%ebp)
 1000861:	0f b6 17             	movzbl (%edi),%edx
 1000864:	8d 4a d0             	lea    -0x30(%edx),%ecx
 1000867:	80 f9 09             	cmp    $0x9,%cl
 100086a:	77 2c                	ja     1000898 <_doprnt+0xdb>
 100086c:	c7 45 b0 00 00 00 00 	movl   $0x0,-0x50(%ebp)
 1000873:	b9 00 00 00 00       	mov    $0x0,%ecx
 1000878:	8d 0c 89             	lea    (%ecx,%ecx,4),%ecx
 100087b:	0f be d2             	movsbl %dl,%edx
 100087e:	8d 4c 4a d0          	lea    -0x30(%edx,%ecx,2),%ecx
 1000882:	83 c7 01             	add    $0x1,%edi
 1000885:	0f b6 17             	movzbl (%edi),%edx
 1000888:	8d 5a d0             	lea    -0x30(%edx),%ebx
 100088b:	80 fb 09             	cmp    $0x9,%bl
 100088e:	76 e8                	jbe    1000878 <_doprnt+0xbb>
 1000890:	89 4d b0             	mov    %ecx,-0x50(%ebp)
 1000893:	8b 5d 0c             	mov    0xc(%ebp),%ebx
 1000896:	eb 31                	jmp    10008c9 <_doprnt+0x10c>
 1000898:	8b 5d 0c             	mov    0xc(%ebp),%ebx
 100089b:	c7 45 b0 00 00 00 00 	movl   $0x0,-0x50(%ebp)
 10008a2:	80 fa 2a             	cmp    $0x2a,%dl
 10008a5:	75 22                	jne    10008c9 <_doprnt+0x10c>
 10008a7:	83 c3 04             	add    $0x4,%ebx
 10008aa:	8b 4d 0c             	mov    0xc(%ebp),%ecx
 10008ad:	8b 09                	mov    (%ecx),%ecx
 10008af:	89 4d b0             	mov    %ecx,-0x50(%ebp)
 10008b2:	83 c7 01             	add    $0x1,%edi
 10008b5:	85 c9                	test   %ecx,%ecx
 10008b7:	79 10                	jns    10008c9 <_doprnt+0x10c>
 10008b9:	85 f6                	test   %esi,%esi
 10008bb:	0f 94 c2             	sete   %dl
 10008be:	0f b6 d2             	movzbl %dl,%edx
 10008c1:	89 55 bc             	mov    %edx,-0x44(%ebp)
 10008c4:	f7 d9                	neg    %ecx
 10008c6:	89 4d b0             	mov    %ecx,-0x50(%ebp)
 10008c9:	80 3f 2e             	cmpb   $0x2e,(%edi)
 10008cc:	75 42                	jne    1000910 <_doprnt+0x153>
 10008ce:	83 c7 01             	add    $0x1,%edi
 10008d1:	0f b6 17             	movzbl (%edi),%edx
 10008d4:	8d 4a d0             	lea    -0x30(%edx),%ecx
 10008d7:	80 f9 09             	cmp    $0x9,%cl
 10008da:	77 22                	ja     10008fe <_doprnt+0x141>
 10008dc:	be 00 00 00 00       	mov    $0x0,%esi
 10008e1:	8d 0c b6             	lea    (%esi,%esi,4),%ecx
 10008e4:	0f be d2             	movsbl %dl,%edx
 10008e7:	8d 74 4a d0          	lea    -0x30(%edx,%ecx,2),%esi
 10008eb:	83 c7 01             	add    $0x1,%edi
 10008ee:	0f b6 17             	movzbl (%edi),%edx
 10008f1:	8d 4a d0             	lea    -0x30(%edx),%ecx
 10008f4:	80 f9 09             	cmp    $0x9,%cl
 10008f7:	76 e8                	jbe    10008e1 <_doprnt+0x124>
 10008f9:	89 5d c4             	mov    %ebx,-0x3c(%ebp)
 10008fc:	eb 1a                	jmp    1000918 <_doprnt+0x15b>
 10008fe:	80 fa 2a             	cmp    $0x2a,%dl
 1000901:	75 0d                	jne    1000910 <_doprnt+0x153>
 1000903:	8d 73 04             	lea    0x4(%ebx),%esi
 1000906:	89 75 c4             	mov    %esi,-0x3c(%ebp)
 1000909:	8b 33                	mov    (%ebx),%esi
 100090b:	83 c7 01             	add    $0x1,%edi
 100090e:	eb 08                	jmp    1000918 <_doprnt+0x15b>
 1000910:	89 5d c4             	mov    %ebx,-0x3c(%ebp)
 1000913:	be ff ff ff ff       	mov    $0xffffffff,%esi
 1000918:	0f b6 17             	movzbl (%edi),%edx
 100091b:	bb 00 00 00 00       	mov    $0x0,%ebx
 1000920:	80 fa 6c             	cmp    $0x6c,%dl
 1000923:	75 0e                	jne    1000933 <_doprnt+0x176>
 1000925:	83 c3 01             	add    $0x1,%ebx
 1000928:	83 c7 01             	add    $0x1,%edi
 100092b:	0f b6 17             	movzbl (%edi),%edx
 100092e:	80 fa 6c             	cmp    $0x6c,%dl
 1000931:	74 f2                	je     1000925 <_doprnt+0x168>
 1000933:	80 fa 7a             	cmp    $0x7a,%dl
 1000936:	0f 87 0f 0c 00 00    	ja     100154b <_doprnt+0xd8e>
 100093c:	0f b6 ca             	movzbl %dl,%ecx
 100093f:	ff 24 8d 14 26 00 01 	jmp    *0x1002614(,%ecx,4)
 1000946:	8b 4d 10             	mov    0x10(%ebp),%ecx
 1000949:	c7 45 b4 00 00 00 00 	movl   $0x0,-0x4c(%ebp)
 1000950:	e9 d6 09 00 00       	jmp    100132b <_doprnt+0xb6e>
 1000955:	8b 4d 10             	mov    0x10(%ebp),%ecx
 1000958:	c7 45 b4 00 00 00 00 	movl   $0x0,-0x4c(%ebp)
 100095f:	e9 65 09 00 00       	jmp    10012c9 <_doprnt+0xb0c>
 1000964:	b9 08 00 00 00       	mov    $0x8,%ecx
 1000969:	c7 45 b4 00 00 00 00 	movl   $0x0,-0x4c(%ebp)
 1000970:	e9 b6 09 00 00       	jmp    100132b <_doprnt+0xb6e>
 1000975:	b9 0a 00 00 00       	mov    $0xa,%ecx
 100097a:	c7 45 b4 00 00 00 00 	movl   $0x0,-0x4c(%ebp)
 1000981:	e9 43 09 00 00       	jmp    10012c9 <_doprnt+0xb0c>
 1000986:	b9 0a 00 00 00       	mov    $0xa,%ecx
 100098b:	c7 45 b4 00 00 00 00 	movl   $0x0,-0x4c(%ebp)
 1000992:	e9 94 09 00 00       	jmp    100132b <_doprnt+0xb6e>
 1000997:	8b 45 c4             	mov    -0x3c(%ebp),%eax
 100099a:	8b 18                	mov    (%eax),%ebx
 100099c:	be 00 00 00 00       	mov    $0x0,%esi
 10009a1:	83 c0 08             	add    $0x8,%eax
 10009a4:	89 45 0c             	mov    %eax,0xc(%ebp)
 10009a7:	8b 55 c4             	mov    -0x3c(%ebp),%edx
 10009aa:	8b 52 04             	mov    0x4(%edx),%edx
 10009ad:	89 55 cc             	mov    %edx,-0x34(%ebp)
 10009b0:	0f be 0a             	movsbl (%edx),%ecx
 10009b3:	89 4d b0             	mov    %ecx,-0x50(%ebp)
 10009b6:	8b 45 18             	mov    0x18(%ebp),%eax
 10009b9:	89 44 24 04          	mov    %eax,0x4(%esp)
 10009bd:	8b 55 14             	mov    0x14(%ebp),%edx
 10009c0:	89 14 24             	mov    %edx,(%esp)
 10009c3:	89 d8                	mov    %ebx,%eax
 10009c5:	89 f2                	mov    %esi,%edx
 10009c7:	e8 44 fd ff ff       	call   1000710 <printnum>
 10009cc:	89 f1                	mov    %esi,%ecx
 10009ce:	09 d9                	or     %ebx,%ecx
 10009d0:	0f 84 8b 0b 00 00    	je     1001561 <_doprnt+0xda4>
 10009d6:	8b 45 cc             	mov    -0x34(%ebp),%eax
 10009d9:	83 c0 01             	add    $0x1,%eax
 10009dc:	c7 45 b4 00 00 00 00 	movl   $0x0,-0x4c(%ebp)
 10009e3:	89 5d bc             	mov    %ebx,-0x44(%ebp)
 10009e6:	89 75 c0             	mov    %esi,-0x40(%ebp)
 10009e9:	89 7d ac             	mov    %edi,-0x54(%ebp)
 10009ec:	89 c3                	mov    %eax,%ebx
 10009ee:	8b 7d 14             	mov    0x14(%ebp),%edi
 10009f1:	8b 75 18             	mov    0x18(%ebp),%esi
 10009f4:	e9 1c 01 00 00       	jmp    1000b15 <_doprnt+0x358>
 10009f9:	83 c3 01             	add    $0x1,%ebx
 10009fc:	80 3b 20             	cmpb   $0x20,(%ebx)
 10009ff:	0f 8f 9e 00 00 00    	jg     1000aa3 <_doprnt+0x2e6>
 1000a05:	83 7d b4 00          	cmpl   $0x0,-0x4c(%ebp)
 1000a09:	74 0f                	je     1000a1a <_doprnt+0x25d>
 1000a0b:	c7 44 24 04 2c 00 00 	movl   $0x2c,0x4(%esp)
 1000a12:	00 
 1000a13:	89 34 24             	mov    %esi,(%esp)
 1000a16:	ff d7                	call   *%edi
 1000a18:	eb 14                	jmp    1000a2e <_doprnt+0x271>
 1000a1a:	c7 44 24 04 3c 00 00 	movl   $0x3c,0x4(%esp)
 1000a21:	00 
 1000a22:	89 34 24             	mov    %esi,(%esp)
 1000a25:	ff d7                	call   *%edi
 1000a27:	c7 45 b4 01 00 00 00 	movl   $0x1,-0x4c(%ebp)
 1000a2e:	0f be 13             	movsbl (%ebx),%edx
 1000a31:	89 55 c4             	mov    %edx,-0x3c(%ebp)
 1000a34:	83 c3 01             	add    $0x1,%ebx
 1000a37:	0f b6 03             	movzbl (%ebx),%eax
 1000a3a:	3c 20                	cmp    $0x20,%al
 1000a3c:	7e 16                	jle    1000a54 <_doprnt+0x297>
 1000a3e:	0f be c0             	movsbl %al,%eax
 1000a41:	89 44 24 04          	mov    %eax,0x4(%esp)
 1000a45:	89 34 24             	mov    %esi,(%esp)
 1000a48:	ff d7                	call   *%edi
 1000a4a:	83 c3 01             	add    $0x1,%ebx
 1000a4d:	0f b6 03             	movzbl (%ebx),%eax
 1000a50:	3c 20                	cmp    $0x20,%al
 1000a52:	7f ea                	jg     1000a3e <_doprnt+0x281>
 1000a54:	8b 4d cc             	mov    -0x34(%ebp),%ecx
 1000a57:	2b 4d c4             	sub    -0x3c(%ebp),%ecx
 1000a5a:	b8 02 00 00 00       	mov    $0x2,%eax
 1000a5f:	d3 e0                	shl    %cl,%eax
 1000a61:	83 e8 01             	sub    $0x1,%eax
 1000a64:	89 45 cc             	mov    %eax,-0x34(%ebp)
 1000a67:	8b 4d c4             	mov    -0x3c(%ebp),%ecx
 1000a6a:	83 e9 01             	sub    $0x1,%ecx
 1000a6d:	89 4d c4             	mov    %ecx,-0x3c(%ebp)
 1000a70:	8b 45 bc             	mov    -0x44(%ebp),%eax
 1000a73:	8b 55 c0             	mov    -0x40(%ebp),%edx
 1000a76:	0f b6 4d c4          	movzbl -0x3c(%ebp),%ecx
 1000a7a:	0f ad d0             	shrd   %cl,%edx,%eax
 1000a7d:	d3 ea                	shr    %cl,%edx
 1000a7f:	f6 c1 20             	test   $0x20,%cl
 1000a82:	74 04                	je     1000a88 <_doprnt+0x2cb>
 1000a84:	89 d0                	mov    %edx,%eax
 1000a86:	31 d2                	xor    %edx,%edx
 1000a88:	89 45 c4             	mov    %eax,-0x3c(%ebp)
 1000a8b:	89 55 c8             	mov    %edx,-0x38(%ebp)
 1000a8e:	8b 45 c4             	mov    -0x3c(%ebp),%eax
 1000a91:	23 45 cc             	and    -0x34(%ebp),%eax
 1000a94:	89 34 24             	mov    %esi,(%esp)
 1000a97:	89 f9                	mov    %edi,%ecx
 1000a99:	8b 55 b0             	mov    -0x50(%ebp),%edx
 1000a9c:	e8 6f fc ff ff       	call   1000710 <printnum>
 1000aa1:	eb 72                	jmp    1000b15 <_doprnt+0x358>
 1000aa3:	8b 4d cc             	mov    -0x34(%ebp),%ecx
 1000aa6:	83 e9 01             	sub    $0x1,%ecx
 1000aa9:	b8 01 00 00 00       	mov    $0x1,%eax
 1000aae:	d3 e0                	shl    %cl,%eax
 1000ab0:	89 c2                	mov    %eax,%edx
 1000ab2:	c1 fa 1f             	sar    $0x1f,%edx
 1000ab5:	8b 4d bc             	mov    -0x44(%ebp),%ecx
 1000ab8:	21 c1                	and    %eax,%ecx
 1000aba:	8b 45 c0             	mov    -0x40(%ebp),%eax
 1000abd:	21 d0                	and    %edx,%eax
 1000abf:	09 c8                	or     %ecx,%eax
 1000ac1:	74 4a                	je     1000b0d <_doprnt+0x350>
 1000ac3:	83 7d b4 00          	cmpl   $0x0,-0x4c(%ebp)
 1000ac7:	74 16                	je     1000adf <_doprnt+0x322>
 1000ac9:	c7 44 24 04 2c 00 00 	movl   $0x2c,0x4(%esp)
 1000ad0:	00 
 1000ad1:	89 34 24             	mov    %esi,(%esp)
 1000ad4:	ff d7                	call   *%edi
 1000ad6:	0f b6 03             	movzbl (%ebx),%eax
 1000ad9:	3c 20                	cmp    $0x20,%al
 1000adb:	7f 18                	jg     1000af5 <_doprnt+0x338>
 1000add:	eb 36                	jmp    1000b15 <_doprnt+0x358>
 1000adf:	c7 44 24 04 3c 00 00 	movl   $0x3c,0x4(%esp)
 1000ae6:	00 
 1000ae7:	89 34 24             	mov    %esi,(%esp)
 1000aea:	ff d7                	call   *%edi
 1000aec:	c7 45 b4 01 00 00 00 	movl   $0x1,-0x4c(%ebp)
 1000af3:	eb e1                	jmp    1000ad6 <_doprnt+0x319>
 1000af5:	0f be c0             	movsbl %al,%eax
 1000af8:	89 44 24 04          	mov    %eax,0x4(%esp)
 1000afc:	89 34 24             	mov    %esi,(%esp)
 1000aff:	ff d7                	call   *%edi
 1000b01:	83 c3 01             	add    $0x1,%ebx
 1000b04:	0f b6 03             	movzbl (%ebx),%eax
 1000b07:	3c 20                	cmp    $0x20,%al
 1000b09:	7f ea                	jg     1000af5 <_doprnt+0x338>
 1000b0b:	eb 08                	jmp    1000b15 <_doprnt+0x358>
 1000b0d:	83 c3 01             	add    $0x1,%ebx
 1000b10:	80 3b 20             	cmpb   $0x20,(%ebx)
 1000b13:	7f f8                	jg     1000b0d <_doprnt+0x350>
 1000b15:	0f be 13             	movsbl (%ebx),%edx
 1000b18:	89 55 cc             	mov    %edx,-0x34(%ebp)
 1000b1b:	85 d2                	test   %edx,%edx
 1000b1d:	0f 85 d6 fe ff ff    	jne    10009f9 <_doprnt+0x23c>
 1000b23:	8b 7d ac             	mov    -0x54(%ebp),%edi
 1000b26:	83 7d b4 00          	cmpl   $0x0,-0x4c(%ebp)
 1000b2a:	0f 84 31 0a 00 00    	je     1001561 <_doprnt+0xda4>
 1000b30:	c7 44 24 04 3e 00 00 	movl   $0x3e,0x4(%esp)
 1000b37:	00 
 1000b38:	8b 4d 18             	mov    0x18(%ebp),%ecx
 1000b3b:	89 0c 24             	mov    %ecx,(%esp)
 1000b3e:	ff 55 14             	call   *0x14(%ebp)
 1000b41:	e9 1b 0a 00 00       	jmp    1001561 <_doprnt+0xda4>
 1000b46:	8b 5d c4             	mov    -0x3c(%ebp),%ebx
 1000b49:	83 c3 04             	add    $0x4,%ebx
 1000b4c:	89 5d 0c             	mov    %ebx,0xc(%ebp)
 1000b4f:	8b 75 c4             	mov    -0x3c(%ebp),%esi
 1000b52:	0f be 06             	movsbl (%esi),%eax
 1000b55:	89 44 24 04          	mov    %eax,0x4(%esp)
 1000b59:	8b 45 18             	mov    0x18(%ebp),%eax
 1000b5c:	89 04 24             	mov    %eax,(%esp)
 1000b5f:	ff 55 14             	call   *0x14(%ebp)
 1000b62:	e9 fa 09 00 00       	jmp    1001561 <_doprnt+0xda4>
 1000b67:	8b 55 c4             	mov    -0x3c(%ebp),%edx
 1000b6a:	83 c2 08             	add    $0x8,%edx
 1000b6d:	89 55 0c             	mov    %edx,0xc(%ebp)
 1000b70:	8b 4d c4             	mov    -0x3c(%ebp),%ecx
 1000b73:	8b 09                	mov    (%ecx),%ecx
 1000b75:	89 4d a0             	mov    %ecx,-0x60(%ebp)
 1000b78:	8b 75 c4             	mov    -0x3c(%ebp),%esi
 1000b7b:	8b 76 04             	mov    0x4(%esi),%esi
 1000b7e:	89 75 a4             	mov    %esi,-0x5c(%ebp)
 1000b81:	85 db                	test   %ebx,%ebx
 1000b83:	0f 84 a3 01 00 00    	je     1000d2c <_doprnt+0x56f>
 1000b89:	bb 13 00 00 00       	mov    $0x13,%ebx
 1000b8e:	be 00 00 00 00       	mov    $0x0,%esi
 1000b93:	83 7d cc 00          	cmpl   $0x0,-0x34(%ebp)
 1000b97:	75 0a                	jne    1000ba3 <_doprnt+0x3e6>
 1000b99:	bb 11 00 00 00       	mov    $0x11,%ebx
 1000b9e:	be 00 00 00 00       	mov    $0x0,%esi
 1000ba3:	83 7d b0 00          	cmpl   $0x0,-0x50(%ebp)
 1000ba7:	0f 9f 45 ac          	setg   -0x54(%ebp)
 1000bab:	0f 8e 94 00 00 00    	jle    1000c45 <_doprnt+0x488>
 1000bb1:	83 7d bc 00          	cmpl   $0x0,-0x44(%ebp)
 1000bb5:	0f 85 8a 00 00 00    	jne    1000c45 <_doprnt+0x488>
 1000bbb:	8b 45 b0             	mov    -0x50(%ebp),%eax
 1000bbe:	89 c2                	mov    %eax,%edx
 1000bc0:	c1 fa 1f             	sar    $0x1f,%edx
 1000bc3:	89 45 b4             	mov    %eax,-0x4c(%ebp)
 1000bc6:	89 55 b8             	mov    %edx,-0x48(%ebp)
 1000bc9:	39 d6                	cmp    %edx,%esi
 1000bcb:	7f 78                	jg     1000c45 <_doprnt+0x488>
 1000bcd:	3b 75 b8             	cmp    -0x48(%ebp),%esi
 1000bd0:	7c 04                	jl     1000bd6 <_doprnt+0x419>
 1000bd2:	39 c3                	cmp    %eax,%ebx
 1000bd4:	73 6f                	jae    1000c45 <_doprnt+0x488>
 1000bd6:	89 5d c4             	mov    %ebx,-0x3c(%ebp)
 1000bd9:	89 75 c8             	mov    %esi,-0x38(%ebp)
 1000bdc:	c7 44 24 04 20 00 00 	movl   $0x20,0x4(%esp)
 1000be3:	00 
 1000be4:	8b 55 18             	mov    0x18(%ebp),%edx
 1000be7:	89 14 24             	mov    %edx,(%esp)
 1000bea:	ff 55 14             	call   *0x14(%ebp)
 1000bed:	83 45 c4 01          	addl   $0x1,-0x3c(%ebp)
 1000bf1:	83 55 c8 00          	adcl   $0x0,-0x38(%ebp)
 1000bf5:	8b 4d b8             	mov    -0x48(%ebp),%ecx
 1000bf8:	39 4d c8             	cmp    %ecx,-0x38(%ebp)
 1000bfb:	7c df                	jl     1000bdc <_doprnt+0x41f>
 1000bfd:	7f 08                	jg     1000c07 <_doprnt+0x44a>
 1000bff:	8b 55 b4             	mov    -0x4c(%ebp),%edx
 1000c02:	39 55 c4             	cmp    %edx,-0x3c(%ebp)
 1000c05:	72 d5                	jb     1000bdc <_doprnt+0x41f>
 1000c07:	89 d8                	mov    %ebx,%eax
 1000c09:	89 f2                	mov    %esi,%edx
 1000c0b:	83 c0 01             	add    $0x1,%eax
 1000c0e:	83 d2 00             	adc    $0x0,%edx
 1000c11:	89 45 c4             	mov    %eax,-0x3c(%ebp)
 1000c14:	89 55 c8             	mov    %edx,-0x38(%ebp)
 1000c17:	89 da                	mov    %ebx,%edx
 1000c19:	f7 d2                	not    %edx
 1000c1b:	89 55 88             	mov    %edx,-0x78(%ebp)
 1000c1e:	89 f1                	mov    %esi,%ecx
 1000c20:	f7 d1                	not    %ecx
 1000c22:	89 4d 8c             	mov    %ecx,-0x74(%ebp)
 1000c25:	8b 45 b0             	mov    -0x50(%ebp),%eax
 1000c28:	89 c2                	mov    %eax,%edx
 1000c2a:	c1 fa 1f             	sar    $0x1f,%edx
 1000c2d:	89 c1                	mov    %eax,%ecx
 1000c2f:	89 d3                	mov    %edx,%ebx
 1000c31:	8b 45 88             	mov    -0x78(%ebp),%eax
 1000c34:	8b 55 8c             	mov    -0x74(%ebp),%edx
 1000c37:	01 c8                	add    %ecx,%eax
 1000c39:	11 da                	adc    %ebx,%edx
 1000c3b:	8b 5d c4             	mov    -0x3c(%ebp),%ebx
 1000c3e:	8b 75 c8             	mov    -0x38(%ebp),%esi
 1000c41:	01 c3                	add    %eax,%ebx
 1000c43:	11 d6                	adc    %edx,%esi
 1000c45:	83 7d cc 00          	cmpl   $0x0,-0x34(%ebp)
 1000c49:	74 51                	je     1000c9c <_doprnt+0x4df>
 1000c4b:	c7 44 24 04 5b 00 00 	movl   $0x5b,0x4(%esp)
 1000c52:	00 
 1000c53:	8b 55 18             	mov    0x18(%ebp),%edx
 1000c56:	89 14 24             	mov    %edx,(%esp)
 1000c59:	ff 55 14             	call   *0x14(%ebp)
 1000c5c:	8b 4d 18             	mov    0x18(%ebp),%ecx
 1000c5f:	8b 55 14             	mov    0x14(%ebp),%edx
 1000c62:	8b 45 a0             	mov    -0x60(%ebp),%eax
 1000c65:	e8 fb fa ff ff       	call   1000765 <printnum_16>
 1000c6a:	c7 44 24 04 3a 00 00 	movl   $0x3a,0x4(%esp)
 1000c71:	00 
 1000c72:	8b 4d 18             	mov    0x18(%ebp),%ecx
 1000c75:	89 0c 24             	mov    %ecx,(%esp)
 1000c78:	ff 55 14             	call   *0x14(%ebp)
 1000c7b:	8b 4d 18             	mov    0x18(%ebp),%ecx
 1000c7e:	8b 55 14             	mov    0x14(%ebp),%edx
 1000c81:	8b 45 a4             	mov    -0x5c(%ebp),%eax
 1000c84:	e8 dc fa ff ff       	call   1000765 <printnum_16>
 1000c89:	c7 44 24 04 5d 00 00 	movl   $0x5d,0x4(%esp)
 1000c90:	00 
 1000c91:	8b 45 18             	mov    0x18(%ebp),%eax
 1000c94:	89 04 24             	mov    %eax,(%esp)
 1000c97:	ff 55 14             	call   *0x14(%ebp)
 1000c9a:	eb 2d                	jmp    1000cc9 <_doprnt+0x50c>
 1000c9c:	8b 4d 18             	mov    0x18(%ebp),%ecx
 1000c9f:	8b 55 14             	mov    0x14(%ebp),%edx
 1000ca2:	8b 45 a0             	mov    -0x60(%ebp),%eax
 1000ca5:	e8 bb fa ff ff       	call   1000765 <printnum_16>
 1000caa:	c7 44 24 04 3a 00 00 	movl   $0x3a,0x4(%esp)
 1000cb1:	00 
 1000cb2:	8b 55 18             	mov    0x18(%ebp),%edx
 1000cb5:	89 14 24             	mov    %edx,(%esp)
 1000cb8:	ff 55 14             	call   *0x14(%ebp)
 1000cbb:	8b 4d 18             	mov    0x18(%ebp),%ecx
 1000cbe:	8b 55 14             	mov    0x14(%ebp),%edx
 1000cc1:	8b 45 a4             	mov    -0x5c(%ebp),%eax
 1000cc4:	e8 9c fa ff ff       	call   1000765 <printnum_16>
 1000cc9:	80 7d ac 00          	cmpb   $0x0,-0x54(%ebp)
 1000ccd:	0f 84 8e 08 00 00    	je     1001561 <_doprnt+0xda4>
 1000cd3:	83 7d bc 00          	cmpl   $0x0,-0x44(%ebp)
 1000cd7:	0f 84 84 08 00 00    	je     1001561 <_doprnt+0xda4>
 1000cdd:	8b 45 b0             	mov    -0x50(%ebp),%eax
 1000ce0:	89 c2                	mov    %eax,%edx
 1000ce2:	c1 fa 1f             	sar    $0x1f,%edx
 1000ce5:	89 45 cc             	mov    %eax,-0x34(%ebp)
 1000ce8:	89 55 d0             	mov    %edx,-0x30(%ebp)
 1000ceb:	39 d6                	cmp    %edx,%esi
 1000ced:	0f 8f 6e 08 00 00    	jg     1001561 <_doprnt+0xda4>
 1000cf3:	3b 75 d0             	cmp    -0x30(%ebp),%esi
 1000cf6:	7c 08                	jl     1000d00 <_doprnt+0x543>
 1000cf8:	39 c3                	cmp    %eax,%ebx
 1000cfa:	0f 83 61 08 00 00    	jae    1001561 <_doprnt+0xda4>
 1000d00:	c7 44 24 04 20 00 00 	movl   $0x20,0x4(%esp)
 1000d07:	00 
 1000d08:	8b 55 18             	mov    0x18(%ebp),%edx
 1000d0b:	89 14 24             	mov    %edx,(%esp)
 1000d0e:	ff 55 14             	call   *0x14(%ebp)
 1000d11:	83 c3 01             	add    $0x1,%ebx
 1000d14:	83 d6 00             	adc    $0x0,%esi
 1000d17:	3b 75 d0             	cmp    -0x30(%ebp),%esi
 1000d1a:	7c e4                	jl     1000d00 <_doprnt+0x543>
 1000d1c:	0f 8f 3f 08 00 00    	jg     1001561 <_doprnt+0xda4>
 1000d22:	3b 5d cc             	cmp    -0x34(%ebp),%ebx
 1000d25:	72 d9                	jb     1000d00 <_doprnt+0x543>
 1000d27:	e9 35 08 00 00       	jmp    1001561 <_doprnt+0xda4>
 1000d2c:	bb 04 00 00 00       	mov    $0x4,%ebx
 1000d31:	be 00 00 00 00       	mov    $0x0,%esi
 1000d36:	83 7d cc 00          	cmpl   $0x0,-0x34(%ebp)
 1000d3a:	75 0a                	jne    1000d46 <_doprnt+0x589>
 1000d3c:	bb 02 00 00 00       	mov    $0x2,%ebx
 1000d41:	be 00 00 00 00       	mov    $0x0,%esi
 1000d46:	8b 45 a0             	mov    -0x60(%ebp),%eax
 1000d49:	c1 e8 0a             	shr    $0xa,%eax
 1000d4c:	83 e0 7f             	and    $0x7f,%eax
 1000d4f:	89 45 90             	mov    %eax,-0x70(%ebp)
 1000d52:	83 f8 0f             	cmp    $0xf,%eax
 1000d55:	0f 9f c0             	setg   %al
 1000d58:	0f b6 c0             	movzbl %al,%eax
 1000d5b:	89 45 a4             	mov    %eax,-0x5c(%ebp)
 1000d5e:	c7 45 a8 00 00 00 00 	movl   $0x0,-0x58(%ebp)
 1000d65:	8b 45 a4             	mov    -0x5c(%ebp),%eax
 1000d68:	8b 55 a8             	mov    -0x58(%ebp),%edx
 1000d6b:	83 c0 01             	add    $0x1,%eax
 1000d6e:	83 d2 00             	adc    $0x0,%edx
 1000d71:	89 45 94             	mov    %eax,-0x6c(%ebp)
 1000d74:	89 55 98             	mov    %edx,-0x68(%ebp)
 1000d77:	8b 45 a0             	mov    -0x60(%ebp),%eax
 1000d7a:	c1 e8 11             	shr    $0x11,%eax
 1000d7d:	25 ff 07 00 00       	and    $0x7ff,%eax
 1000d82:	89 45 a0             	mov    %eax,-0x60(%ebp)
 1000d85:	3d ff 00 00 00       	cmp    $0xff,%eax
 1000d8a:	0f 9f c0             	setg   %al
 1000d8d:	0f b6 c0             	movzbl %al,%eax
 1000d90:	89 45 b4             	mov    %eax,-0x4c(%ebp)
 1000d93:	c7 45 b8 00 00 00 00 	movl   $0x0,-0x48(%ebp)
 1000d9a:	83 7d a0 0f          	cmpl   $0xf,-0x60(%ebp)
 1000d9e:	0f 9f c0             	setg   %al
 1000da1:	0f b6 c0             	movzbl %al,%eax
 1000da4:	89 45 c4             	mov    %eax,-0x3c(%ebp)
 1000da7:	c7 45 c8 00 00 00 00 	movl   $0x0,-0x38(%ebp)
 1000dae:	8b 55 c4             	mov    -0x3c(%ebp),%edx
 1000db1:	8b 4d c8             	mov    -0x38(%ebp),%ecx
 1000db4:	03 55 b4             	add    -0x4c(%ebp),%edx
 1000db7:	13 4d b8             	adc    -0x48(%ebp),%ecx
 1000dba:	01 da                	add    %ebx,%edx
 1000dbc:	11 f1                	adc    %esi,%ecx
 1000dbe:	89 55 c4             	mov    %edx,-0x3c(%ebp)
 1000dc1:	89 4d c8             	mov    %ecx,-0x38(%ebp)
 1000dc4:	83 7d b0 00          	cmpl   $0x0,-0x50(%ebp)
 1000dc8:	0f 9f c0             	setg   %al
 1000dcb:	83 7d bc 00          	cmpl   $0x0,-0x44(%ebp)
 1000dcf:	0f 94 c2             	sete   %dl
 1000dd2:	20 d0                	and    %dl,%al
 1000dd4:	88 45 9f             	mov    %al,-0x61(%ebp)
 1000dd7:	74 73                	je     1000e4c <_doprnt+0x68f>
 1000dd9:	80 7d ac 20          	cmpb   $0x20,-0x54(%ebp)
 1000ddd:	75 6d                	jne    1000e4c <_doprnt+0x68f>
 1000ddf:	8b 45 b0             	mov    -0x50(%ebp),%eax
 1000de2:	89 c2                	mov    %eax,%edx
 1000de4:	c1 fa 1f             	sar    $0x1f,%edx
 1000de7:	89 45 b4             	mov    %eax,-0x4c(%ebp)
 1000dea:	89 55 b8             	mov    %edx,-0x48(%ebp)
 1000ded:	8b 45 c4             	mov    -0x3c(%ebp),%eax
 1000df0:	8b 55 c8             	mov    -0x38(%ebp),%edx
 1000df3:	83 c0 02             	add    $0x2,%eax
 1000df6:	83 d2 00             	adc    $0x0,%edx
 1000df9:	3b 55 b8             	cmp    -0x48(%ebp),%edx
 1000dfc:	7f 4e                	jg     1000e4c <_doprnt+0x68f>
 1000dfe:	7c 05                	jl     1000e05 <_doprnt+0x648>
 1000e00:	3b 45 b4             	cmp    -0x4c(%ebp),%eax
 1000e03:	73 47                	jae    1000e4c <_doprnt+0x68f>
 1000e05:	8b 5d c4             	mov    -0x3c(%ebp),%ebx
 1000e08:	8b 75 c8             	mov    -0x38(%ebp),%esi
 1000e0b:	c7 44 24 04 20 00 00 	movl   $0x20,0x4(%esp)
 1000e12:	00 
 1000e13:	8b 55 18             	mov    0x18(%ebp),%edx
 1000e16:	89 14 24             	mov    %edx,(%esp)
 1000e19:	ff 55 14             	call   *0x14(%ebp)
 1000e1c:	83 c3 01             	add    $0x1,%ebx
 1000e1f:	83 d6 00             	adc    $0x0,%esi
 1000e22:	89 d8                	mov    %ebx,%eax
 1000e24:	89 f2                	mov    %esi,%edx
 1000e26:	83 c0 02             	add    $0x2,%eax
 1000e29:	83 d2 00             	adc    $0x0,%edx
 1000e2c:	3b 55 b8             	cmp    -0x48(%ebp),%edx
 1000e2f:	7c da                	jl     1000e0b <_doprnt+0x64e>
 1000e31:	7f 05                	jg     1000e38 <_doprnt+0x67b>
 1000e33:	3b 45 b4             	cmp    -0x4c(%ebp),%eax
 1000e36:	72 d3                	jb     1000e0b <_doprnt+0x64e>
 1000e38:	8b 45 b0             	mov    -0x50(%ebp),%eax
 1000e3b:	89 c2                	mov    %eax,%edx
 1000e3d:	c1 fa 1f             	sar    $0x1f,%edx
 1000e40:	83 c0 fe             	add    $0xfffffffe,%eax
 1000e43:	83 d2 ff             	adc    $0xffffffff,%edx
 1000e46:	89 45 c4             	mov    %eax,-0x3c(%ebp)
 1000e49:	89 55 c8             	mov    %edx,-0x38(%ebp)
 1000e4c:	83 7d cc 00          	cmpl   $0x0,-0x34(%ebp)
 1000e50:	74 11                	je     1000e63 <_doprnt+0x6a6>
 1000e52:	c7 44 24 04 5b 00 00 	movl   $0x5b,0x4(%esp)
 1000e59:	00 
 1000e5a:	8b 55 18             	mov    0x18(%ebp),%edx
 1000e5d:	89 14 24             	mov    %edx,(%esp)
 1000e60:	ff 55 14             	call   *0x14(%ebp)
 1000e63:	80 7d 9f 00          	cmpb   $0x0,-0x61(%ebp)
 1000e67:	0f 84 44 07 00 00    	je     10015b1 <_doprnt+0xdf4>
 1000e6d:	80 7d ac 30          	cmpb   $0x30,-0x54(%ebp)
 1000e71:	75 62                	jne    1000ed5 <_doprnt+0x718>
 1000e73:	8b 45 b0             	mov    -0x50(%ebp),%eax
 1000e76:	89 c2                	mov    %eax,%edx
 1000e78:	c1 fa 1f             	sar    $0x1f,%edx
 1000e7b:	89 45 b4             	mov    %eax,-0x4c(%ebp)
 1000e7e:	89 55 b8             	mov    %edx,-0x48(%ebp)
 1000e81:	8b 45 c4             	mov    -0x3c(%ebp),%eax
 1000e84:	8b 55 c8             	mov    -0x38(%ebp),%edx
 1000e87:	83 c0 02             	add    $0x2,%eax
 1000e8a:	83 d2 00             	adc    $0x0,%edx
 1000e8d:	3b 55 b8             	cmp    -0x48(%ebp),%edx
 1000e90:	7f 43                	jg     1000ed5 <_doprnt+0x718>
 1000e92:	7c 05                	jl     1000e99 <_doprnt+0x6dc>
 1000e94:	3b 45 b4             	cmp    -0x4c(%ebp),%eax
 1000e97:	73 3c                	jae    1000ed5 <_doprnt+0x718>
 1000e99:	8b 5d c4             	mov    -0x3c(%ebp),%ebx
 1000e9c:	8b 75 c8             	mov    -0x38(%ebp),%esi
 1000e9f:	c7 44 24 04 30 00 00 	movl   $0x30,0x4(%esp)
 1000ea6:	00 
 1000ea7:	8b 55 18             	mov    0x18(%ebp),%edx
 1000eaa:	89 14 24             	mov    %edx,(%esp)
 1000ead:	ff 55 14             	call   *0x14(%ebp)
 1000eb0:	83 c3 01             	add    $0x1,%ebx
 1000eb3:	83 d6 00             	adc    $0x0,%esi
 1000eb6:	89 d8                	mov    %ebx,%eax
 1000eb8:	89 f2                	mov    %esi,%edx
 1000eba:	83 c0 02             	add    $0x2,%eax
 1000ebd:	83 d2 00             	adc    $0x0,%edx
 1000ec0:	3b 55 b8             	cmp    -0x48(%ebp),%edx
 1000ec3:	7c da                	jl     1000e9f <_doprnt+0x6e2>
 1000ec5:	0f 8f a6 06 00 00    	jg     1001571 <_doprnt+0xdb4>
 1000ecb:	3b 45 b4             	cmp    -0x4c(%ebp),%eax
 1000ece:	72 cf                	jb     1000e9f <_doprnt+0x6e2>
 1000ed0:	e9 9c 06 00 00       	jmp    1001571 <_doprnt+0xdb4>
 1000ed5:	8b 4d 18             	mov    0x18(%ebp),%ecx
 1000ed8:	89 0c 24             	mov    %ecx,(%esp)
 1000edb:	8b 4d 14             	mov    0x14(%ebp),%ecx
 1000ede:	ba 10 00 00 00       	mov    $0x10,%edx
 1000ee3:	8b 45 a0             	mov    -0x60(%ebp),%eax
 1000ee6:	e8 25 f8 ff ff       	call   1000710 <printnum>
 1000eeb:	c7 44 24 04 2e 00 00 	movl   $0x2e,0x4(%esp)
 1000ef2:	00 
 1000ef3:	8b 5d 18             	mov    0x18(%ebp),%ebx
 1000ef6:	89 1c 24             	mov    %ebx,(%esp)
 1000ef9:	ff 55 14             	call   *0x14(%ebp)
 1000efc:	80 7d 9f 00          	cmpb   $0x0,-0x61(%ebp)
 1000f00:	74 6b                	je     1000f6d <_doprnt+0x7b0>
 1000f02:	8b 45 b0             	mov    -0x50(%ebp),%eax
 1000f05:	89 c2                	mov    %eax,%edx
 1000f07:	c1 fa 1f             	sar    $0x1f,%edx
 1000f0a:	89 45 b4             	mov    %eax,-0x4c(%ebp)
 1000f0d:	89 55 b8             	mov    %edx,-0x48(%ebp)
 1000f10:	8b 45 c4             	mov    -0x3c(%ebp),%eax
 1000f13:	8b 55 c8             	mov    -0x38(%ebp),%edx
 1000f16:	03 45 94             	add    -0x6c(%ebp),%eax
 1000f19:	13 55 98             	adc    -0x68(%ebp),%edx
 1000f1c:	3b 55 b8             	cmp    -0x48(%ebp),%edx
 1000f1f:	7f 4c                	jg     1000f6d <_doprnt+0x7b0>
 1000f21:	7c 05                	jl     1000f28 <_doprnt+0x76b>
 1000f23:	3b 45 b4             	cmp    -0x4c(%ebp),%eax
 1000f26:	73 45                	jae    1000f6d <_doprnt+0x7b0>
 1000f28:	8b 5d c4             	mov    -0x3c(%ebp),%ebx
 1000f2b:	8b 75 c8             	mov    -0x38(%ebp),%esi
 1000f2e:	83 c3 01             	add    $0x1,%ebx
 1000f31:	83 d6 00             	adc    $0x0,%esi
 1000f34:	0f be 55 ac          	movsbl -0x54(%ebp),%edx
 1000f38:	89 55 ac             	mov    %edx,-0x54(%ebp)
 1000f3b:	8b 4d ac             	mov    -0x54(%ebp),%ecx
 1000f3e:	89 4c 24 04          	mov    %ecx,0x4(%esp)
 1000f42:	8b 45 18             	mov    0x18(%ebp),%eax
 1000f45:	89 04 24             	mov    %eax,(%esp)
 1000f48:	ff 55 14             	call   *0x14(%ebp)
 1000f4b:	89 5d c4             	mov    %ebx,-0x3c(%ebp)
 1000f4e:	89 75 c8             	mov    %esi,-0x38(%ebp)
 1000f51:	83 c3 01             	add    $0x1,%ebx
 1000f54:	83 d6 00             	adc    $0x0,%esi
 1000f57:	8b 45 a4             	mov    -0x5c(%ebp),%eax
 1000f5a:	8b 55 a8             	mov    -0x58(%ebp),%edx
 1000f5d:	01 d8                	add    %ebx,%eax
 1000f5f:	11 f2                	adc    %esi,%edx
 1000f61:	3b 55 b8             	cmp    -0x48(%ebp),%edx
 1000f64:	7c d5                	jl     1000f3b <_doprnt+0x77e>
 1000f66:	7f 05                	jg     1000f6d <_doprnt+0x7b0>
 1000f68:	3b 45 b4             	cmp    -0x4c(%ebp),%eax
 1000f6b:	72 ce                	jb     1000f3b <_doprnt+0x77e>
 1000f6d:	8b 55 18             	mov    0x18(%ebp),%edx
 1000f70:	89 14 24             	mov    %edx,(%esp)
 1000f73:	8b 4d 14             	mov    0x14(%ebp),%ecx
 1000f76:	ba 10 00 00 00       	mov    $0x10,%edx
 1000f7b:	8b 45 90             	mov    -0x70(%ebp),%eax
 1000f7e:	e8 8d f7 ff ff       	call   1000710 <printnum>
 1000f83:	83 7d cc 00          	cmpl   $0x0,-0x34(%ebp)
 1000f87:	74 11                	je     1000f9a <_doprnt+0x7dd>
 1000f89:	c7 44 24 04 5d 00 00 	movl   $0x5d,0x4(%esp)
 1000f90:	00 
 1000f91:	8b 4d 18             	mov    0x18(%ebp),%ecx
 1000f94:	89 0c 24             	mov    %ecx,(%esp)
 1000f97:	ff 55 14             	call   *0x14(%ebp)
 1000f9a:	8b 45 b0             	mov    -0x50(%ebp),%eax
 1000f9d:	89 c2                	mov    %eax,%edx
 1000f9f:	c1 fa 1f             	sar    $0x1f,%edx
 1000fa2:	89 45 cc             	mov    %eax,-0x34(%ebp)
 1000fa5:	89 55 d0             	mov    %edx,-0x30(%ebp)
 1000fa8:	8b 55 c4             	mov    -0x3c(%ebp),%edx
 1000fab:	8b 4d c8             	mov    -0x38(%ebp),%ecx
 1000fae:	03 55 94             	add    -0x6c(%ebp),%edx
 1000fb1:	13 4d 98             	adc    -0x68(%ebp),%ecx
 1000fb4:	b8 01 00 00 00       	mov    $0x1,%eax
 1000fb9:	3b 4d d0             	cmp    -0x30(%ebp),%ecx
 1000fbc:	7c 0c                	jl     1000fca <_doprnt+0x80d>
 1000fbe:	7f 05                	jg     1000fc5 <_doprnt+0x808>
 1000fc0:	3b 55 cc             	cmp    -0x34(%ebp),%edx
 1000fc3:	72 05                	jb     1000fca <_doprnt+0x80d>
 1000fc5:	b8 00 00 00 00       	mov    $0x0,%eax
 1000fca:	84 c0                	test   %al,%al
 1000fcc:	0f 84 8f 05 00 00    	je     1001561 <_doprnt+0xda4>
 1000fd2:	83 7d bc 00          	cmpl   $0x0,-0x44(%ebp)
 1000fd6:	0f 84 85 05 00 00    	je     1001561 <_doprnt+0xda4>
 1000fdc:	84 c0                	test   %al,%al
 1000fde:	0f 84 7d 05 00 00    	je     1001561 <_doprnt+0xda4>
 1000fe4:	8b 5d c4             	mov    -0x3c(%ebp),%ebx
 1000fe7:	8b 75 c8             	mov    -0x38(%ebp),%esi
 1000fea:	83 c3 01             	add    $0x1,%ebx
 1000fed:	83 d6 00             	adc    $0x0,%esi
 1000ff0:	c7 44 24 04 20 00 00 	movl   $0x20,0x4(%esp)
 1000ff7:	00 
 1000ff8:	8b 55 18             	mov    0x18(%ebp),%edx
 1000ffb:	89 14 24             	mov    %edx,(%esp)
 1000ffe:	ff 55 14             	call   *0x14(%ebp)
 1001001:	83 c3 01             	add    $0x1,%ebx
 1001004:	83 d6 00             	adc    $0x0,%esi
 1001007:	8b 45 a4             	mov    -0x5c(%ebp),%eax
 100100a:	8b 55 a8             	mov    -0x58(%ebp),%edx
 100100d:	01 d8                	add    %ebx,%eax
 100100f:	11 f2                	adc    %esi,%edx
 1001011:	39 55 d0             	cmp    %edx,-0x30(%ebp)
 1001014:	7f da                	jg     1000ff0 <_doprnt+0x833>
 1001016:	0f 8c 45 05 00 00    	jl     1001561 <_doprnt+0xda4>
 100101c:	39 45 cc             	cmp    %eax,-0x34(%ebp)
 100101f:	77 cf                	ja     1000ff0 <_doprnt+0x833>
 1001021:	e9 3b 05 00 00       	jmp    1001561 <_doprnt+0xda4>
 1001026:	83 fe ff             	cmp    $0xffffffff,%esi
 1001029:	b8 ff ff ff 7f       	mov    $0x7fffffff,%eax
 100102e:	0f 44 f0             	cmove  %eax,%esi
 1001031:	8b 4d c4             	mov    -0x3c(%ebp),%ecx
 1001034:	83 c1 04             	add    $0x4,%ecx
 1001037:	89 4d 0c             	mov    %ecx,0xc(%ebp)
 100103a:	8b 45 c4             	mov    -0x3c(%ebp),%eax
 100103d:	8b 18                	mov    (%eax),%ebx
 100103f:	85 db                	test   %ebx,%ebx
 1001041:	b8 ad 28 00 01       	mov    $0x10028ad,%eax
 1001046:	0f 44 d8             	cmove  %eax,%ebx
 1001049:	83 7d b0 00          	cmpl   $0x0,-0x50(%ebp)
 100104d:	7e 29                	jle    1001078 <_doprnt+0x8bb>
 100104f:	83 7d bc 00          	cmpl   $0x0,-0x44(%ebp)
 1001053:	75 23                	jne    1001078 <_doprnt+0x8bb>
 1001055:	80 3b 00             	cmpb   $0x0,(%ebx)
 1001058:	0f 84 98 00 00 00    	je     10010f6 <_doprnt+0x939>
 100105e:	89 f2                	mov    %esi,%edx
 1001060:	89 f1                	mov    %esi,%ecx
 1001062:	c1 f9 1f             	sar    $0x1f,%ecx
 1001065:	85 c9                	test   %ecx,%ecx
 1001067:	7f 6b                	jg     10010d4 <_doprnt+0x917>
 1001069:	85 c9                	test   %ecx,%ecx
 100106b:	0f 88 85 00 00 00    	js     10010f6 <_doprnt+0x939>
 1001071:	83 fe 00             	cmp    $0x0,%esi
 1001074:	77 5e                	ja     10010d4 <_doprnt+0x917>
 1001076:	eb 7e                	jmp    10010f6 <_doprnt+0x939>
 1001078:	0f b6 03             	movzbl (%ebx),%eax
 100107b:	c7 45 cc 00 00 00 00 	movl   $0x0,-0x34(%ebp)
 1001082:	c7 45 d0 00 00 00 00 	movl   $0x0,-0x30(%ebp)
 1001089:	84 c0                	test   %al,%al
 100108b:	0f 84 19 01 00 00    	je     10011aa <_doprnt+0x9ed>
 1001091:	89 75 c4             	mov    %esi,-0x3c(%ebp)
 1001094:	89 f2                	mov    %esi,%edx
 1001096:	c1 fa 1f             	sar    $0x1f,%edx
 1001099:	89 55 c8             	mov    %edx,-0x38(%ebp)
 100109c:	83 7d c8 00          	cmpl   $0x0,-0x38(%ebp)
 10010a0:	7f 1f                	jg     10010c1 <_doprnt+0x904>
 10010a2:	83 7d c8 00          	cmpl   $0x0,-0x38(%ebp)
 10010a6:	78 06                	js     10010ae <_doprnt+0x8f1>
 10010a8:	83 7d c4 00          	cmpl   $0x0,-0x3c(%ebp)
 10010ac:	77 13                	ja     10010c1 <_doprnt+0x904>
 10010ae:	c7 45 cc 01 00 00 00 	movl   $0x1,-0x34(%ebp)
 10010b5:	c7 45 d0 00 00 00 00 	movl   $0x0,-0x30(%ebp)
 10010bc:	e9 e9 00 00 00       	jmp    10011aa <_doprnt+0x9ed>
 10010c1:	c7 45 cc 01 00 00 00 	movl   $0x1,-0x34(%ebp)
 10010c8:	c7 45 d0 00 00 00 00 	movl   $0x0,-0x30(%ebp)
 10010cf:	e9 bc 00 00 00       	jmp    1001190 <_doprnt+0x9d3>
 10010d4:	89 d8                	mov    %ebx,%eax
 10010d6:	c7 45 cc 00 00 00 00 	movl   $0x0,-0x34(%ebp)
 10010dd:	c7 45 d0 00 00 00 00 	movl   $0x0,-0x30(%ebp)
 10010e4:	83 45 cc 01          	addl   $0x1,-0x34(%ebp)
 10010e8:	83 55 d0 00          	adcl   $0x0,-0x30(%ebp)
 10010ec:	83 c0 01             	add    $0x1,%eax
 10010ef:	80 38 00             	cmpb   $0x0,(%eax)
 10010f2:	75 39                	jne    100112d <_doprnt+0x970>
 10010f4:	eb 0e                	jmp    1001104 <_doprnt+0x947>
 10010f6:	c7 45 cc 00 00 00 00 	movl   $0x0,-0x34(%ebp)
 10010fd:	c7 45 d0 00 00 00 00 	movl   $0x0,-0x30(%ebp)
 1001104:	8b 45 b0             	mov    -0x50(%ebp),%eax
 1001107:	89 c2                	mov    %eax,%edx
 1001109:	c1 fa 1f             	sar    $0x1f,%edx
 100110c:	89 45 c4             	mov    %eax,-0x3c(%ebp)
 100110f:	89 55 c8             	mov    %edx,-0x38(%ebp)
 1001112:	39 55 d0             	cmp    %edx,-0x30(%ebp)
 1001115:	7c 2b                	jl     1001142 <_doprnt+0x985>
 1001117:	8b 55 c8             	mov    -0x38(%ebp),%edx
 100111a:	39 55 d0             	cmp    %edx,-0x30(%ebp)
 100111d:	0f 8f 55 ff ff ff    	jg     1001078 <_doprnt+0x8bb>
 1001123:	39 45 cc             	cmp    %eax,-0x34(%ebp)
 1001126:	72 1a                	jb     1001142 <_doprnt+0x985>
 1001128:	e9 4b ff ff ff       	jmp    1001078 <_doprnt+0x8bb>
 100112d:	39 4d d0             	cmp    %ecx,-0x30(%ebp)
 1001130:	7c b2                	jl     10010e4 <_doprnt+0x927>
 1001132:	7f d0                	jg     1001104 <_doprnt+0x947>
 1001134:	39 55 cc             	cmp    %edx,-0x34(%ebp)
 1001137:	72 ab                	jb     10010e4 <_doprnt+0x927>
 1001139:	8d b4 26 00 00 00 00 	lea    0x0(%esi,%eiz,1),%esi
 1001140:	eb c2                	jmp    1001104 <_doprnt+0x947>
 1001142:	c7 44 24 04 20 00 00 	movl   $0x20,0x4(%esp)
 1001149:	00 
 100114a:	8b 4d 18             	mov    0x18(%ebp),%ecx
 100114d:	89 0c 24             	mov    %ecx,(%esp)
 1001150:	ff 55 14             	call   *0x14(%ebp)
 1001153:	83 45 cc 01          	addl   $0x1,-0x34(%ebp)
 1001157:	83 55 d0 00          	adcl   $0x0,-0x30(%ebp)
 100115b:	8b 45 c8             	mov    -0x38(%ebp),%eax
 100115e:	39 45 d0             	cmp    %eax,-0x30(%ebp)
 1001161:	7c df                	jl     1001142 <_doprnt+0x985>
 1001163:	0f 8f 0f ff ff ff    	jg     1001078 <_doprnt+0x8bb>
 1001169:	8b 4d c4             	mov    -0x3c(%ebp),%ecx
 100116c:	39 4d cc             	cmp    %ecx,-0x34(%ebp)
 100116f:	72 d1                	jb     1001142 <_doprnt+0x985>
 1001171:	e9 02 ff ff ff       	jmp    1001078 <_doprnt+0x8bb>
 1001176:	83 45 cc 01          	addl   $0x1,-0x34(%ebp)
 100117a:	83 55 d0 00          	adcl   $0x0,-0x30(%ebp)
 100117e:	8b 75 c8             	mov    -0x38(%ebp),%esi
 1001181:	39 75 d0             	cmp    %esi,-0x30(%ebp)
 1001184:	7f 24                	jg     10011aa <_doprnt+0x9ed>
 1001186:	7c 08                	jl     1001190 <_doprnt+0x9d3>
 1001188:	8b 4d c4             	mov    -0x3c(%ebp),%ecx
 100118b:	39 4d cc             	cmp    %ecx,-0x34(%ebp)
 100118e:	77 1a                	ja     10011aa <_doprnt+0x9ed>
 1001190:	83 c3 01             	add    $0x1,%ebx
 1001193:	0f be c0             	movsbl %al,%eax
 1001196:	89 44 24 04          	mov    %eax,0x4(%esp)
 100119a:	8b 75 18             	mov    0x18(%ebp),%esi
 100119d:	89 34 24             	mov    %esi,(%esp)
 10011a0:	ff 55 14             	call   *0x14(%ebp)
 10011a3:	0f b6 03             	movzbl (%ebx),%eax
 10011a6:	84 c0                	test   %al,%al
 10011a8:	75 cc                	jne    1001176 <_doprnt+0x9b9>
 10011aa:	8b 45 b0             	mov    -0x50(%ebp),%eax
 10011ad:	89 c2                	mov    %eax,%edx
 10011af:	c1 fa 1f             	sar    $0x1f,%edx
 10011b2:	89 c3                	mov    %eax,%ebx
 10011b4:	89 d6                	mov    %edx,%esi
 10011b6:	3b 55 d0             	cmp    -0x30(%ebp),%edx
 10011b9:	0f 8c a2 03 00 00    	jl     1001561 <_doprnt+0xda4>
 10011bf:	7f 09                	jg     10011ca <_doprnt+0xa0d>
 10011c1:	3b 45 cc             	cmp    -0x34(%ebp),%eax
 10011c4:	0f 86 97 03 00 00    	jbe    1001561 <_doprnt+0xda4>
 10011ca:	83 7d bc 00          	cmpl   $0x0,-0x44(%ebp)
 10011ce:	66 90                	xchg   %ax,%ax
 10011d0:	0f 84 8b 03 00 00    	je     1001561 <_doprnt+0xda4>
 10011d6:	39 75 d0             	cmp    %esi,-0x30(%ebp)
 10011d9:	0f 8f 82 03 00 00    	jg     1001561 <_doprnt+0xda4>
 10011df:	90                   	nop
 10011e0:	7c 09                	jl     10011eb <_doprnt+0xa2e>
 10011e2:	39 5d cc             	cmp    %ebx,-0x34(%ebp)
 10011e5:	0f 83 76 03 00 00    	jae    1001561 <_doprnt+0xda4>
 10011eb:	c7 44 24 04 20 00 00 	movl   $0x20,0x4(%esp)
 10011f2:	00 
 10011f3:	8b 55 18             	mov    0x18(%ebp),%edx
 10011f6:	89 14 24             	mov    %edx,(%esp)
 10011f9:	ff 55 14             	call   *0x14(%ebp)
 10011fc:	83 45 cc 01          	addl   $0x1,-0x34(%ebp)
 1001200:	83 55 d0 00          	adcl   $0x0,-0x30(%ebp)
 1001204:	3b 75 d0             	cmp    -0x30(%ebp),%esi
 1001207:	7f e2                	jg     10011eb <_doprnt+0xa2e>
 1001209:	0f 8c 52 03 00 00    	jl     1001561 <_doprnt+0xda4>
 100120f:	3b 5d cc             	cmp    -0x34(%ebp),%ebx
 1001212:	77 d7                	ja     10011eb <_doprnt+0xa2e>
 1001214:	e9 48 03 00 00       	jmp    1001561 <_doprnt+0xda4>
 1001219:	8b 0d 34 39 00 01    	mov    0x1003934,%ecx
 100121f:	89 4d b4             	mov    %ecx,-0x4c(%ebp)
 1001222:	b9 08 00 00 00       	mov    $0x8,%ecx
 1001227:	e9 ff 00 00 00       	jmp    100132b <_doprnt+0xb6e>
 100122c:	8b 35 34 39 00 01    	mov    0x1003934,%esi
 1001232:	89 75 b4             	mov    %esi,-0x4c(%ebp)
 1001235:	b9 0a 00 00 00       	mov    $0xa,%ecx
 100123a:	e9 8a 00 00 00       	jmp    10012c9 <_doprnt+0xb0c>
 100123f:	a1 34 39 00 01       	mov    0x1003934,%eax
 1001244:	89 45 b4             	mov    %eax,-0x4c(%ebp)
 1001247:	b9 0a 00 00 00       	mov    $0xa,%ecx
 100124c:	e9 da 00 00 00       	jmp    100132b <_doprnt+0xb6e>
 1001251:	c7 44 24 04 30 00 00 	movl   $0x30,0x4(%esp)
 1001258:	00 
 1001259:	8b 55 18             	mov    0x18(%ebp),%edx
 100125c:	89 14 24             	mov    %edx,(%esp)
 100125f:	ff 55 14             	call   *0x14(%ebp)
 1001262:	c7 44 24 04 78 00 00 	movl   $0x78,0x4(%esp)
 1001269:	00 
 100126a:	8b 4d 18             	mov    0x18(%ebp),%ecx
 100126d:	89 0c 24             	mov    %ecx,(%esp)
 1001270:	ff 55 14             	call   *0x14(%ebp)
 1001273:	c6 45 ac 30          	movb   $0x30,-0x54(%ebp)
 1001277:	c7 45 b0 08 00 00 00 	movl   $0x8,-0x50(%ebp)
 100127e:	8b 35 34 39 00 01    	mov    0x1003934,%esi
 1001284:	89 75 b4             	mov    %esi,-0x4c(%ebp)
 1001287:	b9 10 00 00 00       	mov    $0x10,%ecx
 100128c:	e9 9a 00 00 00       	jmp    100132b <_doprnt+0xb6e>
 1001291:	8b 15 34 39 00 01    	mov    0x1003934,%edx
 1001297:	89 55 b4             	mov    %edx,-0x4c(%ebp)
 100129a:	b9 10 00 00 00       	mov    $0x10,%ecx
 100129f:	eb 28                	jmp    10012c9 <_doprnt+0xb0c>
 10012a1:	8b 0d 34 39 00 01    	mov    0x1003934,%ecx
 10012a7:	89 4d b4             	mov    %ecx,-0x4c(%ebp)
 10012aa:	8b 4d 10             	mov    0x10(%ebp),%ecx
 10012ad:	eb 1a                	jmp    10012c9 <_doprnt+0xb0c>
 10012af:	8b 35 34 39 00 01    	mov    0x1003934,%esi
 10012b5:	89 75 b4             	mov    %esi,-0x4c(%ebp)
 10012b8:	8b 4d 10             	mov    0x10(%ebp),%ecx
 10012bb:	eb 6e                	jmp    100132b <_doprnt+0xb6e>
 10012bd:	b9 10 00 00 00       	mov    $0x10,%ecx
 10012c2:	c7 45 b4 00 00 00 00 	movl   $0x0,-0x4c(%ebp)
 10012c9:	83 fb 01             	cmp    $0x1,%ebx
 10012cc:	7e 19                	jle    10012e7 <_doprnt+0xb2a>
 10012ce:	8b 55 c4             	mov    -0x3c(%ebp),%edx
 10012d1:	83 c2 08             	add    $0x8,%edx
 10012d4:	89 55 0c             	mov    %edx,0xc(%ebp)
 10012d7:	8b 75 c4             	mov    -0x3c(%ebp),%esi
 10012da:	8b 1e                	mov    (%esi),%ebx
 10012dc:	8b 76 04             	mov    0x4(%esi),%esi
 10012df:	89 5d c4             	mov    %ebx,-0x3c(%ebp)
 10012e2:	89 75 c8             	mov    %esi,-0x38(%ebp)
 10012e5:	eb 19                	jmp    1001300 <_doprnt+0xb43>
 10012e7:	8b 55 c4             	mov    -0x3c(%ebp),%edx
 10012ea:	83 c2 04             	add    $0x4,%edx
 10012ed:	89 55 0c             	mov    %edx,0xc(%ebp)
 10012f0:	8b 5d c4             	mov    -0x3c(%ebp),%ebx
 10012f3:	8b 13                	mov    (%ebx),%edx
 10012f5:	89 55 c4             	mov    %edx,-0x3c(%ebp)
 10012f8:	89 d6                	mov    %edx,%esi
 10012fa:	c1 fe 1f             	sar    $0x1f,%esi
 10012fd:	89 75 c8             	mov    %esi,-0x38(%ebp)
 1001300:	8b 5d c4             	mov    -0x3c(%ebp),%ebx
 1001303:	8b 75 c8             	mov    -0x38(%ebp),%esi
 1001306:	89 45 a4             	mov    %eax,-0x5c(%ebp)
 1001309:	83 7d c8 00          	cmpl   $0x0,-0x38(%ebp)
 100130d:	79 55                	jns    1001364 <_doprnt+0xba7>
 100130f:	f7 db                	neg    %ebx
 1001311:	83 d6 00             	adc    $0x0,%esi
 1001314:	f7 de                	neg    %esi
 1001316:	c7 45 a4 2d 00 00 00 	movl   $0x2d,-0x5c(%ebp)
 100131d:	eb 45                	jmp    1001364 <_doprnt+0xba7>
 100131f:	b9 10 00 00 00       	mov    $0x10,%ecx
 1001324:	c7 45 b4 00 00 00 00 	movl   $0x0,-0x4c(%ebp)
 100132b:	83 fb 01             	cmp    $0x1,%ebx
 100132e:	7e 1a                	jle    100134a <_doprnt+0xb8d>
 1001330:	8b 45 c4             	mov    -0x3c(%ebp),%eax
 1001333:	83 c0 08             	add    $0x8,%eax
 1001336:	89 45 0c             	mov    %eax,0xc(%ebp)
 1001339:	8b 55 c4             	mov    -0x3c(%ebp),%edx
 100133c:	8b 1a                	mov    (%edx),%ebx
 100133e:	8b 72 04             	mov    0x4(%edx),%esi
 1001341:	c7 45 a4 00 00 00 00 	movl   $0x0,-0x5c(%ebp)
 1001348:	eb 1a                	jmp    1001364 <_doprnt+0xba7>
 100134a:	8b 5d c4             	mov    -0x3c(%ebp),%ebx
 100134d:	83 c3 04             	add    $0x4,%ebx
 1001350:	89 5d 0c             	mov    %ebx,0xc(%ebp)
 1001353:	8b 45 c4             	mov    -0x3c(%ebp),%eax
 1001356:	8b 18                	mov    (%eax),%ebx
 1001358:	be 00 00 00 00       	mov    $0x0,%esi
 100135d:	c7 45 a4 00 00 00 00 	movl   $0x0,-0x5c(%ebp)
 1001364:	83 7d b4 00          	cmpl   $0x0,-0x4c(%ebp)
 1001368:	74 05                	je     100136f <_doprnt+0xbb2>
 100136a:	89 de                	mov    %ebx,%esi
 100136c:	c1 fe 1f             	sar    $0x1f,%esi
 100136f:	89 f2                	mov    %esi,%edx
 1001371:	09 da                	or     %ebx,%edx
 1001373:	74 1e                	je     1001393 <_doprnt+0xbd6>
 1001375:	83 7d cc 00          	cmpl   $0x0,-0x34(%ebp)
 1001379:	74 18                	je     1001393 <_doprnt+0xbd6>
 100137b:	c7 45 c4 0f 26 00 01 	movl   $0x100260f,-0x3c(%ebp)
 1001382:	83 f9 08             	cmp    $0x8,%ecx
 1001385:	74 13                	je     100139a <_doprnt+0xbdd>
 1001387:	c7 45 c4 11 26 00 01 	movl   $0x1002611,-0x3c(%ebp)
 100138e:	83 f9 10             	cmp    $0x10,%ecx
 1001391:	74 07                	je     100139a <_doprnt+0xbdd>
 1001393:	c7 45 c4 00 00 00 00 	movl   $0x0,-0x3c(%ebp)
 100139a:	8d 45 f3             	lea    -0xd(%ebp),%eax
 100139d:	89 4d cc             	mov    %ecx,-0x34(%ebp)
 10013a0:	89 ca                	mov    %ecx,%edx
 10013a2:	c1 fa 1f             	sar    $0x1f,%edx
 10013a5:	89 55 d0             	mov    %edx,-0x30(%ebp)
 10013a8:	89 7d a0             	mov    %edi,-0x60(%ebp)
 10013ab:	89 c7                	mov    %eax,%edi
 10013ad:	8b 45 cc             	mov    -0x34(%ebp),%eax
 10013b0:	8b 55 d0             	mov    -0x30(%ebp),%edx
 10013b3:	89 44 24 08          	mov    %eax,0x8(%esp)
 10013b7:	89 54 24 0c          	mov    %edx,0xc(%esp)
 10013bb:	89 1c 24             	mov    %ebx,(%esp)
 10013be:	89 74 24 04          	mov    %esi,0x4(%esp)
 10013c2:	e8 25 0f 00 00       	call   10022ec <__umoddi3>
 10013c7:	0f b6 80 00 28 00 01 	movzbl 0x1002800(%eax),%eax
 10013ce:	88 07                	mov    %al,(%edi)
 10013d0:	83 ef 01             	sub    $0x1,%edi
 10013d3:	8b 55 cc             	mov    -0x34(%ebp),%edx
 10013d6:	8b 4d d0             	mov    -0x30(%ebp),%ecx
 10013d9:	89 54 24 08          	mov    %edx,0x8(%esp)
 10013dd:	89 4c 24 0c          	mov    %ecx,0xc(%esp)
 10013e1:	89 1c 24             	mov    %ebx,(%esp)
 10013e4:	89 74 24 04          	mov    %esi,0x4(%esp)
 10013e8:	e8 37 0f 00 00       	call   1002324 <__udivdi3>
 10013ed:	89 c3                	mov    %eax,%ebx
 10013ef:	89 d6                	mov    %edx,%esi
 10013f1:	89 d1                	mov    %edx,%ecx
 10013f3:	09 c1                	or     %eax,%ecx
 10013f5:	75 b6                	jne    10013ad <_doprnt+0xbf0>
 10013f7:	89 7d b4             	mov    %edi,-0x4c(%ebp)
 10013fa:	8b 7d a0             	mov    -0x60(%ebp),%edi
 10013fd:	8b 75 b0             	mov    -0x50(%ebp),%esi
 1001400:	2b 75 84             	sub    -0x7c(%ebp),%esi
 1001403:	03 75 b4             	add    -0x4c(%ebp),%esi
 1001406:	83 7d a4 01          	cmpl   $0x1,-0x5c(%ebp)
 100140a:	83 d6 ff             	adc    $0xffffffff,%esi
 100140d:	83 7d c4 00          	cmpl   $0x0,-0x3c(%ebp)
 1001411:	74 0d                	je     1001420 <_doprnt+0xc63>
 1001413:	8b 5d c4             	mov    -0x3c(%ebp),%ebx
 1001416:	89 1c 24             	mov    %ebx,(%esp)
 1001419:	e8 02 02 00 00       	call   1001620 <strlen>
 100141e:	29 c6                	sub    %eax,%esi
 1001420:	80 7d ac 20          	cmpb   $0x20,-0x54(%ebp)
 1001424:	75 06                	jne    100142c <_doprnt+0xc6f>
 1001426:	83 7d bc 00          	cmpl   $0x0,-0x44(%ebp)
 100142a:	74 05                	je     1001431 <_doprnt+0xc74>
 100142c:	89 75 cc             	mov    %esi,-0x34(%ebp)
 100142f:	eb 33                	jmp    1001464 <_doprnt+0xca7>
 1001431:	89 f0                	mov    %esi,%eax
 1001433:	83 e8 01             	sub    $0x1,%eax
 1001436:	89 45 cc             	mov    %eax,-0x34(%ebp)
 1001439:	78 29                	js     1001464 <_doprnt+0xca7>
 100143b:	89 c3                	mov    %eax,%ebx
 100143d:	89 75 b0             	mov    %esi,-0x50(%ebp)
 1001440:	89 7d a0             	mov    %edi,-0x60(%ebp)
 1001443:	8b 7d 14             	mov    0x14(%ebp),%edi
 1001446:	8b 75 18             	mov    0x18(%ebp),%esi
 1001449:	c7 44 24 04 20 00 00 	movl   $0x20,0x4(%esp)
 1001450:	00 
 1001451:	89 34 24             	mov    %esi,(%esp)
 1001454:	ff d7                	call   *%edi
 1001456:	83 eb 01             	sub    $0x1,%ebx
 1001459:	79 ee                	jns    1001449 <_doprnt+0xc8c>
 100145b:	8b 75 b0             	mov    -0x50(%ebp),%esi
 100145e:	8b 7d a0             	mov    -0x60(%ebp),%edi
 1001461:	29 75 cc             	sub    %esi,-0x34(%ebp)
 1001464:	83 7d a4 00          	cmpl   $0x0,-0x5c(%ebp)
 1001468:	74 10                	je     100147a <_doprnt+0xcbd>
 100146a:	8b 55 a4             	mov    -0x5c(%ebp),%edx
 100146d:	89 54 24 04          	mov    %edx,0x4(%esp)
 1001471:	8b 4d 18             	mov    0x18(%ebp),%ecx
 1001474:	89 0c 24             	mov    %ecx,(%esp)
 1001477:	ff 55 14             	call   *0x14(%ebp)
 100147a:	83 7d c4 00          	cmpl   $0x0,-0x3c(%ebp)
 100147e:	74 2c                	je     10014ac <_doprnt+0xcef>
 1001480:	8b 5d c4             	mov    -0x3c(%ebp),%ebx
 1001483:	0f b6 03             	movzbl (%ebx),%eax
 1001486:	84 c0                	test   %al,%al
 1001488:	74 22                	je     10014ac <_doprnt+0xcef>
 100148a:	89 7d b0             	mov    %edi,-0x50(%ebp)
 100148d:	8b 7d 14             	mov    0x14(%ebp),%edi
 1001490:	8b 75 18             	mov    0x18(%ebp),%esi
 1001493:	83 c3 01             	add    $0x1,%ebx
 1001496:	0f be c0             	movsbl %al,%eax
 1001499:	89 44 24 04          	mov    %eax,0x4(%esp)
 100149d:	89 34 24             	mov    %esi,(%esp)
 10014a0:	ff d7                	call   *%edi
 10014a2:	0f b6 03             	movzbl (%ebx),%eax
 10014a5:	84 c0                	test   %al,%al
 10014a7:	75 ea                	jne    1001493 <_doprnt+0xcd6>
 10014a9:	8b 7d b0             	mov    -0x50(%ebp),%edi
 10014ac:	8b 75 cc             	mov    -0x34(%ebp),%esi
 10014af:	89 75 c4             	mov    %esi,-0x3c(%ebp)
 10014b2:	80 7d ac 30          	cmpb   $0x30,-0x54(%ebp)
 10014b6:	75 30                	jne    10014e8 <_doprnt+0xd2b>
 10014b8:	89 f0                	mov    %esi,%eax
 10014ba:	83 e8 01             	sub    $0x1,%eax
 10014bd:	89 45 c4             	mov    %eax,-0x3c(%ebp)
 10014c0:	78 26                	js     10014e8 <_doprnt+0xd2b>
 10014c2:	89 c3                	mov    %eax,%ebx
 10014c4:	89 7d b0             	mov    %edi,-0x50(%ebp)
 10014c7:	8b 7d 14             	mov    0x14(%ebp),%edi
 10014ca:	8b 75 18             	mov    0x18(%ebp),%esi
 10014cd:	c7 44 24 04 30 00 00 	movl   $0x30,0x4(%esp)
 10014d4:	00 
 10014d5:	89 34 24             	mov    %esi,(%esp)
 10014d8:	ff d7                	call   *%edi
 10014da:	83 eb 01             	sub    $0x1,%ebx
 10014dd:	79 ee                	jns    10014cd <_doprnt+0xd10>
 10014df:	8b 7d b0             	mov    -0x50(%ebp),%edi
 10014e2:	8b 55 cc             	mov    -0x34(%ebp),%edx
 10014e5:	29 55 c4             	sub    %edx,-0x3c(%ebp)
 10014e8:	8b 5d b4             	mov    -0x4c(%ebp),%ebx
 10014eb:	83 c3 01             	add    $0x1,%ebx
 10014ee:	8d 75 f4             	lea    -0xc(%ebp),%esi
 10014f1:	39 f3                	cmp    %esi,%ebx
 10014f3:	74 1d                	je     1001512 <_doprnt+0xd55>
 10014f5:	89 7d cc             	mov    %edi,-0x34(%ebp)
 10014f8:	8b 7d 18             	mov    0x18(%ebp),%edi
 10014fb:	0f be 03             	movsbl (%ebx),%eax
 10014fe:	89 44 24 04          	mov    %eax,0x4(%esp)
 1001502:	89 3c 24             	mov    %edi,(%esp)
 1001505:	ff 55 14             	call   *0x14(%ebp)
 1001508:	83 c3 01             	add    $0x1,%ebx
 100150b:	39 f3                	cmp    %esi,%ebx
 100150d:	75 ec                	jne    10014fb <_doprnt+0xd3e>
 100150f:	8b 7d cc             	mov    -0x34(%ebp),%edi
 1001512:	83 7d bc 00          	cmpl   $0x0,-0x44(%ebp)
 1001516:	74 49                	je     1001561 <_doprnt+0xda4>
 1001518:	8b 5d c4             	mov    -0x3c(%ebp),%ebx
 100151b:	83 eb 01             	sub    $0x1,%ebx
 100151e:	78 41                	js     1001561 <_doprnt+0xda4>
 1001520:	89 7d cc             	mov    %edi,-0x34(%ebp)
 1001523:	8b 7d 14             	mov    0x14(%ebp),%edi
 1001526:	8b 75 18             	mov    0x18(%ebp),%esi
 1001529:	c7 44 24 04 20 00 00 	movl   $0x20,0x4(%esp)
 1001530:	00 
 1001531:	89 34 24             	mov    %esi,(%esp)
 1001534:	ff d7                	call   *%edi
 1001536:	83 eb 01             	sub    $0x1,%ebx
 1001539:	79 ee                	jns    1001529 <_doprnt+0xd6c>
 100153b:	8b 7d cc             	mov    -0x34(%ebp),%edi
 100153e:	eb 21                	jmp    1001561 <_doprnt+0xda4>
 1001540:	83 ef 01             	sub    $0x1,%edi
 1001543:	8b 5d c4             	mov    -0x3c(%ebp),%ebx
 1001546:	89 5d 0c             	mov    %ebx,0xc(%ebp)
 1001549:	eb 16                	jmp    1001561 <_doprnt+0xda4>
 100154b:	0f be d2             	movsbl %dl,%edx
 100154e:	89 54 24 04          	mov    %edx,0x4(%esp)
 1001552:	8b 75 18             	mov    0x18(%ebp),%esi
 1001555:	89 34 24             	mov    %esi,(%esp)
 1001558:	ff 55 14             	call   *0x14(%ebp)
 100155b:	8b 45 c4             	mov    -0x3c(%ebp),%eax
 100155e:	89 45 0c             	mov    %eax,0xc(%ebp)
 1001561:	83 c7 01             	add    $0x1,%edi
 1001564:	0f b6 07             	movzbl (%edi),%eax
 1001567:	84 c0                	test   %al,%al
 1001569:	0f 85 65 f2 ff ff    	jne    10007d4 <_doprnt+0x17>
 100156f:	eb 69                	jmp    10015da <_doprnt+0xe1d>
 1001571:	8b 45 b0             	mov    -0x50(%ebp),%eax
 1001574:	89 c2                	mov    %eax,%edx
 1001576:	c1 fa 1f             	sar    $0x1f,%edx
 1001579:	83 c0 fe             	add    $0xfffffffe,%eax
 100157c:	83 d2 ff             	adc    $0xffffffff,%edx
 100157f:	89 45 c4             	mov    %eax,-0x3c(%ebp)
 1001582:	89 55 c8             	mov    %edx,-0x38(%ebp)
 1001585:	8b 55 18             	mov    0x18(%ebp),%edx
 1001588:	89 14 24             	mov    %edx,(%esp)
 100158b:	8b 4d 14             	mov    0x14(%ebp),%ecx
 100158e:	ba 10 00 00 00       	mov    $0x10,%edx
 1001593:	8b 45 a0             	mov    -0x60(%ebp),%eax
 1001596:	e8 75 f1 ff ff       	call   1000710 <printnum>
 100159b:	c7 44 24 04 2e 00 00 	movl   $0x2e,0x4(%esp)
 10015a2:	00 
 10015a3:	8b 4d 18             	mov    0x18(%ebp),%ecx
 10015a6:	89 0c 24             	mov    %ecx,(%esp)
 10015a9:	ff 55 14             	call   *0x14(%ebp)
 10015ac:	e9 51 f9 ff ff       	jmp    1000f02 <_doprnt+0x745>
 10015b1:	8b 5d 18             	mov    0x18(%ebp),%ebx
 10015b4:	89 1c 24             	mov    %ebx,(%esp)
 10015b7:	8b 4d 14             	mov    0x14(%ebp),%ecx
 10015ba:	ba 10 00 00 00       	mov    $0x10,%edx
 10015bf:	8b 45 a0             	mov    -0x60(%ebp),%eax
 10015c2:	e8 49 f1 ff ff       	call   1000710 <printnum>
 10015c7:	c7 44 24 04 2e 00 00 	movl   $0x2e,0x4(%esp)
 10015ce:	00 
 10015cf:	89 1c 24             	mov    %ebx,(%esp)
 10015d2:	ff 55 14             	call   *0x14(%ebp)
 10015d5:	e9 93 f9 ff ff       	jmp    1000f6d <_doprnt+0x7b0>
 10015da:	83 ec 80             	sub    $0xffffff80,%esp
 10015dd:	5b                   	pop    %ebx
 10015de:	5e                   	pop    %esi
 10015df:	5f                   	pop    %edi
 10015e0:	5d                   	pop    %ebp
 10015e1:	c3                   	ret    
 10015e2:	90                   	nop
 10015e3:	90                   	nop

010015e4 <exit>:
 10015e4:	55                   	push   %ebp
 10015e5:	89 e5                	mov    %esp,%ebp
 10015e7:	83 ec 04             	sub    $0x4,%esp
 10015ea:	8b 45 08             	mov    0x8(%ebp),%eax
 10015ed:	89 04 24             	mov    %eax,(%esp)
 10015f0:	e8 89 06 00 00       	call   1001c7e <set_status>
 10015f5:	e8 26 07 00 00       	call   1001d20 <vanish>
 10015fa:	90                   	nop
 10015fb:	90                   	nop

010015fc <memset>:
 10015fc:	55                   	push   %ebp
 10015fd:	89 e5                	mov    %esp,%ebp
 10015ff:	53                   	push   %ebx
 1001600:	8b 45 08             	mov    0x8(%ebp),%eax
 1001603:	8b 5d 0c             	mov    0xc(%ebp),%ebx
 1001606:	8b 4d 10             	mov    0x10(%ebp),%ecx
 1001609:	85 c9                	test   %ecx,%ecx
 100160b:	74 0f                	je     100161c <memset+0x20>
 100160d:	ba 00 00 00 00       	mov    $0x0,%edx
 1001612:	88 1c 10             	mov    %bl,(%eax,%edx,1)
 1001615:	83 c2 01             	add    $0x1,%edx
 1001618:	39 ca                	cmp    %ecx,%edx
 100161a:	75 f6                	jne    1001612 <memset+0x16>
 100161c:	5b                   	pop    %ebx
 100161d:	5d                   	pop    %ebp
 100161e:	c3                   	ret    
 100161f:	90                   	nop

01001620 <strlen>:
 1001620:	55                   	push   %ebp
 1001621:	89 e5                	mov    %esp,%ebp
 1001623:	8b 4d 08             	mov    0x8(%ebp),%ecx
 1001626:	89 c8                	mov    %ecx,%eax
 1001628:	8d 50 01             	lea    0x1(%eax),%edx
 100162b:	80 38 00             	cmpb   $0x0,(%eax)
 100162e:	74 04                	je     1001634 <strlen+0x14>
 1001630:	89 d0                	mov    %edx,%eax
 1001632:	eb f4                	jmp    1001628 <strlen+0x8>
 1001634:	29 c8                	sub    %ecx,%eax
 1001636:	5d                   	pop    %ebp
 1001637:	c3                   	ret    

01001638 <_free>:
 1001638:	55                   	push   %ebp
 1001639:	89 e5                	mov    %esp,%ebp
 100163b:	83 ec 04             	sub    $0x4,%esp
 100163e:	83 3d 38 39 00 01 00 	cmpl   $0x0,0x1003938
 1001645:	74 0b                	je     1001652 <_free+0x1a>
 1001647:	8b 45 08             	mov    0x8(%ebp),%eax
 100164a:	89 04 24             	mov    %eax,(%esp)
 100164d:	e8 32 02 00 00       	call   1001884 <mm_free>
 1001652:	c9                   	leave  
 1001653:	c3                   	ret    

01001654 <_realloc>:
 1001654:	55                   	push   %ebp
 1001655:	89 e5                	mov    %esp,%ebp
 1001657:	83 ec 08             	sub    $0x8,%esp
 100165a:	b8 00 00 00 00       	mov    $0x0,%eax
 100165f:	83 3d 38 39 00 01 00 	cmpl   $0x0,0x1003938
 1001666:	74 12                	je     100167a <_realloc+0x26>
 1001668:	8b 45 0c             	mov    0xc(%ebp),%eax
 100166b:	89 44 24 04          	mov    %eax,0x4(%esp)
 100166f:	8b 45 08             	mov    0x8(%ebp),%eax
 1001672:	89 04 24             	mov    %eax,(%esp)
 1001675:	e8 6d 04 00 00       	call   1001ae7 <mm_realloc>
 100167a:	c9                   	leave  
 100167b:	c3                   	ret    

0100167c <_malloc>:
 100167c:	55                   	push   %ebp
 100167d:	89 e5                	mov    %esp,%ebp
 100167f:	83 ec 04             	sub    $0x4,%esp
 1001682:	83 3d 38 39 00 01 00 	cmpl   $0x0,0x1003938
 1001689:	75 1a                	jne    10016a5 <_malloc+0x29>
 100168b:	e8 b7 04 00 00       	call   1001b47 <mm_init>
 1001690:	89 c2                	mov    %eax,%edx
 1001692:	b8 00 00 00 00       	mov    $0x0,%eax
 1001697:	85 d2                	test   %edx,%edx
 1001699:	78 15                	js     10016b0 <_malloc+0x34>
 100169b:	c7 05 38 39 00 01 01 	movl   $0x1,0x1003938
 10016a2:	00 00 00 
 10016a5:	8b 45 08             	mov    0x8(%ebp),%eax
 10016a8:	89 04 24             	mov    %eax,(%esp)
 10016ab:	e8 9f 03 00 00       	call   1001a4f <mm_malloc>
 10016b0:	c9                   	leave  
 10016b1:	c3                   	ret    

010016b2 <_calloc>:
 10016b2:	55                   	push   %ebp
 10016b3:	89 e5                	mov    %esp,%ebp
 10016b5:	83 ec 10             	sub    $0x10,%esp
 10016b8:	89 5d f8             	mov    %ebx,-0x8(%ebp)
 10016bb:	89 75 fc             	mov    %esi,-0x4(%ebp)
 10016be:	83 3d 38 39 00 01 00 	cmpl   $0x0,0x1003938
 10016c5:	75 18                	jne    10016df <_calloc+0x2d>
 10016c7:	e8 7b 04 00 00       	call   1001b47 <mm_init>
 10016cc:	bb 00 00 00 00       	mov    $0x0,%ebx
 10016d1:	85 c0                	test   %eax,%eax
 10016d3:	78 2b                	js     1001700 <_calloc+0x4e>
 10016d5:	c7 05 38 39 00 01 01 	movl   $0x1,0x1003938
 10016dc:	00 00 00 
 10016df:	8b 75 08             	mov    0x8(%ebp),%esi
 10016e2:	0f af 75 0c          	imul   0xc(%ebp),%esi
 10016e6:	89 34 24             	mov    %esi,(%esp)
 10016e9:	e8 61 03 00 00       	call   1001a4f <mm_malloc>
 10016ee:	89 c3                	mov    %eax,%ebx
 10016f0:	85 c0                	test   %eax,%eax
 10016f2:	74 0c                	je     1001700 <_calloc+0x4e>
 10016f4:	89 74 24 04          	mov    %esi,0x4(%esp)
 10016f8:	89 04 24             	mov    %eax,(%esp)
 10016fb:	e8 d8 06 00 00       	call   1001dd8 <bzero>
 1001700:	89 d8                	mov    %ebx,%eax
 1001702:	8b 5d f8             	mov    -0x8(%ebp),%ebx
 1001705:	8b 75 fc             	mov    -0x4(%ebp),%esi
 1001708:	89 ec                	mov    %ebp,%esp
 100170a:	5d                   	pop    %ebp
 100170b:	c3                   	ret    
 100170c:	90                   	nop
 100170d:	90                   	nop
 100170e:	90                   	nop
 100170f:	90                   	nop

01001710 <place>:
 1001710:	55                   	push   %ebp
 1001711:	89 e5                	mov    %esp,%ebp
 1001713:	83 ec 0c             	sub    $0xc,%esp
 1001716:	89 1c 24             	mov    %ebx,(%esp)
 1001719:	89 74 24 04          	mov    %esi,0x4(%esp)
 100171d:	89 7c 24 08          	mov    %edi,0x8(%esp)
 1001721:	89 c7                	mov    %eax,%edi
 1001723:	8d 48 fc             	lea    -0x4(%eax),%ecx
 1001726:	8b 31                	mov    (%ecx),%esi
 1001728:	83 e6 f8             	and    $0xfffffff8,%esi
 100172b:	89 f3                	mov    %esi,%ebx
 100172d:	29 d3                	sub    %edx,%ebx
 100172f:	83 fb 0f             	cmp    $0xf,%ebx
 1001732:	7e 23                	jle    1001757 <place+0x47>
 1001734:	83 ca 01             	or     $0x1,%edx
 1001737:	89 11                	mov    %edx,(%ecx)
 1001739:	89 d6                	mov    %edx,%esi
 100173b:	83 e6 f8             	and    $0xfffffff8,%esi
 100173e:	89 54 30 f8          	mov    %edx,-0x8(%eax,%esi,1)
 1001742:	8b 11                	mov    (%ecx),%edx
 1001744:	83 e2 f8             	and    $0xfffffff8,%edx
 1001747:	01 d0                	add    %edx,%eax
 1001749:	89 58 fc             	mov    %ebx,-0x4(%eax)
 100174c:	89 da                	mov    %ebx,%edx
 100174e:	83 e2 f8             	and    $0xfffffff8,%edx
 1001751:	89 5c 10 f8          	mov    %ebx,-0x8(%eax,%edx,1)
 1001755:	eb 0e                	jmp    1001765 <place+0x55>
 1001757:	83 ce 01             	or     $0x1,%esi
 100175a:	89 31                	mov    %esi,(%ecx)
 100175c:	89 f0                	mov    %esi,%eax
 100175e:	83 e0 f8             	and    $0xfffffff8,%eax
 1001761:	89 74 07 f8          	mov    %esi,-0x8(%edi,%eax,1)
 1001765:	8b 1c 24             	mov    (%esp),%ebx
 1001768:	8b 74 24 04          	mov    0x4(%esp),%esi
 100176c:	8b 7c 24 08          	mov    0x8(%esp),%edi
 1001770:	89 ec                	mov    %ebp,%esp
 1001772:	5d                   	pop    %ebp
 1001773:	c3                   	ret    

01001774 <coalesce>:
 1001774:	55                   	push   %ebp
 1001775:	89 e5                	mov    %esp,%ebp
 1001777:	83 ec 2c             	sub    $0x2c,%esp
 100177a:	89 5d f4             	mov    %ebx,-0xc(%ebp)
 100177d:	89 75 f8             	mov    %esi,-0x8(%ebp)
 1001780:	89 7d fc             	mov    %edi,-0x4(%ebp)
 1001783:	89 c7                	mov    %eax,%edi
 1001785:	8d 48 f8             	lea    -0x8(%eax),%ecx
 1001788:	8b 19                	mov    (%ecx),%ebx
 100178a:	83 e3 f8             	and    $0xfffffff8,%ebx
 100178d:	89 c2                	mov    %eax,%edx
 100178f:	29 da                	sub    %ebx,%edx
 1001791:	8d 52 fc             	lea    -0x4(%edx),%edx
 1001794:	89 55 d4             	mov    %edx,-0x2c(%ebp)
 1001797:	8b 12                	mov    (%edx),%edx
 1001799:	89 55 e4             	mov    %edx,-0x1c(%ebp)
 100179c:	89 c6                	mov    %eax,%esi
 100179e:	29 de                	sub    %ebx,%esi
 10017a0:	83 e2 f8             	and    $0xfffffff8,%edx
 10017a3:	8b 74 16 f8          	mov    -0x8(%esi,%edx,1),%esi
 10017a7:	8d 58 fc             	lea    -0x4(%eax),%ebx
 10017aa:	8b 13                	mov    (%ebx),%edx
 10017ac:	89 55 f0             	mov    %edx,-0x10(%ebp)
 10017af:	83 e2 f8             	and    $0xfffffff8,%edx
 10017b2:	89 55 e8             	mov    %edx,-0x18(%ebp)
 10017b5:	8b 54 10 fc          	mov    -0x4(%eax,%edx,1),%edx
 10017b9:	89 55 ec             	mov    %edx,-0x14(%ebp)
 10017bc:	83 e6 01             	and    $0x1,%esi
 10017bf:	89 75 d8             	mov    %esi,-0x28(%ebp)
 10017c2:	0f 95 c2             	setne  %dl
 10017c5:	8b 75 ec             	mov    -0x14(%ebp),%esi
 10017c8:	83 e6 01             	and    $0x1,%esi
 10017cb:	89 75 dc             	mov    %esi,-0x24(%ebp)
 10017ce:	0f 95 45 e3          	setne  -0x1d(%ebp)
 10017d2:	84 d2                	test   %dl,%dl
 10017d4:	74 0a                	je     10017e0 <coalesce+0x6c>
 10017d6:	80 7d e3 00          	cmpb   $0x0,-0x1d(%ebp)
 10017da:	0f 85 97 00 00 00    	jne    1001877 <coalesce+0x103>
 10017e0:	8b 75 f0             	mov    -0x10(%ebp),%esi
 10017e3:	83 e6 f8             	and    $0xfffffff8,%esi
 10017e6:	89 75 f0             	mov    %esi,-0x10(%ebp)
 10017e9:	84 d2                	test   %dl,%dl
 10017eb:	74 1b                	je     1001808 <coalesce+0x94>
 10017ed:	83 7d dc 00          	cmpl   $0x0,-0x24(%ebp)
 10017f1:	75 15                	jne    1001808 <coalesce+0x94>
 10017f3:	8b 55 ec             	mov    -0x14(%ebp),%edx
 10017f6:	83 e2 f8             	and    $0xfffffff8,%edx
 10017f9:	01 f2                	add    %esi,%edx
 10017fb:	89 13                	mov    %edx,(%ebx)
 10017fd:	89 d1                	mov    %edx,%ecx
 10017ff:	83 e1 f8             	and    $0xfffffff8,%ecx
 1001802:	89 54 0f f8          	mov    %edx,-0x8(%edi,%ecx,1)
 1001806:	eb 6f                	jmp    1001877 <coalesce+0x103>
 1001808:	80 7d e3 00          	cmpb   $0x0,-0x1d(%ebp)
 100180c:	74 29                	je     1001837 <coalesce+0xc3>
 100180e:	83 7d d8 00          	cmpl   $0x0,-0x28(%ebp)
 1001812:	75 23                	jne    1001837 <coalesce+0xc3>
 1001814:	8b 55 e4             	mov    -0x1c(%ebp),%edx
 1001817:	83 e2 f8             	and    $0xfffffff8,%edx
 100181a:	03 55 f0             	add    -0x10(%ebp),%edx
 100181d:	8b 5d e8             	mov    -0x18(%ebp),%ebx
 1001820:	89 54 1f f8          	mov    %edx,-0x8(%edi,%ebx,1)
 1001824:	8b 19                	mov    (%ecx),%ebx
 1001826:	83 e3 f8             	and    $0xfffffff8,%ebx
 1001829:	29 df                	sub    %ebx,%edi
 100182b:	89 57 fc             	mov    %edx,-0x4(%edi)
 100182e:	8b 11                	mov    (%ecx),%edx
 1001830:	83 e2 f8             	and    $0xfffffff8,%edx
 1001833:	29 d0                	sub    %edx,%eax
 1001835:	eb 40                	jmp    1001877 <coalesce+0x103>
 1001837:	8b 55 e4             	mov    -0x1c(%ebp),%edx
 100183a:	83 e2 f8             	and    $0xfffffff8,%edx
 100183d:	03 55 f0             	add    -0x10(%ebp),%edx
 1001840:	89 55 f0             	mov    %edx,-0x10(%ebp)
 1001843:	8b 75 ec             	mov    -0x14(%ebp),%esi
 1001846:	83 e6 f8             	and    $0xfffffff8,%esi
 1001849:	8b 55 e8             	mov    -0x18(%ebp),%edx
 100184c:	8d 14 17             	lea    (%edi,%edx,1),%edx
 100184f:	8b 54 16 f8          	mov    -0x8(%esi,%edx,1),%edx
 1001853:	83 e2 f8             	and    $0xfffffff8,%edx
 1001856:	03 55 f0             	add    -0x10(%ebp),%edx
 1001859:	8b 75 d4             	mov    -0x2c(%ebp),%esi
 100185c:	89 16                	mov    %edx,(%esi)
 100185e:	8b 1b                	mov    (%ebx),%ebx
 1001860:	83 e3 f8             	and    $0xfffffff8,%ebx
 1001863:	8b 74 1f fc          	mov    -0x4(%edi,%ebx,1),%esi
 1001867:	83 e6 f8             	and    $0xfffffff8,%esi
 100186a:	01 df                	add    %ebx,%edi
 100186c:	89 54 3e f8          	mov    %edx,-0x8(%esi,%edi,1)
 1001870:	8b 11                	mov    (%ecx),%edx
 1001872:	83 e2 f8             	and    $0xfffffff8,%edx
 1001875:	29 d0                	sub    %edx,%eax
 1001877:	8b 5d f4             	mov    -0xc(%ebp),%ebx
 100187a:	8b 75 f8             	mov    -0x8(%ebp),%esi
 100187d:	8b 7d fc             	mov    -0x4(%ebp),%edi
 1001880:	89 ec                	mov    %ebp,%esp
 1001882:	5d                   	pop    %ebp
 1001883:	c3                   	ret    

01001884 <mm_free>:
 1001884:	55                   	push   %ebp
 1001885:	89 e5                	mov    %esp,%ebp
 1001887:	8b 45 08             	mov    0x8(%ebp),%eax
 100188a:	85 c0                	test   %eax,%eax
 100188c:	74 13                	je     10018a1 <mm_free+0x1d>
 100188e:	8d 48 fc             	lea    -0x4(%eax),%ecx
 1001891:	8b 11                	mov    (%ecx),%edx
 1001893:	83 e2 f8             	and    $0xfffffff8,%edx
 1001896:	89 11                	mov    %edx,(%ecx)
 1001898:	89 54 10 f8          	mov    %edx,-0x8(%eax,%edx,1)
 100189c:	e8 d3 fe ff ff       	call   1001774 <coalesce>
 10018a1:	5d                   	pop    %ebp
 10018a2:	c3                   	ret    

010018a3 <checkblock>:
 10018a3:	55                   	push   %ebp
 10018a4:	89 e5                	mov    %esp,%ebp
 10018a6:	53                   	push   %ebx
 10018a7:	83 ec 08             	sub    $0x8,%esp
 10018aa:	89 c3                	mov    %eax,%ebx
 10018ac:	a8 07                	test   $0x7,%al
 10018ae:	74 10                	je     10018c0 <checkblock+0x1d>
 10018b0:	89 44 24 04          	mov    %eax,0x4(%esp)
 10018b4:	c7 04 24 24 28 00 01 	movl   $0x1002824,(%esp)
 10018bb:	e8 ec ec ff ff       	call   10005ac <sim_printf>
 10018c0:	8b 43 fc             	mov    -0x4(%ebx),%eax
 10018c3:	89 c2                	mov    %eax,%edx
 10018c5:	83 e2 f8             	and    $0xfffffff8,%edx
 10018c8:	3b 44 13 f8          	cmp    -0x8(%ebx,%edx,1),%eax
 10018cc:	74 0c                	je     10018da <checkblock+0x37>
 10018ce:	c7 04 24 4c 28 00 01 	movl   $0x100284c,(%esp)
 10018d5:	e8 d2 ec ff ff       	call   10005ac <sim_printf>
 10018da:	83 c4 08             	add    $0x8,%esp
 10018dd:	5b                   	pop    %ebx
 10018de:	5d                   	pop    %ebp
 10018df:	c3                   	ret    

010018e0 <printblock>:
 10018e0:	55                   	push   %ebp
 10018e1:	89 e5                	mov    %esp,%ebp
 10018e3:	56                   	push   %esi
 10018e4:	53                   	push   %ebx
 10018e5:	83 ec 18             	sub    $0x18,%esp
 10018e8:	8b 50 fc             	mov    -0x4(%eax),%edx
 10018eb:	89 d3                	mov    %edx,%ebx
 10018ed:	83 e3 f8             	and    $0xfffffff8,%ebx
 10018f0:	8b 74 18 f8          	mov    -0x8(%eax,%ebx,1),%esi
 10018f4:	85 db                	test   %ebx,%ebx
 10018f6:	75 12                	jne    100190a <printblock+0x2a>
 10018f8:	89 44 24 04          	mov    %eax,0x4(%esp)
 10018fc:	c7 04 24 99 28 00 01 	movl   $0x1002899,(%esp)
 1001903:	e8 a4 ec ff ff       	call   10005ac <sim_printf>
 1001908:	eb 41                	jmp    100194b <printblock+0x6b>
 100190a:	89 f1                	mov    %esi,%ecx
 100190c:	83 e1 01             	and    $0x1,%ecx
 100190f:	83 f9 01             	cmp    $0x1,%ecx
 1001912:	19 c9                	sbb    %ecx,%ecx
 1001914:	83 e1 05             	and    $0x5,%ecx
 1001917:	83 c1 61             	add    $0x61,%ecx
 100191a:	83 e2 01             	and    $0x1,%edx
 100191d:	83 fa 01             	cmp    $0x1,%edx
 1001920:	19 d2                	sbb    %edx,%edx
 1001922:	83 e2 05             	and    $0x5,%edx
 1001925:	83 c2 61             	add    $0x61,%edx
 1001928:	89 4c 24 14          	mov    %ecx,0x14(%esp)
 100192c:	83 e6 f8             	and    $0xfffffff8,%esi
 100192f:	89 74 24 10          	mov    %esi,0x10(%esp)
 1001933:	89 54 24 0c          	mov    %edx,0xc(%esp)
 1001937:	89 5c 24 08          	mov    %ebx,0x8(%esp)
 100193b:	89 44 24 04          	mov    %eax,0x4(%esp)
 100193f:	c7 04 24 74 28 00 01 	movl   $0x1002874,(%esp)
 1001946:	e8 61 ec ff ff       	call   10005ac <sim_printf>
 100194b:	83 c4 18             	add    $0x18,%esp
 100194e:	5b                   	pop    %ebx
 100194f:	5e                   	pop    %esi
 1001950:	5d                   	pop    %ebp
 1001951:	c3                   	ret    

01001952 <mm_checkheap>:
 1001952:	55                   	push   %ebp
 1001953:	89 e5                	mov    %esp,%ebp
 1001955:	57                   	push   %edi
 1001956:	56                   	push   %esi
 1001957:	53                   	push   %ebx
 1001958:	83 ec 08             	sub    $0x8,%esp
 100195b:	8b 7d 08             	mov    0x8(%ebp),%edi
 100195e:	85 ff                	test   %edi,%edi
 1001960:	74 15                	je     1001977 <mm_checkheap+0x25>
 1001962:	a1 3c 39 00 01       	mov    0x100393c,%eax
 1001967:	89 44 24 04          	mov    %eax,0x4(%esp)
 100196b:	c7 04 24 a2 28 00 01 	movl   $0x10028a2,(%esp)
 1001972:	e8 35 ec ff ff       	call   10005ac <sim_printf>
 1001977:	a1 3c 39 00 01       	mov    0x100393c,%eax
 100197c:	8b 40 fc             	mov    -0x4(%eax),%eax
 100197f:	83 e0 f9             	and    $0xfffffff9,%eax
 1001982:	83 f8 09             	cmp    $0x9,%eax
 1001985:	74 0c                	je     1001993 <mm_checkheap+0x41>
 1001987:	c7 04 24 ae 28 00 01 	movl   $0x10028ae,(%esp)
 100198e:	e8 19 ec ff ff       	call   10005ac <sim_printf>
 1001993:	a1 3c 39 00 01       	mov    0x100393c,%eax
 1001998:	e8 06 ff ff ff       	call   10018a3 <checkblock>
 100199d:	8b 35 3c 39 00 01    	mov    0x100393c,%esi
 10019a3:	8d 5e fc             	lea    -0x4(%esi),%ebx
 10019a6:	f7 03 f8 ff ff ff    	testl  $0xfffffff8,(%ebx)
 10019ac:	7e 24                	jle    10019d2 <mm_checkheap+0x80>
 10019ae:	85 ff                	test   %edi,%edi
 10019b0:	74 07                	je     10019b9 <mm_checkheap+0x67>
 10019b2:	89 f0                	mov    %esi,%eax
 10019b4:	e8 27 ff ff ff       	call   10018e0 <printblock>
 10019b9:	89 f0                	mov    %esi,%eax
 10019bb:	e8 e3 fe ff ff       	call   10018a3 <checkblock>
 10019c0:	8b 03                	mov    (%ebx),%eax
 10019c2:	83 e0 f8             	and    $0xfffffff8,%eax
 10019c5:	01 c6                	add    %eax,%esi
 10019c7:	8d 5e fc             	lea    -0x4(%esi),%ebx
 10019ca:	f7 03 f8 ff ff ff    	testl  $0xfffffff8,(%ebx)
 10019d0:	7f dc                	jg     10019ae <mm_checkheap+0x5c>
 10019d2:	85 ff                	test   %edi,%edi
 10019d4:	74 07                	je     10019dd <mm_checkheap+0x8b>
 10019d6:	89 f0                	mov    %esi,%eax
 10019d8:	e8 03 ff ff ff       	call   10018e0 <printblock>
 10019dd:	8b 03                	mov    (%ebx),%eax
 10019df:	83 e0 f9             	and    $0xfffffff9,%eax
 10019e2:	83 f8 01             	cmp    $0x1,%eax
 10019e5:	74 0c                	je     10019f3 <mm_checkheap+0xa1>
 10019e7:	c7 04 24 c3 28 00 01 	movl   $0x10028c3,(%esp)
 10019ee:	e8 b9 eb ff ff       	call   10005ac <sim_printf>
 10019f3:	83 c4 08             	add    $0x8,%esp
 10019f6:	5b                   	pop    %ebx
 10019f7:	5e                   	pop    %esi
 10019f8:	5f                   	pop    %edi
 10019f9:	5d                   	pop    %ebp
 10019fa:	c3                   	ret    

010019fb <extend_heap>:
 10019fb:	55                   	push   %ebp
 10019fc:	89 e5                	mov    %esp,%ebp
 10019fe:	53                   	push   %ebx
 10019ff:	83 ec 04             	sub    $0x4,%esp
 1001a02:	8d 1c 85 04 00 00 00 	lea    0x4(,%eax,4),%ebx
 1001a09:	a8 01                	test   $0x1,%al
 1001a0b:	75 07                	jne    1001a14 <extend_heap+0x19>
 1001a0d:	8d 1c 85 00 00 00 00 	lea    0x0(,%eax,4),%ebx
 1001a14:	89 1c 24             	mov    %ebx,(%esp)
 1001a17:	e8 94 01 00 00       	call   1001bb0 <mem_sbrk>
 1001a1c:	ba 00 00 00 00       	mov    $0x0,%edx
 1001a21:	85 c0                	test   %eax,%eax
 1001a23:	74 22                	je     1001a47 <extend_heap+0x4c>
 1001a25:	8d 50 fc             	lea    -0x4(%eax),%edx
 1001a28:	89 1a                	mov    %ebx,(%edx)
 1001a2a:	89 d9                	mov    %ebx,%ecx
 1001a2c:	83 e1 f8             	and    $0xfffffff8,%ecx
 1001a2f:	89 5c 08 f8          	mov    %ebx,-0x8(%eax,%ecx,1)
 1001a33:	8b 12                	mov    (%edx),%edx
 1001a35:	83 e2 f8             	and    $0xfffffff8,%edx
 1001a38:	c7 44 10 fc 01 00 00 	movl   $0x1,-0x4(%eax,%edx,1)
 1001a3f:	00 
 1001a40:	e8 2f fd ff ff       	call   1001774 <coalesce>
 1001a45:	89 c2                	mov    %eax,%edx
 1001a47:	89 d0                	mov    %edx,%eax
 1001a49:	83 c4 04             	add    $0x4,%esp
 1001a4c:	5b                   	pop    %ebx
 1001a4d:	5d                   	pop    %ebp
 1001a4e:	c3                   	ret    

01001a4f <mm_malloc>:
 1001a4f:	55                   	push   %ebp
 1001a50:	89 e5                	mov    %esp,%ebp
 1001a52:	56                   	push   %esi
 1001a53:	53                   	push   %ebx
 1001a54:	8b 45 08             	mov    0x8(%ebp),%eax
 1001a57:	85 c0                	test   %eax,%eax
 1001a59:	0f 8e 7f 00 00 00    	jle    1001ade <mm_malloc+0x8f>
 1001a5f:	bb 10 00 00 00       	mov    $0x10,%ebx
 1001a64:	83 f8 08             	cmp    $0x8,%eax
 1001a67:	7e 0c                	jle    1001a75 <mm_malloc+0x26>
 1001a69:	8d 58 16             	lea    0x16(%eax),%ebx
 1001a6c:	83 c0 0f             	add    $0xf,%eax
 1001a6f:	0f 49 d8             	cmovns %eax,%ebx
 1001a72:	83 e3 f8             	and    $0xfffffff8,%ebx
 1001a75:	8b 35 3c 39 00 01    	mov    0x100393c,%esi
 1001a7b:	8b 46 fc             	mov    -0x4(%esi),%eax
 1001a7e:	89 c2                	mov    %eax,%edx
 1001a80:	83 e2 f8             	and    $0xfffffff8,%edx
 1001a83:	7e 2a                	jle    1001aaf <mm_malloc+0x60>
 1001a85:	a8 01                	test   $0x1,%al
 1001a87:	75 04                	jne    1001a8d <mm_malloc+0x3e>
 1001a89:	39 d3                	cmp    %edx,%ebx
 1001a8b:	7e 11                	jle    1001a9e <mm_malloc+0x4f>
 1001a8d:	83 e0 f8             	and    $0xfffffff8,%eax
 1001a90:	01 c6                	add    %eax,%esi
 1001a92:	8b 46 fc             	mov    -0x4(%esi),%eax
 1001a95:	89 c2                	mov    %eax,%edx
 1001a97:	83 e2 f8             	and    $0xfffffff8,%edx
 1001a9a:	7f e9                	jg     1001a85 <mm_malloc+0x36>
 1001a9c:	eb 11                	jmp    1001aaf <mm_malloc+0x60>
 1001a9e:	85 f6                	test   %esi,%esi
 1001aa0:	74 0d                	je     1001aaf <mm_malloc+0x60>
 1001aa2:	89 da                	mov    %ebx,%edx
 1001aa4:	89 f0                	mov    %esi,%eax
 1001aa6:	e8 65 fc ff ff       	call   1001710 <place>
 1001aab:	89 f0                	mov    %esi,%eax
 1001aad:	eb 34                	jmp    1001ae3 <mm_malloc+0x94>
 1001aaf:	81 fb 00 10 00 00    	cmp    $0x1000,%ebx
 1001ab5:	b8 00 10 00 00       	mov    $0x1000,%eax
 1001aba:	0f 4d c3             	cmovge %ebx,%eax
 1001abd:	8d 50 03             	lea    0x3(%eax),%edx
 1001ac0:	85 c0                	test   %eax,%eax
 1001ac2:	0f 48 c2             	cmovs  %edx,%eax
 1001ac5:	c1 f8 02             	sar    $0x2,%eax
 1001ac8:	e8 2e ff ff ff       	call   10019fb <extend_heap>
 1001acd:	89 c6                	mov    %eax,%esi
 1001acf:	85 c0                	test   %eax,%eax
 1001ad1:	74 0b                	je     1001ade <mm_malloc+0x8f>
 1001ad3:	89 da                	mov    %ebx,%edx
 1001ad5:	e8 36 fc ff ff       	call   1001710 <place>
 1001ada:	89 f0                	mov    %esi,%eax
 1001adc:	eb 05                	jmp    1001ae3 <mm_malloc+0x94>
 1001ade:	b8 00 00 00 00       	mov    $0x0,%eax
 1001ae3:	5b                   	pop    %ebx
 1001ae4:	5e                   	pop    %esi
 1001ae5:	5d                   	pop    %ebp
 1001ae6:	c3                   	ret    

01001ae7 <mm_realloc>:
 1001ae7:	55                   	push   %ebp
 1001ae8:	89 e5                	mov    %esp,%ebp
 1001aea:	83 ec 18             	sub    $0x18,%esp
 1001aed:	89 5d f4             	mov    %ebx,-0xc(%ebp)
 1001af0:	89 75 f8             	mov    %esi,-0x8(%ebp)
 1001af3:	89 7d fc             	mov    %edi,-0x4(%ebp)
 1001af6:	8b 75 08             	mov    0x8(%ebp),%esi
 1001af9:	8b 7d 0c             	mov    0xc(%ebp),%edi
 1001afc:	89 3c 24             	mov    %edi,(%esp)
 1001aff:	e8 4b ff ff ff       	call   1001a4f <mm_malloc>
 1001b04:	89 c3                	mov    %eax,%ebx
 1001b06:	b8 00 00 00 00       	mov    $0x0,%eax
 1001b0b:	85 db                	test   %ebx,%ebx
 1001b0d:	74 2b                	je     1001b3a <mm_realloc+0x53>
 1001b0f:	89 d8                	mov    %ebx,%eax
 1001b11:	85 f6                	test   %esi,%esi
 1001b13:	74 25                	je     1001b3a <mm_realloc+0x53>
 1001b15:	8b 46 fc             	mov    -0x4(%esi),%eax
 1001b18:	83 e0 f8             	and    $0xfffffff8,%eax
 1001b1b:	39 f8                	cmp    %edi,%eax
 1001b1d:	0f 47 c7             	cmova  %edi,%eax
 1001b20:	89 44 24 08          	mov    %eax,0x8(%esp)
 1001b24:	89 74 24 04          	mov    %esi,0x4(%esp)
 1001b28:	89 1c 24             	mov    %ebx,(%esp)
 1001b2b:	e8 98 02 00 00       	call   1001dc8 <memcpy>
 1001b30:	89 34 24             	mov    %esi,(%esp)
 1001b33:	e8 4c fd ff ff       	call   1001884 <mm_free>
 1001b38:	89 d8                	mov    %ebx,%eax
 1001b3a:	8b 5d f4             	mov    -0xc(%ebp),%ebx
 1001b3d:	8b 75 f8             	mov    -0x8(%ebp),%esi
 1001b40:	8b 7d fc             	mov    -0x4(%ebp),%edi
 1001b43:	89 ec                	mov    %ebp,%esp
 1001b45:	5d                   	pop    %ebp
 1001b46:	c3                   	ret    

01001b47 <mm_init>:
 1001b47:	55                   	push   %ebp
 1001b48:	89 e5                	mov    %esp,%ebp
 1001b4a:	83 ec 04             	sub    $0x4,%esp
 1001b4d:	c7 04 24 ff ff ff ff 	movl   $0xffffffff,(%esp)
 1001b54:	e8 c8 00 00 00       	call   1001c21 <mem_init>
 1001b59:	c7 04 24 10 00 00 00 	movl   $0x10,(%esp)
 1001b60:	e8 4b 00 00 00       	call   1001bb0 <mem_sbrk>
 1001b65:	a3 3c 39 00 01       	mov    %eax,0x100393c
 1001b6a:	85 c0                	test   %eax,%eax
 1001b6c:	74 38                	je     1001ba6 <mm_init+0x5f>
 1001b6e:	c7 00 00 00 00 00    	movl   $0x0,(%eax)
 1001b74:	c7 40 04 09 00 00 00 	movl   $0x9,0x4(%eax)
 1001b7b:	c7 40 08 09 00 00 00 	movl   $0x9,0x8(%eax)
 1001b82:	c7 40 0c 01 00 00 00 	movl   $0x1,0xc(%eax)
 1001b89:	83 c0 08             	add    $0x8,%eax
 1001b8c:	a3 3c 39 00 01       	mov    %eax,0x100393c
 1001b91:	b8 00 04 00 00       	mov    $0x400,%eax
 1001b96:	e8 60 fe ff ff       	call   10019fb <extend_heap>
 1001b9b:	89 c2                	mov    %eax,%edx
 1001b9d:	b8 00 00 00 00       	mov    $0x0,%eax
 1001ba2:	85 d2                	test   %edx,%edx
 1001ba4:	75 05                	jne    1001bab <mm_init+0x64>
 1001ba6:	b8 ff ff ff ff       	mov    $0xffffffff,%eax
 1001bab:	c9                   	leave  
 1001bac:	c3                   	ret    
 1001bad:	90                   	nop
 1001bae:	90                   	nop
 1001baf:	90                   	nop

01001bb0 <mem_sbrk>:
 1001bb0:	55                   	push   %ebp
 1001bb1:	89 e5                	mov    %esp,%ebp
 1001bb3:	83 ec 14             	sub    $0x14,%esp
 1001bb6:	89 5d f4             	mov    %ebx,-0xc(%ebp)
 1001bb9:	89 75 f8             	mov    %esi,-0x8(%ebp)
 1001bbc:	89 7d fc             	mov    %edi,-0x4(%ebp)
 1001bbf:	8b 75 08             	mov    0x8(%ebp),%esi
 1001bc2:	8b 1d 44 39 00 01    	mov    0x1003944,%ebx
 1001bc8:	85 f6                	test   %esi,%esi
 1001bca:	78 43                	js     1001c0f <mem_sbrk+0x5f>
 1001bcc:	8d 04 33             	lea    (%ebx,%esi,1),%eax
 1001bcf:	3b 05 40 39 00 01    	cmp    0x1003940,%eax
 1001bd5:	77 38                	ja     1001c0f <mem_sbrk+0x5f>
 1001bd7:	8b 15 48 39 00 01    	mov    0x1003948,%edx
 1001bdd:	39 d0                	cmp    %edx,%eax
 1001bdf:	76 24                	jbe    1001c05 <mem_sbrk+0x55>
 1001be1:	29 d0                	sub    %edx,%eax
 1001be3:	8d b8 ff 0f 00 00    	lea    0xfff(%eax),%edi
 1001be9:	81 e7 00 f0 ff ff    	and    $0xfffff000,%edi
 1001bef:	89 7c 24 04          	mov    %edi,0x4(%esp)
 1001bf3:	89 14 24             	mov    %edx,(%esp)
 1001bf6:	e8 29 01 00 00       	call   1001d24 <new_pages>
 1001bfb:	85 c0                	test   %eax,%eax
 1001bfd:	75 10                	jne    1001c0f <mem_sbrk+0x5f>
 1001bff:	01 3d 48 39 00 01    	add    %edi,0x1003948
 1001c05:	01 35 44 39 00 01    	add    %esi,0x1003944
 1001c0b:	89 d8                	mov    %ebx,%eax
 1001c0d:	eb 05                	jmp    1001c14 <mem_sbrk+0x64>
 1001c0f:	b8 00 00 00 00       	mov    $0x0,%eax
 1001c14:	8b 5d f4             	mov    -0xc(%ebp),%ebx
 1001c17:	8b 75 f8             	mov    -0x8(%ebp),%esi
 1001c1a:	8b 7d fc             	mov    -0x4(%ebp),%edi
 1001c1d:	89 ec                	mov    %ebp,%esp
 1001c1f:	5d                   	pop    %ebp
 1001c20:	c3                   	ret    

01001c21 <mem_init>:
 1001c21:	55                   	push   %ebp
 1001c22:	89 e5                	mov    %esp,%ebp
 1001c24:	83 ec 08             	sub    $0x8,%esp
 1001c27:	8b 45 08             	mov    0x8(%ebp),%eax
 1001c2a:	a3 40 39 00 01       	mov    %eax,0x1003940
 1001c2f:	b8 4c 49 00 01       	mov    $0x100494c,%eax
 1001c34:	25 00 f0 ff ff       	and    $0xfffff000,%eax
 1001c39:	a3 44 39 00 01       	mov    %eax,0x1003944
 1001c3e:	eb 0a                	jmp    1001c4a <mem_init+0x29>
 1001c40:	81 05 44 39 00 01 00 	addl   $0x1000,0x1003944
 1001c47:	10 00 00 
 1001c4a:	c7 44 24 04 00 10 00 	movl   $0x1000,0x4(%esp)
 1001c51:	00 
 1001c52:	a1 44 39 00 01       	mov    0x1003944,%eax
 1001c57:	89 04 24             	mov    %eax,(%esp)
 1001c5a:	e8 c5 00 00 00       	call   1001d24 <new_pages>
 1001c5f:	85 c0                	test   %eax,%eax
 1001c61:	75 dd                	jne    1001c40 <mem_init+0x1f>
 1001c63:	a1 44 39 00 01       	mov    0x1003944,%eax
 1001c68:	05 00 10 00 00       	add    $0x1000,%eax
 1001c6d:	a3 48 39 00 01       	mov    %eax,0x1003948
 1001c72:	c9                   	leave  
 1001c73:	c3                   	ret    

01001c74 <exec>:
 1001c74:	55                   	push   %ebp
 1001c75:	89 e5                	mov    %esp,%ebp
 1001c77:	b8 ff ff ff ff       	mov    $0xffffffff,%eax
 1001c7c:	5d                   	pop    %ebp
 1001c7d:	c3                   	ret    

01001c7e <set_status>:
 1001c7e:	55                   	push   %ebp
 1001c7f:	89 e5                	mov    %esp,%ebp
 1001c81:	5d                   	pop    %ebp
 1001c82:	c3                   	ret    

01001c83 <wait>:
 1001c83:	55                   	push   %ebp
 1001c84:	89 e5                	mov    %esp,%ebp
 1001c86:	b8 ff ff ff ff       	mov    $0xffffffff,%eax
 1001c8b:	5d                   	pop    %ebp
 1001c8c:	c3                   	ret    

01001c8d <yield>:
 1001c8d:	55                   	push   %ebp
 1001c8e:	89 e5                	mov    %esp,%ebp
 1001c90:	b8 ff ff ff ff       	mov    $0xffffffff,%eax
 1001c95:	5d                   	pop    %ebp
 1001c96:	c3                   	ret    

01001c97 <deschedule>:
 1001c97:	55                   	push   %ebp
 1001c98:	89 e5                	mov    %esp,%ebp
 1001c9a:	b8 ff ff ff ff       	mov    $0xffffffff,%eax
 1001c9f:	5d                   	pop    %ebp
 1001ca0:	c3                   	ret    

01001ca1 <make_runnable>:
 1001ca1:	55                   	push   %ebp
 1001ca2:	89 e5                	mov    %esp,%ebp
 1001ca4:	b8 ff ff ff ff       	mov    $0xffffffff,%eax
 1001ca9:	5d                   	pop    %ebp
 1001caa:	c3                   	ret    

01001cab <gettid>:
 1001cab:	55                   	push   %ebp
 1001cac:	89 e5                	mov    %esp,%ebp
 1001cae:	b8 ff ff ff ff       	mov    $0xffffffff,%eax
 1001cb3:	5d                   	pop    %ebp
 1001cb4:	c3                   	ret    

01001cb5 <swexn>:
 1001cb5:	55                   	push   %ebp
 1001cb6:	89 e5                	mov    %esp,%ebp
 1001cb8:	b8 00 00 00 00       	mov    $0x0,%eax
 1001cbd:	5d                   	pop    %ebp
 1001cbe:	c3                   	ret    

01001cbf <getchar>:
 1001cbf:	55                   	push   %ebp
 1001cc0:	89 e5                	mov    %esp,%ebp
 1001cc2:	b8 ff ff ff ff       	mov    $0xffffffff,%eax
 1001cc7:	5d                   	pop    %ebp
 1001cc8:	c3                   	ret    

01001cc9 <readline>:
 1001cc9:	55                   	push   %ebp
 1001cca:	89 e5                	mov    %esp,%ebp
 1001ccc:	b8 ff ff ff ff       	mov    $0xffffffff,%eax
 1001cd1:	5d                   	pop    %ebp
 1001cd2:	c3                   	ret    

01001cd3 <print>:
 1001cd3:	55                   	push   %ebp
 1001cd4:	89 e5                	mov    %esp,%ebp
 1001cd6:	b8 ff ff ff ff       	mov    $0xffffffff,%eax
 1001cdb:	5d                   	pop    %ebp
 1001cdc:	c3                   	ret    

01001cdd <set_term_color>:
 1001cdd:	55                   	push   %ebp
 1001cde:	89 e5                	mov    %esp,%ebp
 1001ce0:	b8 ff ff ff ff       	mov    $0xffffffff,%eax
 1001ce5:	5d                   	pop    %ebp
 1001ce6:	c3                   	ret    

01001ce7 <get_cursor_pos>:
 1001ce7:	55                   	push   %ebp
 1001ce8:	89 e5                	mov    %esp,%ebp
 1001cea:	b8 ff ff ff ff       	mov    $0xffffffff,%eax
 1001cef:	5d                   	pop    %ebp
 1001cf0:	c3                   	ret    

01001cf1 <set_cursor_pos>:
 1001cf1:	55                   	push   %ebp
 1001cf2:	89 e5                	mov    %esp,%ebp
 1001cf4:	b8 ff ff ff ff       	mov    $0xffffffff,%eax
 1001cf9:	5d                   	pop    %ebp
 1001cfa:	c3                   	ret    

01001cfb <halt>:
 1001cfb:	55                   	push   %ebp
 1001cfc:	89 e5                	mov    %esp,%ebp
 1001cfe:	eb fe                	jmp    1001cfe <halt+0x3>

01001d00 <readfile>:
 1001d00:	55                   	push   %ebp
 1001d01:	89 e5                	mov    %esp,%ebp
 1001d03:	b8 ff ff ff ff       	mov    $0xffffffff,%eax
 1001d08:	5d                   	pop    %ebp
 1001d09:	c3                   	ret    

01001d0a <task_vanish>:
 1001d0a:	55                   	push   %ebp
 1001d0b:	89 e5                	mov    %esp,%ebp
 1001d0d:	eb fe                	jmp    1001d0d <task_vanish+0x3>

01001d0f <remove_pages>:
 1001d0f:	55                   	push   %ebp
 1001d10:	89 e5                	mov    %esp,%ebp
 1001d12:	b8 ff ff ff ff       	mov    $0xffffffff,%eax
 1001d17:	5d                   	pop    %ebp
 1001d18:	c3                   	ret    

01001d19 <misbehave>:
 1001d19:	55                   	push   %ebp
 1001d1a:	89 e5                	mov    %esp,%ebp
 1001d1c:	5d                   	pop    %ebp
 1001d1d:	c3                   	ret    
 1001d1e:	90                   	nop
 1001d1f:	90                   	nop

01001d20 <vanish>:
 1001d20:	cd 60                	int    $0x60
 1001d22:	c3                   	ret    
 1001d23:	90                   	nop

01001d24 <new_pages>:
 1001d24:	56                   	push   %esi
 1001d25:	89 e6                	mov    %esp,%esi
 1001d27:	83 c6 08             	add    $0x8,%esi
 1001d2a:	cd 49                	int    $0x49
 1001d2c:	5e                   	pop    %esi
 1001d2d:	c3                   	ret    
 1001d2e:	90                   	nop
 1001d2f:	90                   	nop

01001d30 <install_autostack>:
 1001d30:	55                   	push   %ebp
 1001d31:	89 e5                	mov    %esp,%ebp
 1001d33:	83 ec 18             	sub    $0x18,%esp
 1001d36:	89 5d f8             	mov    %ebx,-0x8(%ebp)
 1001d39:	89 75 fc             	mov    %esi,-0x4(%ebp)
 1001d3c:	8b 5d 08             	mov    0x8(%ebp),%ebx
 1001d3f:	8b 75 0c             	mov    0xc(%ebp),%esi
 1001d42:	89 74 24 0c          	mov    %esi,0xc(%esp)
 1001d46:	89 5c 24 08          	mov    %ebx,0x8(%esp)
 1001d4a:	c7 44 24 04 04 29 00 	movl   $0x1002904,0x4(%esp)
 1001d51:	01 
 1001d52:	c7 04 24 d8 28 00 01 	movl   $0x10028d8,(%esp)
 1001d59:	e8 4e e8 ff ff       	call   10005ac <sim_printf>
 1001d5e:	89 1c 24             	mov    %ebx,(%esp)
 1001d61:	e8 52 e3 ff ff       	call   10000b8 <thr_set_main_stackH>
 1001d66:	89 34 24             	mov    %esi,(%esp)
 1001d69:	e8 57 e3 ff ff       	call   10000c5 <thr_set_main_stackL>
 1001d6e:	8b 5d f8             	mov    -0x8(%ebp),%ebx
 1001d71:	8b 75 fc             	mov    -0x4(%ebp),%esi
 1001d74:	89 ec                	mov    %ebp,%esp
 1001d76:	5d                   	pop    %ebp
 1001d77:	c3                   	ret    

01001d78 <bcopy>:
 1001d78:	55                   	push   %ebp
 1001d79:	89 e5                	mov    %esp,%ebp
 1001d7b:	57                   	push   %edi
 1001d7c:	56                   	push   %esi
 1001d7d:	8b 75 08             	mov    0x8(%ebp),%esi
 1001d80:	8b 7d 0c             	mov    0xc(%ebp),%edi

01001d83 <bcopy_common>:
 1001d83:	8b 55 10             	mov    0x10(%ebp),%edx
 1001d86:	8d 04 16             	lea    (%esi,%edx,1),%eax
 1001d89:	39 c7                	cmp    %eax,%edi
 1001d8b:	73 20                	jae    1001dad <bcopy_common+0x2a>
 1001d8d:	8d 04 17             	lea    (%edi,%edx,1),%eax
 1001d90:	39 c6                	cmp    %eax,%esi
 1001d92:	73 19                	jae    1001dad <bcopy_common+0x2a>
 1001d94:	39 f7                	cmp    %esi,%edi
 1001d96:	72 15                	jb     1001dad <bcopy_common+0x2a>
 1001d98:	74 0c                	je     1001da6 <bcopy_common+0x23>
 1001d9a:	01 d6                	add    %edx,%esi
 1001d9c:	4e                   	dec    %esi
 1001d9d:	01 d7                	add    %edx,%edi
 1001d9f:	4f                   	dec    %edi
 1001da0:	fd                   	std    
 1001da1:	89 d1                	mov    %edx,%ecx
 1001da3:	f3 a4                	rep movsb %ds:(%esi),%es:(%edi)
 1001da5:	fc                   	cld    
 1001da6:	8b 45 08             	mov    0x8(%ebp),%eax
 1001da9:	5e                   	pop    %esi
 1001daa:	5f                   	pop    %edi
 1001dab:	c9                   	leave  
 1001dac:	c3                   	ret    
 1001dad:	fc                   	cld    
 1001dae:	89 d1                	mov    %edx,%ecx
 1001db0:	c1 f9 02             	sar    $0x2,%ecx
 1001db3:	78 09                	js     1001dbe <bcopy_common+0x3b>
 1001db5:	f3 a5                	rep movsl %ds:(%esi),%es:(%edi)
 1001db7:	89 d1                	mov    %edx,%ecx
 1001db9:	83 e1 03             	and    $0x3,%ecx
 1001dbc:	f3 a4                	rep movsb %ds:(%esi),%es:(%edi)
 1001dbe:	8b 45 08             	mov    0x8(%ebp),%eax
 1001dc1:	5e                   	pop    %esi
 1001dc2:	5f                   	pop    %edi
 1001dc3:	c9                   	leave  
 1001dc4:	c3                   	ret    
 1001dc5:	8d 76 00             	lea    0x0(%esi),%esi

01001dc8 <memcpy>:
 1001dc8:	55                   	push   %ebp
 1001dc9:	89 e5                	mov    %esp,%ebp
 1001dcb:	57                   	push   %edi
 1001dcc:	56                   	push   %esi
 1001dcd:	8b 7d 08             	mov    0x8(%ebp),%edi
 1001dd0:	8b 75 0c             	mov    0xc(%ebp),%esi
 1001dd3:	eb ae                	jmp    1001d83 <bcopy_common>
 1001dd5:	90                   	nop
 1001dd6:	90                   	nop
 1001dd7:	90                   	nop

01001dd8 <bzero>:
 1001dd8:	57                   	push   %edi
 1001dd9:	8b 7c 24 08          	mov    0x8(%esp),%edi
 1001ddd:	8b 54 24 0c          	mov    0xc(%esp),%edx
 1001de1:	fc                   	cld    
 1001de2:	31 c0                	xor    %eax,%eax
 1001de4:	83 fa 10             	cmp    $0x10,%edx
 1001de7:	72 15                	jb     1001dfe <L1>
 1001de9:	89 f9                	mov    %edi,%ecx
 1001deb:	f7 d9                	neg    %ecx
 1001ded:	83 e1 03             	and    $0x3,%ecx
 1001df0:	29 ca                	sub    %ecx,%edx
 1001df2:	f3 aa                	rep stos %al,%es:(%edi)
 1001df4:	89 d1                	mov    %edx,%ecx
 1001df6:	c1 e9 02             	shr    $0x2,%ecx
 1001df9:	83 e2 03             	and    $0x3,%edx
 1001dfc:	f3 ab                	rep stos %eax,%es:(%edi)

01001dfe <L1>:
 1001dfe:	89 d1                	mov    %edx,%ecx
 1001e00:	f3 aa                	rep stos %al,%es:(%edi)
 1001e02:	5f                   	pop    %edi
 1001e03:	c3                   	ret    
 1001e04:	90                   	nop
 1001e05:	90                   	nop
 1001e06:	90                   	nop
 1001e07:	90                   	nop
 1001e08:	90                   	nop
 1001e09:	90                   	nop
 1001e0a:	90                   	nop
 1001e0b:	90                   	nop
 1001e0c:	90                   	nop
 1001e0d:	90                   	nop
 1001e0e:	90                   	nop
 1001e0f:	90                   	nop

01001e10 <shl>:
 1001e10:	55                   	push   %ebp
 1001e11:	89 e5                	mov    %esp,%ebp
 1001e13:	57                   	push   %edi
 1001e14:	56                   	push   %esi
 1001e15:	53                   	push   %ebx
 1001e16:	83 ec 0c             	sub    $0xc,%esp
 1001e19:	89 d7                	mov    %edx,%edi
 1001e1b:	89 ce                	mov    %ecx,%esi
 1001e1d:	ba 00 00 00 00       	mov    $0x0,%edx
 1001e22:	b9 00 00 00 00       	mov    $0x0,%ecx
 1001e27:	85 ff                	test   %edi,%edi
 1001e29:	7e 34                	jle    1001e5f <shl+0x4f>
 1001e2b:	b1 10                	mov    $0x10,%cl
 1001e2d:	29 f1                	sub    %esi,%ecx
 1001e2f:	89 4d f0             	mov    %ecx,-0x10(%ebp)
 1001e32:	89 7d e8             	mov    %edi,-0x18(%ebp)
 1001e35:	8b 5c 90 04          	mov    0x4(%eax,%edx,4),%ebx
 1001e39:	0f b6 4d f0          	movzbl -0x10(%ebp),%ecx
 1001e3d:	d3 eb                	shr    %cl,%ebx
 1001e3f:	8b 3c 90             	mov    (%eax,%edx,4),%edi
 1001e42:	89 f1                	mov    %esi,%ecx
 1001e44:	d3 e7                	shl    %cl,%edi
 1001e46:	89 7d ec             	mov    %edi,-0x14(%ebp)
 1001e49:	0f b7 4d ec          	movzwl -0x14(%ebp),%ecx
 1001e4d:	09 cb                	or     %ecx,%ebx
 1001e4f:	89 1c 90             	mov    %ebx,(%eax,%edx,4)
 1001e52:	83 c2 01             	add    $0x1,%edx
 1001e55:	3b 55 e8             	cmp    -0x18(%ebp),%edx
 1001e58:	75 db                	jne    1001e35 <shl+0x25>
 1001e5a:	8b 7d e8             	mov    -0x18(%ebp),%edi
 1001e5d:	89 f9                	mov    %edi,%ecx
 1001e5f:	8d 04 88             	lea    (%eax,%ecx,4),%eax
 1001e62:	8b 10                	mov    (%eax),%edx
 1001e64:	89 f1                	mov    %esi,%ecx
 1001e66:	d3 e2                	shl    %cl,%edx
 1001e68:	81 e2 ff ff 00 00    	and    $0xffff,%edx
 1001e6e:	89 10                	mov    %edx,(%eax)
 1001e70:	83 c4 0c             	add    $0xc,%esp
 1001e73:	5b                   	pop    %ebx
 1001e74:	5e                   	pop    %esi
 1001e75:	5f                   	pop    %edi
 1001e76:	5d                   	pop    %ebp
 1001e77:	c3                   	ret    

01001e78 <__qdivrem>:
 1001e78:	55                   	push   %ebp
 1001e79:	89 e5                	mov    %esp,%ebp
 1001e7b:	57                   	push   %edi
 1001e7c:	56                   	push   %esi
 1001e7d:	53                   	push   %ebx
 1001e7e:	83 ec 6c             	sub    $0x6c,%esp
 1001e81:	8b 75 08             	mov    0x8(%ebp),%esi
 1001e84:	8b 4d 0c             	mov    0xc(%ebp),%ecx
 1001e87:	8b 7d 10             	mov    0x10(%ebp),%edi
 1001e8a:	8b 45 14             	mov    0x14(%ebp),%eax
 1001e8d:	8b 5d 18             	mov    0x18(%ebp),%ebx
 1001e90:	89 c2                	mov    %eax,%edx
 1001e92:	09 fa                	or     %edi,%edx
 1001e94:	75 24                	jne    1001eba <__qdivrem+0x42>
 1001e96:	8b 3d 18 39 00 01    	mov    0x1003918,%edi
 1001e9c:	b8 01 00 00 00       	mov    $0x1,%eax
 1001ea1:	ba 00 00 00 00       	mov    $0x0,%edx
 1001ea6:	f7 f7                	div    %edi
 1001ea8:	85 db                	test   %ebx,%ebx
 1001eaa:	74 05                	je     1001eb1 <__qdivrem+0x39>
 1001eac:	89 33                	mov    %esi,(%ebx)
 1001eae:	89 4b 04             	mov    %ecx,0x4(%ebx)
 1001eb1:	89 c3                	mov    %eax,%ebx
 1001eb3:	89 da                	mov    %ebx,%edx
 1001eb5:	e9 2a 04 00 00       	jmp    10022e4 <__qdivrem+0x46c>
 1001eba:	39 c8                	cmp    %ecx,%eax
 1001ebc:	72 22                	jb     1001ee0 <__qdivrem+0x68>
 1001ebe:	77 04                	ja     1001ec4 <__qdivrem+0x4c>
 1001ec0:	39 f7                	cmp    %esi,%edi
 1001ec2:	76 1c                	jbe    1001ee0 <__qdivrem+0x68>
 1001ec4:	b8 00 00 00 00       	mov    $0x0,%eax
 1001ec9:	ba 00 00 00 00       	mov    $0x0,%edx
 1001ece:	85 db                	test   %ebx,%ebx
 1001ed0:	0f 84 0e 04 00 00    	je     10022e4 <__qdivrem+0x46c>
 1001ed6:	89 33                	mov    %esi,(%ebx)
 1001ed8:	89 4b 04             	mov    %ecx,0x4(%ebx)
 1001edb:	e9 04 04 00 00       	jmp    10022e4 <__qdivrem+0x46c>
 1001ee0:	c7 44 24 58 00 00 00 	movl   $0x0,0x58(%esp)
 1001ee7:	00 
 1001ee8:	89 ca                	mov    %ecx,%edx
 1001eea:	c1 ea 10             	shr    $0x10,%edx
 1001eed:	89 54 24 28          	mov    %edx,0x28(%esp)
 1001ef1:	89 54 24 5c          	mov    %edx,0x5c(%esp)
 1001ef5:	81 e1 ff ff 00 00    	and    $0xffff,%ecx
 1001efb:	89 4c 24 60          	mov    %ecx,0x60(%esp)
 1001eff:	89 f2                	mov    %esi,%edx
 1001f01:	c1 ea 10             	shr    $0x10,%edx
 1001f04:	89 54 24 2c          	mov    %edx,0x2c(%esp)
 1001f08:	89 54 24 64          	mov    %edx,0x64(%esp)
 1001f0c:	81 e6 ff ff 00 00    	and    $0xffff,%esi
 1001f12:	89 74 24 24          	mov    %esi,0x24(%esp)
 1001f16:	89 74 24 68          	mov    %esi,0x68(%esp)
 1001f1a:	89 c2                	mov    %eax,%edx
 1001f1c:	c1 ea 10             	shr    $0x10,%edx
 1001f1f:	89 54 24 48          	mov    %edx,0x48(%esp)
 1001f23:	25 ff ff 00 00       	and    $0xffff,%eax
 1001f28:	89 44 24 4c          	mov    %eax,0x4c(%esp)
 1001f2c:	89 f8                	mov    %edi,%eax
 1001f2e:	c1 e8 10             	shr    $0x10,%eax
 1001f31:	89 44 24 50          	mov    %eax,0x50(%esp)
 1001f35:	81 e7 ff ff 00 00    	and    $0xffff,%edi
 1001f3b:	89 7c 24 54          	mov    %edi,0x54(%esp)
 1001f3f:	85 d2                	test   %edx,%edx
 1001f41:	74 1d                	je     1001f60 <__qdivrem+0xe8>
 1001f43:	8d 4c 24 48          	lea    0x48(%esp),%ecx
 1001f47:	89 4c 24 28          	mov    %ecx,0x28(%esp)
 1001f4b:	c7 44 24 20 04 00 00 	movl   $0x4,0x20(%esp)
 1001f52:	00 
 1001f53:	8d 74 24 44          	lea    0x44(%esp),%esi
 1001f57:	89 74 24 2c          	mov    %esi,0x2c(%esp)
 1001f5b:	e9 d8 00 00 00       	jmp    1002038 <__qdivrem+0x1c0>
 1001f60:	8b 54 24 4c          	mov    0x4c(%esp),%edx
 1001f64:	85 d2                	test   %edx,%edx
 1001f66:	74 1d                	je     1001f85 <__qdivrem+0x10d>
 1001f68:	8d 7c 24 4c          	lea    0x4c(%esp),%edi
 1001f6c:	89 7c 24 28          	mov    %edi,0x28(%esp)
 1001f70:	c7 44 24 20 03 00 00 	movl   $0x3,0x20(%esp)
 1001f77:	00 
 1001f78:	8d 44 24 48          	lea    0x48(%esp),%eax
 1001f7c:	89 44 24 2c          	mov    %eax,0x2c(%esp)
 1001f80:	e9 b3 00 00 00       	jmp    1002038 <__qdivrem+0x1c0>
 1001f85:	8b 54 24 50          	mov    0x50(%esp),%edx
 1001f89:	85 d2                	test   %edx,%edx
 1001f8b:	0f 85 8f 00 00 00    	jne    1002020 <__qdivrem+0x1a8>
 1001f91:	8b 44 24 28          	mov    0x28(%esp),%eax
 1001f95:	ba 00 00 00 00       	mov    $0x0,%edx
 1001f9a:	f7 f7                	div    %edi
 1001f9c:	c1 e2 10             	shl    $0x10,%edx
 1001f9f:	09 d1                	or     %edx,%ecx
 1001fa1:	89 c8                	mov    %ecx,%eax
 1001fa3:	ba 00 00 00 00       	mov    $0x0,%edx
 1001fa8:	f7 f7                	div    %edi
 1001faa:	c1 e2 10             	shl    $0x10,%edx
 1001fad:	0b 54 24 2c          	or     0x2c(%esp),%edx
 1001fb1:	89 54 24 2c          	mov    %edx,0x2c(%esp)
 1001fb5:	89 d0                	mov    %edx,%eax
 1001fb7:	ba 00 00 00 00       	mov    $0x0,%edx
 1001fbc:	f7 f7                	div    %edi
 1001fbe:	89 d6                	mov    %edx,%esi
 1001fc0:	c1 e6 10             	shl    $0x10,%esi
 1001fc3:	0b 74 24 24          	or     0x24(%esp),%esi
 1001fc7:	85 db                	test   %ebx,%ebx
 1001fc9:	74 12                	je     1001fdd <__qdivrem+0x165>
 1001fcb:	89 f0                	mov    %esi,%eax
 1001fcd:	ba 00 00 00 00       	mov    $0x0,%edx
 1001fd2:	f7 f7                	div    %edi
 1001fd4:	89 13                	mov    %edx,(%ebx)
 1001fd6:	c7 43 04 00 00 00 00 	movl   $0x0,0x4(%ebx)
 1001fdd:	89 c8                	mov    %ecx,%eax
 1001fdf:	ba 00 00 00 00       	mov    $0x0,%edx
 1001fe4:	f7 f7                	div    %edi
 1001fe6:	89 c3                	mov    %eax,%ebx
 1001fe8:	8b 44 24 28          	mov    0x28(%esp),%eax
 1001fec:	ba 00 00 00 00       	mov    $0x0,%edx
 1001ff1:	f7 f7                	div    %edi
 1001ff3:	89 c1                	mov    %eax,%ecx
 1001ff5:	c1 e1 10             	shl    $0x10,%ecx
 1001ff8:	89 f0                	mov    %esi,%eax
 1001ffa:	ba 00 00 00 00       	mov    $0x0,%edx
 1001fff:	f7 f7                	div    %edi
 1002001:	89 c6                	mov    %eax,%esi
 1002003:	8b 44 24 2c          	mov    0x2c(%esp),%eax
 1002007:	ba 00 00 00 00       	mov    $0x0,%edx
 100200c:	f7 f7                	div    %edi
 100200e:	c1 e0 10             	shl    $0x10,%eax
 1002011:	89 f7                	mov    %esi,%edi
 1002013:	09 c7                	or     %eax,%edi
 1002015:	89 da                	mov    %ebx,%edx
 1002017:	09 ca                	or     %ecx,%edx
 1002019:	89 f8                	mov    %edi,%eax
 100201b:	e9 c4 02 00 00       	jmp    10022e4 <__qdivrem+0x46c>
 1002020:	8d 4c 24 50          	lea    0x50(%esp),%ecx
 1002024:	89 4c 24 28          	mov    %ecx,0x28(%esp)
 1002028:	c7 44 24 20 02 00 00 	movl   $0x2,0x20(%esp)
 100202f:	00 
 1002030:	8d 74 24 4c          	lea    0x4c(%esp),%esi
 1002034:	89 74 24 2c          	mov    %esi,0x2c(%esp)
 1002038:	b8 04 00 00 00       	mov    $0x4,%eax
 100203d:	2b 44 24 20          	sub    0x20(%esp),%eax
 1002041:	89 44 24 14          	mov    %eax,0x14(%esp)
 1002045:	8d 74 24 58          	lea    0x58(%esp),%esi
 1002049:	83 7c 24 5c 00       	cmpl   $0x0,0x5c(%esp)
 100204e:	75 19                	jne    1002069 <__qdivrem+0x1f1>
 1002050:	8d 74 24 5c          	lea    0x5c(%esp),%esi
 1002054:	89 c1                	mov    %eax,%ecx
 1002056:	83 e9 01             	sub    $0x1,%ecx
 1002059:	8d 46 04             	lea    0x4(%esi),%eax
 100205c:	83 38 00             	cmpl   $0x0,(%eax)
 100205f:	75 04                	jne    1002065 <__qdivrem+0x1ed>
 1002061:	89 c6                	mov    %eax,%esi
 1002063:	eb f1                	jmp    1002056 <__qdivrem+0x1de>
 1002065:	89 4c 24 14          	mov    %ecx,0x14(%esp)
 1002069:	bf 04 00 00 00       	mov    $0x4,%edi
 100206e:	2b 7c 24 14          	sub    0x14(%esp),%edi
 1002072:	89 f8                	mov    %edi,%eax
 1002074:	83 e8 01             	sub    $0x1,%eax
 1002077:	78 13                	js     100208c <__qdivrem+0x214>
 1002079:	8d 4c 24 30          	lea    0x30(%esp),%ecx
 100207d:	c7 04 81 00 00 00 00 	movl   $0x0,(%ecx,%eax,4)
 1002084:	83 e8 01             	sub    $0x1,%eax
 1002087:	83 f8 ff             	cmp    $0xffffffff,%eax
 100208a:	75 f1                	jne    100207d <__qdivrem+0x205>
 100208c:	8d 7c bc 30          	lea    0x30(%esp,%edi,4),%edi
 1002090:	89 7c 24 04          	mov    %edi,0x4(%esp)
 1002094:	c7 44 24 10 00 00 00 	movl   $0x0,0x10(%esp)
 100209b:	00 
 100209c:	81 fa ff 7f 00 00    	cmp    $0x7fff,%edx
 10020a2:	77 3e                	ja     10020e2 <__qdivrem+0x26a>
 10020a4:	8b 44 24 10          	mov    0x10(%esp),%eax
 10020a8:	83 c0 01             	add    $0x1,%eax
 10020ab:	01 d2                	add    %edx,%edx
 10020ad:	81 fa ff 7f 00 00    	cmp    $0x7fff,%edx
 10020b3:	76 f3                	jbe    10020a8 <__qdivrem+0x230>
 10020b5:	89 44 24 10          	mov    %eax,0x10(%esp)
 10020b9:	89 c7                	mov    %eax,%edi
 10020bb:	85 c0                	test   %eax,%eax
 10020bd:	7e 23                	jle    10020e2 <__qdivrem+0x26a>
 10020bf:	8b 54 24 14          	mov    0x14(%esp),%edx
 10020c3:	03 54 24 20          	add    0x20(%esp),%edx
 10020c7:	89 c1                	mov    %eax,%ecx
 10020c9:	89 f0                	mov    %esi,%eax
 10020cb:	e8 40 fd ff ff       	call   1001e10 <shl>
 10020d0:	8b 54 24 20          	mov    0x20(%esp),%edx
 10020d4:	83 ea 01             	sub    $0x1,%edx
 10020d7:	89 f9                	mov    %edi,%ecx
 10020d9:	8b 44 24 28          	mov    0x28(%esp),%eax
 10020dd:	e8 2e fd ff ff       	call   1001e10 <shl>
 10020e2:	8b 7c 24 28          	mov    0x28(%esp),%edi
 10020e6:	8b 3f                	mov    (%edi),%edi
 10020e8:	89 7c 24 18          	mov    %edi,0x18(%esp)
 10020ec:	8b 44 24 2c          	mov    0x2c(%esp),%eax
 10020f0:	8b 40 08             	mov    0x8(%eax),%eax
 10020f3:	89 44 24 08          	mov    %eax,0x8(%esp)
 10020f7:	8b 54 24 20          	mov    0x20(%esp),%edx
 10020fb:	8d 14 96             	lea    (%esi,%edx,4),%edx
 10020fe:	89 54 24 0c          	mov    %edx,0xc(%esp)
 1002102:	c7 44 24 28 00 00 00 	movl   $0x0,0x28(%esp)
 1002109:	00 
 100210a:	89 74 24 24          	mov    %esi,0x24(%esp)
 100210e:	8b 4c 24 2c          	mov    0x2c(%esp),%ecx
 1002112:	89 1c 24             	mov    %ebx,(%esp)
 1002115:	8b 5c 24 28          	mov    0x28(%esp),%ebx
 1002119:	89 5c 24 1c          	mov    %ebx,0x1c(%esp)
 100211d:	89 de                	mov    %ebx,%esi
 100211f:	8b 7c 24 24          	mov    0x24(%esp),%edi
 1002123:	8b 1c 9f             	mov    (%edi,%ebx,4),%ebx
 1002126:	8b 54 b7 04          	mov    0x4(%edi,%esi,4),%edx
 100212a:	8b 7c b7 08          	mov    0x8(%edi,%esi,4),%edi
 100212e:	3b 5c 24 18          	cmp    0x18(%esp),%ebx
 1002132:	74 12                	je     1002146 <__qdivrem+0x2ce>
 1002134:	89 d8                	mov    %ebx,%eax
 1002136:	c1 e0 10             	shl    $0x10,%eax
 1002139:	09 d0                	or     %edx,%eax
 100213b:	ba 00 00 00 00       	mov    $0x0,%edx
 1002140:	f7 74 24 18          	divl   0x18(%esp)
 1002144:	eb 14                	jmp    100215a <__qdivrem+0x2e2>
 1002146:	b8 00 00 01 00       	mov    $0x10000,%eax
 100214b:	83 e8 01             	sub    $0x1,%eax
 100214e:	03 54 24 18          	add    0x18(%esp),%edx
 1002152:	81 fa ff ff 00 00    	cmp    $0xffff,%edx
 1002158:	77 12                	ja     100216c <__qdivrem+0x2f4>
 100215a:	8b 74 24 08          	mov    0x8(%esp),%esi
 100215e:	0f af f0             	imul   %eax,%esi
 1002161:	89 d3                	mov    %edx,%ebx
 1002163:	c1 e3 10             	shl    $0x10,%ebx
 1002166:	09 fb                	or     %edi,%ebx
 1002168:	39 de                	cmp    %ebx,%esi
 100216a:	77 df                	ja     100214b <__qdivrem+0x2d3>
 100216c:	be 00 00 00 00       	mov    $0x0,%esi
 1002171:	83 7c 24 20 00       	cmpl   $0x0,0x20(%esp)
 1002176:	7e 44                	jle    10021bc <__qdivrem+0x344>
 1002178:	8b 5c 24 0c          	mov    0xc(%esp),%ebx
 100217c:	8b 54 24 20          	mov    0x20(%esp),%edx
 1002180:	89 44 24 2c          	mov    %eax,0x2c(%esp)
 1002184:	8b 7c 24 2c          	mov    0x2c(%esp),%edi
 1002188:	0f af 3c 91          	imul   (%ecx,%edx,4),%edi
 100218c:	8b 03                	mov    (%ebx),%eax
 100218e:	29 f8                	sub    %edi,%eax
 1002190:	89 c7                	mov    %eax,%edi
 1002192:	29 f7                	sub    %esi,%edi
 1002194:	89 fe                	mov    %edi,%esi
 1002196:	81 e7 ff ff 00 00    	and    $0xffff,%edi
 100219c:	89 3b                	mov    %edi,(%ebx)
 100219e:	c1 ee 10             	shr    $0x10,%esi
 10021a1:	bf 00 00 01 00       	mov    $0x10000,%edi
 10021a6:	29 f7                	sub    %esi,%edi
 10021a8:	89 fe                	mov    %edi,%esi
 10021aa:	81 e6 ff ff 00 00    	and    $0xffff,%esi
 10021b0:	83 eb 04             	sub    $0x4,%ebx
 10021b3:	83 ea 01             	sub    $0x1,%edx
 10021b6:	75 cc                	jne    1002184 <__qdivrem+0x30c>
 10021b8:	8b 44 24 2c          	mov    0x2c(%esp),%eax
 10021bc:	8b 5c 24 1c          	mov    0x1c(%esp),%ebx
 10021c0:	8b 7c 24 24          	mov    0x24(%esp),%edi
 10021c4:	8b 14 9f             	mov    (%edi,%ebx,4),%edx
 10021c7:	29 f2                	sub    %esi,%edx
 10021c9:	0f b7 da             	movzwl %dx,%ebx
 10021cc:	8b 74 24 1c          	mov    0x1c(%esp),%esi
 10021d0:	89 1c b7             	mov    %ebx,(%edi,%esi,4)
 10021d3:	c1 ea 10             	shr    $0x10,%edx
 10021d6:	85 d2                	test   %edx,%edx
 10021d8:	74 48                	je     1002222 <__qdivrem+0x3aa>
 10021da:	be 00 00 00 00       	mov    $0x0,%esi
 10021df:	83 7c 24 20 00       	cmpl   $0x0,0x20(%esp)
 10021e4:	7e 25                	jle    100220b <__qdivrem+0x393>
 10021e6:	8b 5c 24 0c          	mov    0xc(%esp),%ebx
 10021ea:	8b 54 24 20          	mov    0x20(%esp),%edx
 10021ee:	89 c7                	mov    %eax,%edi
 10021f0:	89 f0                	mov    %esi,%eax
 10021f2:	03 04 91             	add    (%ecx,%edx,4),%eax
 10021f5:	03 03                	add    (%ebx),%eax
 10021f7:	0f b7 f0             	movzwl %ax,%esi
 10021fa:	89 33                	mov    %esi,(%ebx)
 10021fc:	c1 e8 10             	shr    $0x10,%eax
 10021ff:	83 eb 04             	sub    $0x4,%ebx
 1002202:	83 ea 01             	sub    $0x1,%edx
 1002205:	75 eb                	jne    10021f2 <__qdivrem+0x37a>
 1002207:	89 c6                	mov    %eax,%esi
 1002209:	89 f8                	mov    %edi,%eax
 100220b:	83 e8 01             	sub    $0x1,%eax
 100220e:	8b 7c 24 1c          	mov    0x1c(%esp),%edi
 1002212:	8b 54 24 24          	mov    0x24(%esp),%edx
 1002216:	03 34 ba             	add    (%edx,%edi,4),%esi
 1002219:	81 e6 ff ff 00 00    	and    $0xffff,%esi
 100221f:	89 34 ba             	mov    %esi,(%edx,%edi,4)
 1002222:	8b 5c 24 1c          	mov    0x1c(%esp),%ebx
 1002226:	8b 74 24 04          	mov    0x4(%esp),%esi
 100222a:	89 04 9e             	mov    %eax,(%esi,%ebx,4)
 100222d:	83 44 24 28 01       	addl   $0x1,0x28(%esp)
 1002232:	83 44 24 0c 04       	addl   $0x4,0xc(%esp)
 1002237:	8b 7c 24 14          	mov    0x14(%esp),%edi
 100223b:	39 7c 24 28          	cmp    %edi,0x28(%esp)
 100223f:	0f 8e d0 fe ff ff    	jle    1002115 <__qdivrem+0x29d>
 1002245:	8b 74 24 24          	mov    0x24(%esp),%esi
 1002249:	8b 1c 24             	mov    (%esp),%ebx
 100224c:	85 db                	test   %ebx,%ebx
 100224e:	74 76                	je     10022c6 <__qdivrem+0x44e>
 1002250:	83 7c 24 10 00       	cmpl   $0x0,0x10(%esp)
 1002255:	74 54                	je     10022ab <__qdivrem+0x433>
 1002257:	89 f8                	mov    %edi,%eax
 1002259:	03 44 24 20          	add    0x20(%esp),%eax
 100225d:	39 f8                	cmp    %edi,%eax
 100225f:	7e 43                	jle    10022a4 <__qdivrem+0x42c>
 1002261:	ba 10 00 00 00       	mov    $0x10,%edx
 1002266:	2b 54 24 10          	sub    0x10(%esp),%edx
 100226a:	8b 7c 24 10          	mov    0x10(%esp),%edi
 100226e:	89 5c 24 28          	mov    %ebx,0x28(%esp)
 1002272:	89 54 24 24          	mov    %edx,0x24(%esp)
 1002276:	8b 54 86 fc          	mov    -0x4(%esi,%eax,4),%edx
 100227a:	0f b6 4c 24 24       	movzbl 0x24(%esp),%ecx
 100227f:	d3 e2                	shl    %cl,%edx
 1002281:	81 e2 ff ff 00 00    	and    $0xffff,%edx
 1002287:	8b 1c 86             	mov    (%esi,%eax,4),%ebx
 100228a:	89 f9                	mov    %edi,%ecx
 100228c:	d3 eb                	shr    %cl,%ebx
 100228e:	09 da                	or     %ebx,%edx
 1002290:	89 14 86             	mov    %edx,(%esi,%eax,4)
 1002293:	83 e8 01             	sub    $0x1,%eax
 1002296:	3b 44 24 14          	cmp    0x14(%esp),%eax
 100229a:	7f da                	jg     1002276 <__qdivrem+0x3fe>
 100229c:	8b 5c 24 28          	mov    0x28(%esp),%ebx
 10022a0:	8b 44 24 14          	mov    0x14(%esp),%eax
 10022a4:	c7 04 86 00 00 00 00 	movl   $0x0,(%esi,%eax,4)
 10022ab:	8b 44 24 5c          	mov    0x5c(%esp),%eax
 10022af:	c1 e0 10             	shl    $0x10,%eax
 10022b2:	0b 44 24 60          	or     0x60(%esp),%eax
 10022b6:	8b 54 24 64          	mov    0x64(%esp),%edx
 10022ba:	c1 e2 10             	shl    $0x10,%edx
 10022bd:	0b 54 24 68          	or     0x68(%esp),%edx
 10022c1:	89 13                	mov    %edx,(%ebx)
 10022c3:	89 43 04             	mov    %eax,0x4(%ebx)
 10022c6:	8b 44 24 34          	mov    0x34(%esp),%eax
 10022ca:	c1 e0 10             	shl    $0x10,%eax
 10022cd:	8b 54 24 3c          	mov    0x3c(%esp),%edx
 10022d1:	c1 e2 10             	shl    $0x10,%edx
 10022d4:	89 d3                	mov    %edx,%ebx
 10022d6:	0b 5c 24 40          	or     0x40(%esp),%ebx
 10022da:	89 c1                	mov    %eax,%ecx
 10022dc:	0b 4c 24 38          	or     0x38(%esp),%ecx
 10022e0:	89 d8                	mov    %ebx,%eax
 10022e2:	89 ca                	mov    %ecx,%edx
 10022e4:	83 c4 6c             	add    $0x6c,%esp
 10022e7:	5b                   	pop    %ebx
 10022e8:	5e                   	pop    %esi
 10022e9:	5f                   	pop    %edi
 10022ea:	5d                   	pop    %ebp
 10022eb:	c3                   	ret    

010022ec <__umoddi3>:
 10022ec:	55                   	push   %ebp
 10022ed:	89 e5                	mov    %esp,%ebp
 10022ef:	83 ec 1c             	sub    $0x1c,%esp
 10022f2:	8d 44 24 14          	lea    0x14(%esp),%eax
 10022f6:	89 44 24 10          	mov    %eax,0x10(%esp)
 10022fa:	8b 45 10             	mov    0x10(%ebp),%eax
 10022fd:	8b 55 14             	mov    0x14(%ebp),%edx
 1002300:	89 44 24 08          	mov    %eax,0x8(%esp)
 1002304:	89 54 24 0c          	mov    %edx,0xc(%esp)
 1002308:	8b 45 08             	mov    0x8(%ebp),%eax
 100230b:	8b 55 0c             	mov    0xc(%ebp),%edx
 100230e:	89 04 24             	mov    %eax,(%esp)
 1002311:	89 54 24 04          	mov    %edx,0x4(%esp)
 1002315:	e8 5e fb ff ff       	call   1001e78 <__qdivrem>
 100231a:	8b 44 24 14          	mov    0x14(%esp),%eax
 100231e:	8b 54 24 18          	mov    0x18(%esp),%edx
 1002322:	c9                   	leave  
 1002323:	c3                   	ret    

01002324 <__udivdi3>:
 1002324:	55                   	push   %ebp
 1002325:	89 e5                	mov    %esp,%ebp
 1002327:	83 ec 14             	sub    $0x14,%esp
 100232a:	c7 44 24 10 00 00 00 	movl   $0x0,0x10(%esp)
 1002331:	00 
 1002332:	8b 45 10             	mov    0x10(%ebp),%eax
 1002335:	8b 55 14             	mov    0x14(%ebp),%edx
 1002338:	89 44 24 08          	mov    %eax,0x8(%esp)
 100233c:	89 54 24 0c          	mov    %edx,0xc(%esp)
 1002340:	8b 45 08             	mov    0x8(%ebp),%eax
 1002343:	8b 55 0c             	mov    0xc(%ebp),%edx
 1002346:	89 04 24             	mov    %eax,(%esp)
 1002349:	89 54 24 04          	mov    %edx,0x4(%esp)
 100234d:	e8 26 fb ff ff       	call   1001e78 <__qdivrem>
 1002352:	c9                   	leave  
 1002353:	c3                   	ret    

Disassembly of section .rodata:

01002354 <__FUNCTION__.1016-0x7b>:
 1002354:	49                   	dec    %ecx
 1002355:	6e                   	outsb  %ds:(%esi),(%dx)
 1002356:	73 69                	jae    10023c1 <__udivdi3+0x9d>
 1002358:	64 65 20 74 68 72    	fs and %dh,%fs:%gs:0x72(%eax,%ebp,2)
 100235e:	65                   	gs
 100235f:	61                   	popa   
 1002360:	64                   	fs
 1002361:	5f                   	pop    %edi
 1002362:	72 75                	jb     10023d9 <__FUNCTION__.1016+0xa>
 1002364:	6e                   	outsb  %ds:(%esi),(%dx)
 1002365:	2c 20                	sub    $0x20,%al
 1002367:	69 6e 70 75 74 3a 20 	imul   $0x203a7475,0x70(%esi),%ebp
 100236e:	25 64 0a 00 00       	and    $0xa64,%eax
 1002373:	00 5b 41             	add    %bl,0x41(%ebx)
 1002376:	50                   	push   %eax
 1002377:	50                   	push   %eax
 1002378:	5f                   	pop    %edi
 1002379:	25 73 5d 2c 20       	and    $0x202c5d73,%eax
 100237e:	20 61 66             	and    %ah,0x66(%ecx)
 1002381:	74 65                	je     10023e8 <__FUNCTION__.1016+0x19>
 1002383:	72 20                	jb     10023a5 <__udivdi3+0x81>
 1002385:	74 68                	je     10023ef <__FUNCTION__.1016+0x20>
 1002387:	72 5f                	jb     10023e8 <__FUNCTION__.1016+0x19>
 1002389:	69 6e 69 74 20 20 72 	imul   $0x72202074,0x69(%esi),%ebp
 1002390:	63 20                	arpl   %sp,(%eax)
 1002392:	3d 20 25 64 2c       	cmp    $0x2c642520,%eax
 1002397:	20 74 68 72          	and    %dh,0x72(%eax,%ebp,2)
 100239b:	65                   	gs
 100239c:	61                   	popa   
 100239d:	64                   	fs
 100239e:	5f                   	pop    %edi
 100239f:	72 75                	jb     1002416 <__FUNCTION__.1016+0x47>
 10023a1:	6e                   	outsb  %ds:(%esi),(%dx)
 10023a2:	3a 20                	cmp    (%eax),%ah
 10023a4:	25 70 0a 00 5b       	and    $0x5b000a70,%eax
 10023a9:	41                   	inc    %ecx
 10023aa:	50                   	push   %eax
 10023ab:	50                   	push   %eax
 10023ac:	5f                   	pop    %edi
 10023ad:	25 73 5d 2c 20       	and    $0x202c5d73,%eax
 10023b2:	20 61 66             	and    %ah,0x66(%ecx)
 10023b5:	74 65                	je     100241c <__FUNCTION__.1016+0x4d>
 10023b7:	72 20                	jb     10023d9 <__FUNCTION__.1016+0xa>
 10023b9:	74 68                	je     1002423 <__FUNCTION__.1016+0x54>
 10023bb:	72 5f                	jb     100241c <__FUNCTION__.1016+0x4d>
 10023bd:	63 72 65             	arpl   %si,0x65(%edx)
 10023c0:	61                   	popa   
 10023c1:	74 65                	je     1002428 <__FUNCTION__.1016+0x59>
 10023c3:	20 20                	and    %ah,(%eax)
 10023c5:	74 69                	je     1002430 <__FUNCTION__.1016+0x61>
 10023c7:	64 20 3d 20 25 64 0a 	and    %bh,%fs:0xa642520
	...

010023cf <__FUNCTION__.1016>:
 10023cf:	6d                   	insl   (%dx),%es:(%edi)
 10023d0:	61                   	popa   
 10023d1:	69 6e 00 5b 44 42 47 	imul   $0x4742445b,0x0(%esi),%ebp
 10023d8:	5f                   	pop    %edi
 10023d9:	25 73 5d 2c 20       	and    $0x202c5d73,%eax
 10023de:	45                   	inc    %ebp
 10023df:	6e                   	outsb  %ds:(%esi),(%dx)
 10023e0:	74 65                	je     1002447 <__FUNCTION__.1016+0x78>
 10023e2:	72 0a                	jb     10023ee <__FUNCTION__.1016+0x1f>
 10023e4:	00 00                	add    %al,(%eax)
 10023e6:	00 00                	add    %al,(%eax)
 10023e8:	5b                   	pop    %ebx
 10023e9:	44                   	inc    %esp
 10023ea:	42                   	inc    %edx
 10023eb:	47                   	inc    %edi
 10023ec:	5f                   	pop    %edi
 10023ed:	25 73 5d 2c 20       	and    $0x202c5d73,%eax
 10023f2:	50                   	push   %eax
 10023f3:	41                   	inc    %ecx
 10023f4:	4e                   	dec    %esi
 10023f5:	49                   	dec    %ecx
 10023f6:	43                   	inc    %ebx
 10023f7:	3a 20                	cmp    (%eax),%ah
 10023f9:	73 74                	jae    100246f <__FUNCTION__.1016+0xa0>
 10023fb:	61                   	popa   
 10023fc:	63 6b 5f             	arpl   %bp,0x5f(%ebx)
 10023ff:	68 69 3a 20 25       	push   $0x25203a69
 1002404:	70 20                	jo     1002426 <__FUNCTION__.1016+0x57>
 1002406:	6f                   	outsl  %ds:(%esi),(%dx)
 1002407:	72 20                	jb     1002429 <__FUNCTION__.1016+0x5a>
 1002409:	73 74                	jae    100247f <__FUNCTION__.1016+0xb0>
 100240b:	61                   	popa   
 100240c:	63 6b 5f             	arpl   %bp,0x5f(%ebx)
 100240f:	6c                   	insb   (%dx),%es:(%edi)
 1002410:	6f                   	outsl  %ds:(%esi),(%dx)
 1002411:	3a 20                	cmp    (%eax),%ah
 1002413:	25 70 20 69 6e       	and    $0x6e692070,%eax
 1002418:	76 61                	jbe    100247b <__FUNCTION__.1016+0xac>
 100241a:	6c                   	insb   (%dx),%es:(%edi)
 100241b:	69 64 20 0a 00 5b 44 	imul   $0x42445b00,0xa(%eax,%eiz,1),%esp
 1002422:	42 
 1002423:	47                   	inc    %edi
 1002424:	5f                   	pop    %edi
 1002425:	25 73 5d 2c 20       	and    $0x202c5d73,%eax
 100242a:	6d                   	insl   (%dx),%es:(%edi)
 100242b:	61                   	popa   
 100242c:	69 6e 5f 73 74 61 63 	imul   $0x63617473,0x5f(%esi),%ebp
 1002433:	6b 5f 68 69          	imul   $0x69,0x68(%edi),%ebx
 1002437:	3a 20                	cmp    (%eax),%ah
 1002439:	25 70 2c 20 6d       	and    $0x6d202c70,%eax
 100243e:	61                   	popa   
 100243f:	69 6e 5f 73 74 61 63 	imul   $0x63617473,0x5f(%esi),%ebp
 1002446:	6b 5f 6c 6f          	imul   $0x6f,0x6c(%edi),%ebx
 100244a:	3a 20                	cmp    (%eax),%ah
 100244c:	25 70 20 0a 00       	and    $0xa2070,%eax
 1002451:	00 00                	add    %al,(%eax)
 1002453:	00 5b 44             	add    %bl,0x44(%ebx)
 1002456:	42                   	inc    %edx
 1002457:	47                   	inc    %edi
 1002458:	5f                   	pop    %edi
 1002459:	25 73 5d 2c 20       	and    $0x202c5d73,%eax
 100245e:	63 68 69             	arpl   %bp,0x69(%eax)
 1002461:	6c                   	insb   (%dx),%es:(%edi)
 1002462:	64                   	fs
 1002463:	5f                   	pop    %edi
 1002464:	73 74                	jae    10024da <__FUNCTION__.1016+0x10b>
 1002466:	61                   	popa   
 1002467:	63 6b 5f             	arpl   %bp,0x5f(%ebx)
 100246a:	73 69                	jae    10024d5 <__FUNCTION__.1016+0x106>
 100246c:	7a 65                	jp     10024d3 <__FUNCTION__.1016+0x104>
 100246e:	3a 20                	cmp    (%eax),%ah
 1002470:	25 75 0a 00 5b       	and    $0x5b000a75,%eax
 1002475:	44                   	inc    %esp
 1002476:	42                   	inc    %edx
 1002477:	47                   	inc    %edi
 1002478:	5f                   	pop    %edi
 1002479:	25 73 5d 2c 20       	and    $0x202c5d73,%eax
 100247e:	66                   	data16
 100247f:	72 65                	jb     10024e6 <__FUNCTION__.1016+0x117>
 1002481:	65                   	gs
 1002482:	5f                   	pop    %edi
 1002483:	73 74                	jae    10024f9 <__FUNCTION__.1016+0x12a>
 1002485:	61                   	popa   
 1002486:	63 6b 5f             	arpl   %bp,0x5f(%ebx)
 1002489:	68 69 3a 20 25       	push   $0x25203a69
 100248e:	70 2c                	jo     10024bc <__FUNCTION__.1016+0xed>
 1002490:	20 66 72             	and    %ah,0x72(%esi)
 1002493:	65                   	gs
 1002494:	65                   	gs
 1002495:	5f                   	pop    %edi
 1002496:	73 74                	jae    100250c <__FUNCTION__.1016+0x13d>
 1002498:	61                   	popa   
 1002499:	63 6b 5f             	arpl   %bp,0x5f(%ebx)
 100249c:	6c                   	insb   (%dx),%es:(%edi)
 100249d:	6f                   	outsl  %ds:(%esi),(%dx)
 100249e:	3a 20                	cmp    (%eax),%ah
 10024a0:	25 70 20 0a 00       	and    $0xa2070,%eax
 10024a5:	00 00                	add    %al,(%eax)
 10024a7:	00 5b 44             	add    %bl,0x44(%ebx)
 10024aa:	42                   	inc    %edx
 10024ab:	47                   	inc    %edi
 10024ac:	5f                   	pop    %edi
 10024ad:	25 73 5d 2c 20       	and    $0x202c5d73,%eax
 10024b2:	43                   	inc    %ebx
 10024b3:	68 69 6c 64 20       	push   $0x20646c69
 10024b8:	73 74                	jae    100252e <__FUNCTION__.1016+0x15f>
 10024ba:	61                   	popa   
 10024bb:	63 6b 5f             	arpl   %bp,0x5f(%ebx)
 10024be:	68 69 3a 20 25       	push   $0x25203a69
 10024c3:	70 20                	jo     10024e5 <__FUNCTION__.1016+0x116>
 10024c5:	0a 00                	or     (%eax),%al
 10024c7:	00 5b 44             	add    %bl,0x44(%ebx)
 10024ca:	42                   	inc    %edx
 10024cb:	47                   	inc    %edi
 10024cc:	5f                   	pop    %edi
 10024cd:	25 73 5d 2c 20       	and    $0x202c5d73,%eax
 10024d2:	41                   	inc    %ecx
 10024d3:	6c                   	insb   (%dx),%es:(%edi)
 10024d4:	6c                   	insb   (%dx),%es:(%edi)
 10024d5:	6f                   	outsl  %ds:(%esi),(%dx)
 10024d6:	63 61 74             	arpl   %sp,0x74(%ecx)
 10024d9:	65 20 70 61          	and    %dh,%gs:0x61(%eax)
 10024dd:	67 65 20 61 74       	and    %ah,%gs:0x74(%bx,%di)
 10024e2:	20 25 70 0a 00 00    	and    %ah,0xa70
 10024e8:	5b                   	pop    %ebx
 10024e9:	44                   	inc    %esp
 10024ea:	42                   	inc    %edx
 10024eb:	47                   	inc    %edi
 10024ec:	5f                   	pop    %edi
 10024ed:	25 73 5d 2c 20       	and    $0x202c5d73,%eax
 10024f2:	50                   	push   %eax
 10024f3:	61                   	popa   
 10024f4:	67 65 20 61 6c       	and    %ah,%gs:0x6c(%bx,%di)
 10024f9:	6c                   	insb   (%dx),%es:(%edi)
 10024fa:	6f                   	outsl  %ds:(%esi),(%dx)
 10024fb:	63 61 74             	arpl   %sp,0x74(%ecx)
 10024fe:	69 6f 6e 20 66 61 69 	imul   $0x69616620,0x6e(%edi),%ebp
 1002505:	6c                   	insb   (%dx),%es:(%edi)
 1002506:	65 64 20 77 69       	gs and %dh,%fs:%gs:0x69(%edi)
 100250b:	74 68                	je     1002575 <__FUNCTION__.1016+0x1a6>
 100250d:	20 72 63             	and    %dh,0x63(%edx)
 1002510:	3a 20                	cmp    (%eax),%ah
 1002512:	25 64 20 0a 00       	and    $0xa2064,%eax
 1002517:	00 5b 44             	add    %bl,0x44(%ebx)
 100251a:	42                   	inc    %edx
 100251b:	47                   	inc    %edi
 100251c:	5f                   	pop    %edi
 100251d:	25 73 5d 2c 20       	and    $0x202c5d73,%eax
 1002522:	49                   	dec    %ecx
 1002523:	6e                   	outsb  %ds:(%esi),(%dx)
 1002524:	76 61                	jbe    1002587 <__FUNCTION__.1016+0x1b8>
 1002526:	6c                   	insb   (%dx),%es:(%edi)
 1002527:	69 64 20 69 6e 70 75 	imul   $0x7475706e,0x69(%eax,%eiz,1),%esp
 100252e:	74 
 100252f:	2c 20                	sub    $0x20,%al
 1002531:	66                   	data16
 1002532:	75 6e                	jne    10025a2 <__FUNCTION__.1016+0x1d3>
 1002534:	63 3a                	arpl   %di,(%edx)
 1002536:	20 25 70 2c 20 61    	and    %ah,0x61202c70
 100253c:	72 67                	jb     10025a5 <__FUNCTION__.1016+0x1d6>
 100253e:	3a 20                	cmp    (%eax),%ah
 1002540:	25 70 0a 00 5b       	and    $0x5b000a70,%eax
 1002545:	44                   	inc    %esp
 1002546:	42                   	inc    %edx
 1002547:	47                   	inc    %edi
 1002548:	5f                   	pop    %edi
 1002549:	25 73 5d 2c 20       	and    $0x202c5d73,%eax
 100254e:	73 74                	jae    10025c4 <__FUNCTION__.1016+0x1f5>
 1002550:	61                   	popa   
 1002551:	63 6b 20             	arpl   %bp,0x20(%ebx)
 1002554:	61                   	popa   
 1002555:	6c                   	insb   (%dx),%es:(%edi)
 1002556:	6c                   	insb   (%dx),%es:(%edi)
 1002557:	6f                   	outsl  %ds:(%esi),(%dx)
 1002558:	63 61 74             	arpl   %sp,0x74(%ecx)
 100255b:	69 6f 6e 20 66 61 69 	imul   $0x69616620,0x6e(%edi),%ebp
 1002562:	6c                   	insb   (%dx),%es:(%edi)
 1002563:	65 64 20 0a          	gs and %cl,%fs:%gs:(%edx)
 1002567:	00 5b 44             	add    %bl,0x44(%ebx)
 100256a:	42                   	inc    %edx
 100256b:	47                   	inc    %edi
 100256c:	5f                   	pop    %edi
 100256d:	25 73 5d 2c 20       	and    $0x202c5d73,%eax
 1002572:	73 74                	jae    10025e8 <__FUNCTION__.1199+0x4>
 1002574:	61                   	popa   
 1002575:	63 6b 5f             	arpl   %bp,0x5f(%ebx)
 1002578:	68 69 3a 20 25       	push   $0x25203a69
 100257d:	70 2c                	jo     10025ab <__FUNCTION__.1016+0x1dc>
 100257f:	20 73 74             	and    %dh,0x74(%ebx)
 1002582:	61                   	popa   
 1002583:	63 6b 5f             	arpl   %bp,0x5f(%ebx)
 1002586:	6c                   	insb   (%dx),%es:(%edi)
 1002587:	6f                   	outsl  %ds:(%esi),(%dx)
 1002588:	3a 20                	cmp    (%eax),%ah
 100258a:	25 70 2c 20 63       	and    $0x63202c70,%eax
 100258f:	73 74                	jae    1002605 <__FUNCTION__.1156+0xa>
 1002591:	61                   	popa   
 1002592:	63 6b 5f             	arpl   %bp,0x5f(%ebx)
 1002595:	73 69                	jae    1002600 <__FUNCTION__.1156+0x5>
 1002597:	7a 65                	jp     10025fe <__FUNCTION__.1156+0x3>
 1002599:	3a 20                	cmp    (%eax),%ah
 100259b:	25 75 20 0a 00       	and    $0xa2075,%eax
 10025a0:	5b                   	pop    %ebx
 10025a1:	44                   	inc    %esp
 10025a2:	42                   	inc    %edx
 10025a3:	47                   	inc    %edi
 10025a4:	5f                   	pop    %edi
 10025a5:	25 73 5d 2c 20       	and    $0x202c5d73,%eax
 10025aa:	54                   	push   %esp
 10025ab:	43                   	inc    %ebx
 10025ac:	42                   	inc    %edx
 10025ad:	20 69 6e             	and    %ch,0x6e(%ecx)
 10025b0:	73 65                	jae    1002617 <__FUNCTION__.1128+0x11>
 10025b2:	72 74                	jb     1002628 <__FUNCTION__.1128+0x22>
 10025b4:	69 6f 6e 20 66 61 69 	imul   $0x69616620,0x6e(%edi),%ebp
 10025bb:	6c                   	insb   (%dx),%es:(%edi)
 10025bc:	65 64 20 77 69       	gs and %dh,%fs:%gs:0x69(%edi)
 10025c1:	74 68                	je     100262b <__FUNCTION__.1128+0x25>
 10025c3:	20 72 63             	and    %dh,0x63(%edx)
 10025c6:	3a 20                	cmp    (%eax),%ah
 10025c8:	25 64 20 0a 00       	and    $0xa2064,%eax

010025cd <__FUNCTION__.1222>:
 10025cd:	74 68                	je     1002637 <__FUNCTION__.1128+0x31>
 10025cf:	72 5f                	jb     1002630 <__FUNCTION__.1128+0x2a>
 10025d1:	69 6e 74 5f 66 6f 72 	imul   $0x726f665f,0x74(%esi),%ebp
 10025d8:	6b 5f 63 5f          	imul   $0x5f,0x63(%edi),%ebx
 10025dc:	77 72                	ja     1002650 <__FUNCTION__.1128+0x4a>
 10025de:	61                   	popa   
 10025df:	70 70                	jo     1002651 <__FUNCTION__.1128+0x4b>
 10025e1:	65                   	gs
 10025e2:	72 00                	jb     10025e4 <__FUNCTION__.1199>

010025e4 <__FUNCTION__.1199>:
 10025e4:	74 68                	je     100264e <__FUNCTION__.1128+0x48>
 10025e6:	72 5f                	jb     1002647 <__FUNCTION__.1128+0x41>
 10025e8:	69 6e 74 5f 61 6c 6c 	imul   $0x6c6c615f,0x74(%esi),%ebp
 10025ef:	6f                   	outsl  %ds:(%esi),(%dx)
 10025f0:	63 61 74             	arpl   %sp,0x74(%ecx)
 10025f3:	65                   	gs
 10025f4:	5f                   	pop    %edi
 10025f5:	73 74                	jae    100266b <__FUNCTION__.1128+0x65>
 10025f7:	61                   	popa   
 10025f8:	63 6b 00             	arpl   %bp,0x0(%ebx)

010025fb <__FUNCTION__.1156>:
 10025fb:	74 68                	je     1002665 <__FUNCTION__.1128+0x5f>
 10025fd:	72 5f                	jb     100265e <__FUNCTION__.1128+0x58>
 10025ff:	63 72 65             	arpl   %si,0x65(%edx)
 1002602:	61                   	popa   
 1002603:	74 65                	je     100266a <__FUNCTION__.1128+0x64>
	...

01002606 <__FUNCTION__.1128>:
 1002606:	74 68                	je     1002670 <__FUNCTION__.1128+0x6a>
 1002608:	72 5f                	jb     1002669 <__FUNCTION__.1128+0x63>
 100260a:	69 6e 69 74 00 30 00 	imul   $0x300074,0x69(%esi),%ebp
 1002611:	30 78 00             	xor    %bh,0x0(%eax)
 1002614:	40                   	inc    %eax
 1002615:	15 00 01 4b 15       	adc    $0x154b0100,%eax
 100261a:	00 01                	add    %al,(%ecx)
 100261c:	4b                   	dec    %ebx
 100261d:	15 00 01 4b 15       	adc    $0x154b0100,%eax
 1002622:	00 01                	add    %al,(%ecx)
 1002624:	4b                   	dec    %ebx
 1002625:	15 00 01 4b 15       	adc    $0x154b0100,%eax
 100262a:	00 01                	add    %al,(%ecx)
 100262c:	4b                   	dec    %ebx
 100262d:	15 00 01 4b 15       	adc    $0x154b0100,%eax
 1002632:	00 01                	add    %al,(%ecx)
 1002634:	4b                   	dec    %ebx
 1002635:	15 00 01 4b 15       	adc    $0x154b0100,%eax
 100263a:	00 01                	add    %al,(%ecx)
 100263c:	4b                   	dec    %ebx
 100263d:	15 00 01 4b 15       	adc    $0x154b0100,%eax
 1002642:	00 01                	add    %al,(%ecx)
 1002644:	4b                   	dec    %ebx
 1002645:	15 00 01 4b 15       	adc    $0x154b0100,%eax
 100264a:	00 01                	add    %al,(%ecx)
 100264c:	4b                   	dec    %ebx
 100264d:	15 00 01 4b 15       	adc    $0x154b0100,%eax
 1002652:	00 01                	add    %al,(%ecx)
 1002654:	4b                   	dec    %ebx
 1002655:	15 00 01 4b 15       	adc    $0x154b0100,%eax
 100265a:	00 01                	add    %al,(%ecx)
 100265c:	4b                   	dec    %ebx
 100265d:	15 00 01 4b 15       	adc    $0x154b0100,%eax
 1002662:	00 01                	add    %al,(%ecx)
 1002664:	4b                   	dec    %ebx
 1002665:	15 00 01 4b 15       	adc    $0x154b0100,%eax
 100266a:	00 01                	add    %al,(%ecx)
 100266c:	4b                   	dec    %ebx
 100266d:	15 00 01 4b 15       	adc    $0x154b0100,%eax
 1002672:	00 01                	add    %al,(%ecx)
 1002674:	4b                   	dec    %ebx
 1002675:	15 00 01 4b 15       	adc    $0x154b0100,%eax
 100267a:	00 01                	add    %al,(%ecx)
 100267c:	4b                   	dec    %ebx
 100267d:	15 00 01 4b 15       	adc    $0x154b0100,%eax
 1002682:	00 01                	add    %al,(%ecx)
 1002684:	4b                   	dec    %ebx
 1002685:	15 00 01 4b 15       	adc    $0x154b0100,%eax
 100268a:	00 01                	add    %al,(%ecx)
 100268c:	4b                   	dec    %ebx
 100268d:	15 00 01 4b 15       	adc    $0x154b0100,%eax
 1002692:	00 01                	add    %al,(%ecx)
 1002694:	4b                   	dec    %ebx
 1002695:	15 00 01 4b 15       	adc    $0x154b0100,%eax
 100269a:	00 01                	add    %al,(%ecx)
 100269c:	4b                   	dec    %ebx
 100269d:	15 00 01 4b 15       	adc    $0x154b0100,%eax
 10026a2:	00 01                	add    %al,(%ecx)
 10026a4:	4b                   	dec    %ebx
 10026a5:	15 00 01 4b 15       	adc    $0x154b0100,%eax
 10026aa:	00 01                	add    %al,(%ecx)
 10026ac:	4b                   	dec    %ebx
 10026ad:	15 00 01 4b 15       	adc    $0x154b0100,%eax
 10026b2:	00 01                	add    %al,(%ecx)
 10026b4:	4b                   	dec    %ebx
 10026b5:	15 00 01 4b 15       	adc    $0x154b0100,%eax
 10026ba:	00 01                	add    %al,(%ecx)
 10026bc:	4b                   	dec    %ebx
 10026bd:	15 00 01 4b 15       	adc    $0x154b0100,%eax
 10026c2:	00 01                	add    %al,(%ecx)
 10026c4:	4b                   	dec    %ebx
 10026c5:	15 00 01 4b 15       	adc    $0x154b0100,%eax
 10026ca:	00 01                	add    %al,(%ecx)
 10026cc:	4b                   	dec    %ebx
 10026cd:	15 00 01 4b 15       	adc    $0x154b0100,%eax
 10026d2:	00 01                	add    %al,(%ecx)
 10026d4:	4b                   	dec    %ebx
 10026d5:	15 00 01 4b 15       	adc    $0x154b0100,%eax
 10026da:	00 01                	add    %al,(%ecx)
 10026dc:	4b                   	dec    %ebx
 10026dd:	15 00 01 4b 15       	adc    $0x154b0100,%eax
 10026e2:	00 01                	add    %al,(%ecx)
 10026e4:	4b                   	dec    %ebx
 10026e5:	15 00 01 4b 15       	adc    $0x154b0100,%eax
 10026ea:	00 01                	add    %al,(%ecx)
 10026ec:	4b                   	dec    %ebx
 10026ed:	15 00 01 4b 15       	adc    $0x154b0100,%eax
 10026f2:	00 01                	add    %al,(%ecx)
 10026f4:	4b                   	dec    %ebx
 10026f5:	15 00 01 4b 15       	adc    $0x154b0100,%eax
 10026fa:	00 01                	add    %al,(%ecx)
 10026fc:	4b                   	dec    %ebx
 10026fd:	15 00 01 4b 15       	adc    $0x154b0100,%eax
 1002702:	00 01                	add    %al,(%ecx)
 1002704:	4b                   	dec    %ebx
 1002705:	15 00 01 4b 15       	adc    $0x154b0100,%eax
 100270a:	00 01                	add    %al,(%ecx)
 100270c:	4b                   	dec    %ebx
 100270d:	15 00 01 4b 15       	adc    $0x154b0100,%eax
 1002712:	00 01                	add    %al,(%ecx)
 1002714:	4b                   	dec    %ebx
 1002715:	15 00 01 4b 15       	adc    $0x154b0100,%eax
 100271a:	00 01                	add    %al,(%ecx)
 100271c:	97                   	xchg   %eax,%edi
 100271d:	09 00                	or     %eax,(%eax)
 100271f:	01 4b 15             	add    %ecx,0x15(%ebx)
 1002722:	00 01                	add    %al,(%ecx)
 1002724:	75 09                	jne    100272f <__FUNCTION__.1128+0x129>
 1002726:	00 01                	add    %al,(%ecx)
 1002728:	4b                   	dec    %ebx
 1002729:	15 00 01 4b 15       	adc    $0x154b0100,%eax
 100272e:	00 01                	add    %al,(%ecx)
 1002730:	4b                   	dec    %ebx
 1002731:	15 00 01 4b 15       	adc    $0x154b0100,%eax
 1002736:	00 01                	add    %al,(%ecx)
 1002738:	4b                   	dec    %ebx
 1002739:	15 00 01 4b 15       	adc    $0x154b0100,%eax
 100273e:	00 01                	add    %al,(%ecx)
 1002740:	4b                   	dec    %ebx
 1002741:	15 00 01 4b 15       	adc    $0x154b0100,%eax
 1002746:	00 01                	add    %al,(%ecx)
 1002748:	4b                   	dec    %ebx
 1002749:	15 00 01 46 09       	adc    $0x9460100,%eax
 100274e:	00 01                	add    %al,(%ecx)
 1002750:	64 09 00             	or     %eax,%fs:(%eax)
 1002753:	01 4b 15             	add    %ecx,0x15(%ebx)
 1002756:	00 01                	add    %al,(%ecx)
 1002758:	4b                   	dec    %ebx
 1002759:	15 00 01 55 09       	adc    $0x9550100,%eax
 100275e:	00 01                	add    %al,(%ecx)
 1002760:	4b                   	dec    %ebx
 1002761:	15 00 01 4b 15       	adc    $0x154b0100,%eax
 1002766:	00 01                	add    %al,(%ecx)
 1002768:	86 09                	xchg   %cl,(%ecx)
 100276a:	00 01                	add    %al,(%ecx)
 100276c:	4b                   	dec    %ebx
 100276d:	15 00 01 4b 15       	adc    $0x154b0100,%eax
 1002772:	00 01                	add    %al,(%ecx)
 1002774:	1f                   	pop    %ds
 1002775:	13 00                	adc    (%eax),%eax
 1002777:	01 4b 15             	add    %ecx,0x15(%ebx)
 100277a:	00 01                	add    %al,(%ecx)
 100277c:	bd 12 00 01 4b       	mov    $0x4b010012,%ebp
 1002781:	15 00 01 4b 15       	adc    $0x154b0100,%eax
 1002786:	00 01                	add    %al,(%ecx)
 1002788:	4b                   	dec    %ebx
 1002789:	15 00 01 4b 15       	adc    $0x154b0100,%eax
 100278e:	00 01                	add    %al,(%ecx)
 1002790:	4b                   	dec    %ebx
 1002791:	15 00 01 4b 15       	adc    $0x154b0100,%eax
 1002796:	00 01                	add    %al,(%ecx)
 1002798:	4b                   	dec    %ebx
 1002799:	15 00 01 97 09       	adc    $0x9970100,%eax
 100279e:	00 01                	add    %al,(%ecx)
 10027a0:	46                   	inc    %esi
 10027a1:	0b 00                	or     (%eax),%eax
 10027a3:	01 2c 12             	add    %ebp,(%edx,%edx,1)
 10027a6:	00 01                	add    %al,(%ecx)
 10027a8:	4b                   	dec    %ebx
 10027a9:	15 00 01 4b 15       	adc    $0x154b0100,%eax
 10027ae:	00 01                	add    %al,(%ecx)
 10027b0:	4b                   	dec    %ebx
 10027b1:	15 00 01 4b 15       	adc    $0x154b0100,%eax
 10027b6:	00 01                	add    %al,(%ecx)
 10027b8:	4b                   	dec    %ebx
 10027b9:	15 00 01 4b 15       	adc    $0x154b0100,%eax
 10027be:	00 01                	add    %al,(%ecx)
 10027c0:	4b                   	dec    %ebx
 10027c1:	15 00 01 4b 15       	adc    $0x154b0100,%eax
 10027c6:	00 01                	add    %al,(%ecx)
 10027c8:	4b                   	dec    %ebx
 10027c9:	15 00 01 af 12       	adc    $0x12af0100,%eax
 10027ce:	00 01                	add    %al,(%ecx)
 10027d0:	19 12                	sbb    %edx,(%edx)
 10027d2:	00 01                	add    %al,(%ecx)
 10027d4:	51                   	push   %ecx
 10027d5:	12 00                	adc    (%eax),%al
 10027d7:	01 4b 15             	add    %ecx,0x15(%ebx)
 10027da:	00 01                	add    %al,(%ecx)
 10027dc:	a1 12 00 01 26       	mov    0x26010012,%eax
 10027e1:	10 00                	adc    %al,(%eax)
 10027e3:	01 67 0b             	add    %esp,0xb(%edi)
 10027e6:	00 01                	add    %al,(%ecx)
 10027e8:	3f                   	aas    
 10027e9:	12 00                	adc    (%eax),%al
 10027eb:	01 4b 15             	add    %ecx,0x15(%ebx)
 10027ee:	00 01                	add    %al,(%ecx)
 10027f0:	4b                   	dec    %ebx
 10027f1:	15 00 01 7e 12       	adc    $0x127e0100,%eax
 10027f6:	00 01                	add    %al,(%ecx)
 10027f8:	4b                   	dec    %ebx
 10027f9:	15 00 01 91 12       	adc    $0x12910100,%eax
 10027fe:	00 01                	add    %al,(%ecx)

01002800 <digits.1059>:
 1002800:	30 31                	xor    %dh,(%ecx)
 1002802:	32 33                	xor    (%ebx),%dh
 1002804:	34 35                	xor    $0x35,%al
 1002806:	36                   	ss
 1002807:	37                   	aaa    
 1002808:	38 39                	cmp    %bh,(%ecx)
 100280a:	61                   	popa   
 100280b:	62 63 64             	bound  %esp,0x64(%ebx)
 100280e:	65                   	gs
 100280f:	66                   	data16
	...

01002811 <digs>:
 1002811:	30 31                	xor    %dh,(%ecx)
 1002813:	32 33                	xor    (%ebx),%dh
 1002815:	34 35                	xor    $0x35,%al
 1002817:	36                   	ss
 1002818:	37                   	aaa    
 1002819:	38 39                	cmp    %bh,(%ecx)
 100281b:	61                   	popa   
 100281c:	62 63 64             	bound  %esp,0x64(%ebx)
 100281f:	65                   	gs
 1002820:	66                   	data16
 1002821:	00 00                	add    %al,(%eax)
 1002823:	00 45 72             	add    %al,0x72(%ebp)
 1002826:	72 6f                	jb     1002897 <digs+0x86>
 1002828:	72 3a                	jb     1002864 <digs+0x53>
 100282a:	20 25 70 20 69 73    	and    %ah,0x73692070
 1002830:	20 6e 6f             	and    %ch,0x6f(%esi)
 1002833:	74 20                	je     1002855 <digs+0x44>
 1002835:	64 6f                	outsl  %fs:(%esi),(%dx)
 1002837:	75 62                	jne    100289b <digs+0x8a>
 1002839:	6c                   	insb   (%dx),%es:(%edi)
 100283a:	65                   	gs
 100283b:	77 6f                	ja     10028ac <digs+0x9b>
 100283d:	72 64                	jb     10028a3 <digs+0x92>
 100283f:	20 61 6c             	and    %ah,0x6c(%ecx)
 1002842:	69 67 6e 65 64 0a 00 	imul   $0xa6465,0x6e(%edi),%esp
 1002849:	00 00                	add    %al,(%eax)
 100284b:	00 45 72             	add    %al,0x72(%ebp)
 100284e:	72 6f                	jb     10028bf <digs+0xae>
 1002850:	72 3a                	jb     100288c <digs+0x7b>
 1002852:	20 68 65             	and    %ch,0x65(%eax)
 1002855:	61                   	popa   
 1002856:	64                   	fs
 1002857:	65                   	gs
 1002858:	72 20                	jb     100287a <digs+0x69>
 100285a:	64 6f                	outsl  %fs:(%esi),(%dx)
 100285c:	65                   	gs
 100285d:	73 20                	jae    100287f <digs+0x6e>
 100285f:	6e                   	outsb  %ds:(%esi),(%dx)
 1002860:	6f                   	outsl  %ds:(%esi),(%dx)
 1002861:	74 20                	je     1002883 <digs+0x72>
 1002863:	6d                   	insl   (%dx),%es:(%edi)
 1002864:	61                   	popa   
 1002865:	74 63                	je     10028ca <digs+0xb9>
 1002867:	68 20 66 6f 6f       	push   $0x6f6f6620
 100286c:	74 65                	je     10028d3 <digs+0xc2>
 100286e:	72 0a                	jb     100287a <digs+0x69>
 1002870:	00 00                	add    %al,(%eax)
 1002872:	00 00                	add    %al,(%eax)
 1002874:	25 70 3a 20 68       	and    $0x68203a70,%eax
 1002879:	65                   	gs
 100287a:	61                   	popa   
 100287b:	64                   	fs
 100287c:	65                   	gs
 100287d:	72 3a                	jb     10028b9 <digs+0xa8>
 100287f:	20 5b 25             	and    %bl,0x25(%ebx)
 1002882:	64 3a 25 63 5d 20 66 	cmp    %fs:0x66205d63,%ah
 1002889:	6f                   	outsl  %ds:(%esi),(%dx)
 100288a:	6f                   	outsl  %ds:(%esi),(%dx)
 100288b:	74 65                	je     10028f2 <digs+0xe1>
 100288d:	72 3a                	jb     10028c9 <digs+0xb8>
 100288f:	20 5b 25             	and    %bl,0x25(%ebx)
 1002892:	64 3a 25 63 5d 0a 00 	cmp    %fs:0xa5d63,%ah
 1002899:	25 70 3a 20 45       	and    $0x45203a70,%eax
 100289e:	4f                   	dec    %edi
 100289f:	4c                   	dec    %esp
 10028a0:	0a 00                	or     (%eax),%al
 10028a2:	48                   	dec    %eax
 10028a3:	65                   	gs
 10028a4:	61                   	popa   
 10028a5:	70 20                	jo     10028c7 <digs+0xb6>
 10028a7:	28 25 70 29 3a 0a    	sub    %ah,0xa3a2970
 10028ad:	00 42 61             	add    %al,0x61(%edx)
 10028b0:	64 20 70 72          	and    %dh,%fs:0x72(%eax)
 10028b4:	6f                   	outsl  %ds:(%esi),(%dx)
 10028b5:	6c                   	insb   (%dx),%es:(%edi)
 10028b6:	6f                   	outsl  %ds:(%esi),(%dx)
 10028b7:	67 75 65             	addr16 jne 100291f <__FUNCTION__.843+0x1b>
 10028ba:	20 68 65             	and    %ch,0x65(%eax)
 10028bd:	61                   	popa   
 10028be:	64                   	fs
 10028bf:	65                   	gs
 10028c0:	72 0a                	jb     10028cc <digs+0xbb>
 10028c2:	00 42 61             	add    %al,0x61(%edx)
 10028c5:	64 20 65 70          	and    %ah,%fs:0x70(%ebp)
 10028c9:	69 6c 6f 67 75 65 20 	imul   $0x68206575,0x67(%edi,%ebp,2),%ebp
 10028d0:	68 
 10028d1:	65                   	gs
 10028d2:	61                   	popa   
 10028d3:	64                   	fs
 10028d4:	65                   	gs
 10028d5:	72 0a                	jb     10028e1 <digs+0xd0>
 10028d7:	00 5b 44             	add    %bl,0x44(%ebx)
 10028da:	42                   	inc    %edx
 10028db:	47                   	inc    %edi
 10028dc:	5f                   	pop    %edi
 10028dd:	25 73 5d 2c 20       	and    $0x202c5d73,%eax
 10028e2:	50                   	push   %eax
 10028e3:	61                   	popa   
 10028e4:	72 65                	jb     100294b <__FUNCTION__.843+0x47>
 10028e6:	6e                   	outsb  %ds:(%esi),(%dx)
 10028e7:	74 20                	je     1002909 <__FUNCTION__.843+0x5>
 10028e9:	73 74                	jae    100295f <__FUNCTION__.843+0x5b>
 10028eb:	61                   	popa   
 10028ec:	63 6b 2c             	arpl   %bp,0x2c(%ebx)
 10028ef:	20 68 69             	and    %ch,0x69(%eax)
 10028f2:	67 68 3a 20 25 70    	addr16 push $0x7025203a
 10028f8:	2c 20                	sub    $0x20,%al
 10028fa:	6c                   	insb   (%dx),%es:(%edi)
 10028fb:	6f                   	outsl  %ds:(%esi),(%dx)
 10028fc:	3a 20                	cmp    (%eax),%ah
 10028fe:	25 70 0a 00 00       	and    $0xa70,%eax
	...

01002904 <__FUNCTION__.843>:
 1002904:	69 6e 73 74 61 6c 6c 	imul   $0x6c6c6174,0x73(%esi),%ebp
 100290b:	5f                   	pop    %edi
 100290c:	61                   	popa   
 100290d:	75 74                	jne    1002983 <__FUNCTION__.843+0x7f>
 100290f:	6f                   	outsl  %ds:(%esi),(%dx)
 1002910:	73 74                	jae    1002986 <__FUNCTION__.843+0x82>
 1002912:	61                   	popa   
 1002913:	63 6b 00             	arpl   %bp,0x0(%ebx)

Disassembly of section .data:

01003918 <zero.839>:
 1003918:	00 00                	add    %al,(%eax)
	...

Disassembly of section .bss:

0100391c <thread_glbl>:
	...

01003934 <_doprnt_truncates>:
 1003934:	00 00                	add    %al,(%eax)
	...

01003938 <inited>:
 1003938:	00 00                	add    %al,(%eax)
	...

0100393c <heap_listp>:
 100393c:	00 00                	add    %al,(%eax)
	...

01003940 <mem_max_addr>:
 1003940:	00 00                	add    %al,(%eax)
	...

01003944 <mem_brkp>:
 1003944:	00 00                	add    %al,(%eax)
	...

01003948 <mem_alloctop>:
 1003948:	00 00                	add    %al,(%eax)
	...

Disassembly of section .debug_aranges:

00000000 <.debug_aranges>:
   0:	1c 00                	sbb    $0x0,%al
   2:	00 00                	add    %al,(%eax)
   4:	02 00                	add    (%eax),%al
   6:	00 00                	add    %al,(%eax)
   8:	00 00                	add    %al,(%eax)
   a:	04 00                	add    $0x0,%al
   c:	00 00                	add    %al,(%eax)
   e:	00 00                	add    %al,(%eax)
  10:	00 00                	add    %al,(%eax)
  12:	00 01                	add    %al,(%ecx)
  14:	83 00 00             	addl   $0x0,(%eax)
	...
  1f:	00 1c 00             	add    %bl,(%eax,%eax,1)
  22:	00 00                	add    %al,(%eax)
  24:	02 00                	add    (%eax),%al
  26:	ec                   	in     (%dx),%al
  27:	00 00                	add    %al,(%eax)
  29:	00 04 00             	add    %al,(%eax,%eax,1)
  2c:	00 00                	add    %al,(%eax)
  2e:	00 00                	add    %al,(%eax)
  30:	84 00                	test   %al,(%eax)
  32:	00 01                	add    %al,(%ecx)
  34:	32 00                	xor    (%eax),%al
	...
  3e:	00 00                	add    %al,(%eax)
  40:	1c 00                	sbb    $0x0,%al
  42:	00 00                	add    %al,(%eax)
  44:	02 00                	add    (%eax),%al
  46:	8e 01                	mov    (%ecx),%es
  48:	00 00                	add    %al,(%eax)
  4a:	04 00                	add    $0x0,%al
  4c:	00 00                	add    %al,(%eax)
  4e:	00 00                	add    %al,(%eax)
  50:	b8 00 00 01 a3       	mov    $0xa3010000,%eax
  55:	03 00                	add    (%eax),%eax
	...
  5f:	00 1c 00             	add    %bl,(%eax,%eax,1)
  62:	00 00                	add    %al,(%eax)
  64:	02 00                	add    (%eax),%al
  66:	93                   	xchg   %eax,%ebx
  67:	07                   	pop    %es
  68:	00 00                	add    %al,(%eax)
  6a:	04 00                	add    $0x0,%al
  6c:	00 00                	add    %al,(%eax)
  6e:	00 00                	add    %al,(%eax)
  70:	5c                   	pop    %esp
  71:	04 00                	add    $0x0,%al
  73:	01 1f                	add    %ebx,(%edi)
	...
  7d:	00 00                	add    %al,(%eax)
  7f:	00 1c 00             	add    %bl,(%eax,%eax,1)
  82:	00 00                	add    %al,(%eax)
  84:	02 00                	add    (%eax),%al
  86:	1f                   	pop    %ds
  87:	08 00                	or     %al,(%eax)
  89:	00 04 00             	add    %al,(%eax,%eax,1)
  8c:	00 00                	add    %al,(%eax)
  8e:	00 00                	add    %al,(%eax)
  90:	7c 04                	jl     96 <thread_run-0xffff6a>
  92:	00 01                	add    %al,(%ecx)
  94:	5a                   	pop    %edx
	...
  9d:	00 00                	add    %al,(%eax)
  9f:	00 1c 00             	add    %bl,(%eax,%eax,1)
  a2:	00 00                	add    %al,(%eax)
  a4:	02 00                	add    (%eax),%al
  a6:	51                   	push   %ecx
  a7:	09 00                	or     %eax,(%eax)
  a9:	00 04 00             	add    %al,(%eax,%eax,1)
  ac:	00 00                	add    %al,(%eax)
  ae:	00 00                	add    %al,(%eax)
  b0:	d8 04 00             	fadds  (%eax,%eax,1)
  b3:	01 13                	add    %edx,(%ebx)
  b5:	01 00                	add    %eax,(%eax)
	...
  bf:	00 1c 00             	add    %bl,(%eax,%eax,1)
  c2:	00 00                	add    %al,(%eax)
  c4:	02 00                	add    (%eax),%al
  c6:	19 0b                	sbb    %ecx,(%ebx)
  c8:	00 00                	add    %al,(%eax)
  ca:	04 00                	add    $0x0,%al
  cc:	00 00                	add    %al,(%eax)
  ce:	00 00                	add    %al,(%eax)
  d0:	ec                   	in     (%dx),%al
  d1:	05 00 01 16 00       	add    $0x160100,%eax
	...
  de:	00 00                	add    %al,(%eax)
  e0:	1c 00                	sbb    $0x0,%al
  e2:	00 00                	add    %al,(%eax)
  e4:	02 00                	add    (%eax),%al
  e6:	a0 0b 00 00 04       	mov    0x400000b,%al
  eb:	00 00                	add    %al,(%eax)
  ed:	00 00                	add    %al,(%eax)
  ef:	00 04 06             	add    %al,(%esi,%eax,1)
  f2:	00 01                	add    %al,(%ecx)
  f4:	0a 01                	or     (%ecx),%al
	...
  fe:	00 00                	add    %al,(%eax)
 100:	1c 00                	sbb    $0x0,%al
 102:	00 00                	add    %al,(%eax)
 104:	02 00                	add    (%eax),%al
 106:	e9 0d 00 00 04       	jmp    4000118 <_end+0x2ffc7cc>
 10b:	00 00                	add    %al,(%eax)
 10d:	00 00                	add    %al,(%eax)
 10f:	00 10                	add    %dl,(%eax)
 111:	07                   	pop    %es
 112:	00 01                	add    %al,(%ecx)
 114:	d2 0e                	rorb   %cl,(%esi)
	...
 11e:	00 00                	add    %al,(%eax)
 120:	1c 00                	sbb    $0x0,%al
 122:	00 00                	add    %al,(%eax)
 124:	02 00                	add    (%eax),%al
 126:	e8 12 00 00 04       	call   400013d <_end+0x2ffc7f1>
 12b:	00 00                	add    %al,(%eax)
 12d:	00 00                	add    %al,(%eax)
 12f:	00 e4                	add    %ah,%ah
 131:	15 00 01 16 00       	adc    $0x160100,%eax
	...
 13e:	00 00                	add    %al,(%eax)
 140:	1c 00                	sbb    $0x0,%al
 142:	00 00                	add    %al,(%eax)
 144:	02 00                	add    (%eax),%al
 146:	44                   	inc    %esp
 147:	13 00                	adc    (%eax),%eax
 149:	00 04 00             	add    %al,(%eax,%eax,1)
 14c:	00 00                	add    %al,(%eax)
 14e:	00 00                	add    %al,(%eax)
 150:	fc                   	cld    
 151:	15 00 01 23 00       	adc    $0x230100,%eax
	...
 15e:	00 00                	add    %al,(%eax)
 160:	1c 00                	sbb    $0x0,%al
 162:	00 00                	add    %al,(%eax)
 164:	02 00                	add    (%eax),%al
 166:	ee                   	out    %al,(%dx)
 167:	13 00                	adc    (%eax),%eax
 169:	00 04 00             	add    %al,(%eax,%eax,1)
 16c:	00 00                	add    %al,(%eax)
 16e:	00 00                	add    %al,(%eax)
 170:	20 16                	and    %dl,(%esi)
 172:	00 01                	add    %al,(%ecx)
 174:	18 00                	sbb    %al,(%eax)
	...
 17e:	00 00                	add    %al,(%eax)
 180:	1c 00                	sbb    $0x0,%al
 182:	00 00                	add    %al,(%eax)
 184:	02 00                	add    (%eax),%al
 186:	62 14 00             	bound  %edx,(%eax,%eax,1)
 189:	00 04 00             	add    %al,(%eax,%eax,1)
 18c:	00 00                	add    %al,(%eax)
 18e:	00 00                	add    %al,(%eax)
 190:	38 16                	cmp    %dl,(%esi)
 192:	00 01                	add    %al,(%ecx)
 194:	d4 00                	aam    $0x0
	...
 19e:	00 00                	add    %al,(%eax)
 1a0:	1c 00                	sbb    $0x0,%al
 1a2:	00 00                	add    %al,(%eax)
 1a4:	02 00                	add    (%eax),%al
 1a6:	8b 15 00 00 04 00    	mov    0x40000,%edx
 1ac:	00 00                	add    %al,(%eax)
 1ae:	00 00                	add    %al,(%eax)
 1b0:	10 17                	adc    %dl,(%edi)
 1b2:	00 01                	add    %al,(%ecx)
 1b4:	9d                   	popf   
 1b5:	04 00                	add    $0x0,%al
	...
 1bf:	00 1c 00             	add    %bl,(%eax,%eax,1)
 1c2:	00 00                	add    %al,(%eax)
 1c4:	02 00                	add    (%eax),%al
 1c6:	3d 19 00 00 04       	cmp    $0x4000019,%eax
 1cb:	00 00                	add    %al,(%eax)
 1cd:	00 00                	add    %al,(%eax)
 1cf:	00 b0 1b 00 01 c4    	add    %dh,-0x3bfeffe5(%eax)
	...
 1dd:	00 00                	add    %al,(%eax)
 1df:	00 1c 00             	add    %bl,(%eax,%eax,1)
 1e2:	00 00                	add    %al,(%eax)
 1e4:	02 00                	add    (%eax),%al
 1e6:	50                   	push   %eax
 1e7:	1a 00                	sbb    (%eax),%al
 1e9:	00 04 00             	add    %al,(%eax,%eax,1)
 1ec:	00 00                	add    %al,(%eax)
 1ee:	00 00                	add    %al,(%eax)
 1f0:	74 1c                	je     20e <thread_run-0xfffdf2>
 1f2:	00 01                	add    %al,(%ecx)
 1f4:	aa                   	stos   %al,%es:(%edi)
	...
 1fd:	00 00                	add    %al,(%eax)
 1ff:	00 1c 00             	add    %bl,(%eax,%eax,1)
 202:	00 00                	add    %al,(%eax)
 204:	02 00                	add    (%eax),%al
 206:	82                   	(bad)  
 207:	1f                   	pop    %ds
 208:	00 00                	add    %al,(%eax)
 20a:	04 00                	add    $0x0,%al
 20c:	00 00                	add    %al,(%eax)
 20e:	00 00                	add    %al,(%eax)
 210:	20 1d 00 01 03 00    	and    %bl,0x30100
	...
 21e:	00 00                	add    %al,(%eax)
 220:	1c 00                	sbb    $0x0,%al
 222:	00 00                	add    %al,(%eax)
 224:	02 00                	add    (%eax),%al
 226:	07                   	pop    %es
 227:	20 00                	and    %al,(%eax)
 229:	00 04 00             	add    %al,(%eax,%eax,1)
 22c:	00 00                	add    %al,(%eax)
 22e:	00 00                	add    %al,(%eax)
 230:	24 1d                	and    $0x1d,%al
 232:	00 01                	add    %al,(%ecx)
 234:	0a 00                	or     (%eax),%al
	...
 23e:	00 00                	add    %al,(%eax)
 240:	1c 00                	sbb    $0x0,%al
 242:	00 00                	add    %al,(%eax)
 244:	02 00                	add    (%eax),%al
 246:	8f                   	(bad)  
 247:	20 00                	and    %al,(%eax)
 249:	00 04 00             	add    %al,(%eax,%eax,1)
 24c:	00 00                	add    %al,(%eax)
 24e:	00 00                	add    %al,(%eax)
 250:	30 1d 00 01 48 00    	xor    %bl,0x480100
	...
 25e:	00 00                	add    %al,(%eax)
 260:	1c 00                	sbb    $0x0,%al
 262:	00 00                	add    %al,(%eax)
 264:	02 00                	add    (%eax),%al
 266:	20 21                	and    %ah,(%ecx)
 268:	00 00                	add    %al,(%eax)
 26a:	04 00                	add    $0x0,%al
 26c:	00 00                	add    %al,(%eax)
 26e:	00 00                	add    %al,(%eax)
 270:	78 1d                	js     28f <thread_run-0xfffd71>
 272:	00 01                	add    %al,(%ecx)
 274:	5d                   	pop    %ebp
	...
 27d:	00 00                	add    %al,(%eax)
 27f:	00 1c 00             	add    %bl,(%eax,%eax,1)
 282:	00 00                	add    %al,(%eax)
 284:	02 00                	add    (%eax),%al
 286:	a3 21 00 00 04       	mov    %eax,0x4000021
 28b:	00 00                	add    %al,(%eax)
 28d:	00 00                	add    %al,(%eax)
 28f:	00 d8                	add    %bl,%al
 291:	1d 00 01 2c 00       	sbb    $0x2c0100,%eax
	...
 29e:	00 00                	add    %al,(%eax)
 2a0:	1c 00                	sbb    $0x0,%al
 2a2:	00 00                	add    %al,(%eax)
 2a4:	02 00                	add    (%eax),%al
 2a6:	26 22 00             	and    %es:(%eax),%al
 2a9:	00 04 00             	add    %al,(%eax,%eax,1)
 2ac:	00 00                	add    %al,(%eax)
 2ae:	00 00                	add    %al,(%eax)
 2b0:	10 1e                	adc    %bl,(%esi)
 2b2:	00 01                	add    %al,(%ecx)
 2b4:	44                   	inc    %esp
 2b5:	05 00 00 00 00       	add    $0x0,%eax
 2ba:	00 00                	add    %al,(%eax)
 2bc:	00 00                	add    %al,(%eax)
	...

Disassembly of section .debug_pubnames:

00000000 <.debug_pubnames>:
   0:	26 00 00             	add    %al,%es:(%eax)
   3:	00 02                	add    %al,(%edx)
   5:	00 00                	add    %al,(%eax)
   7:	00 00                	add    %al,(%eax)
   9:	00 ec                	add    %ch,%ah
   b:	00 00                	add    %al,(%eax)
   d:	00 3c 00             	add    %bh,(%eax,%eax,1)
  10:	00 00                	add    %al,(%eax)
  12:	74 68                	je     7c <thread_run-0xffff84>
  14:	72 65                	jb     7b <thread_run-0xffff85>
  16:	61                   	popa   
  17:	64                   	fs
  18:	5f                   	pop    %edi
  19:	72 75                	jb     90 <thread_run-0xffff70>
  1b:	6e                   	outsb  %ds:(%esi),(%dx)
  1c:	00 7e 00             	add    %bh,0x0(%esi)
  1f:	00 00                	add    %al,(%eax)
  21:	6d                   	insl   (%dx),%es:(%edi)
  22:	61                   	popa   
  23:	69 6e 00 00 00 00 00 	imul   $0x0,0x0(%esi),%ebp
  2a:	18 00                	sbb    %al,(%eax)
  2c:	00 00                	add    %al,(%eax)
  2e:	02 00                	add    (%eax),%al
  30:	ec                   	in     (%dx),%al
  31:	00 00                	add    %al,(%eax)
  33:	00 a2 00 00 00 35    	add    %ah,0x35000000(%edx)
  39:	00 00                	add    %al,(%eax)
  3b:	00 5f 6d             	add    %bl,0x6d(%edi)
  3e:	61                   	popa   
  3f:	69 6e 00 00 00 00 00 	imul   $0x0,0x0(%esi),%ebp
  46:	43                   	inc    %ebx
  47:	01 00                	add    %eax,(%eax)
  49:	00 02                	add    %al,(%edx)
  4b:	00 8e 01 00 00 05    	add    %cl,0x5000001(%esi)
  51:	06                   	push   %es
  52:	00 00                	add    %al,(%eax)
  54:	71 01                	jno    57 <thread_run-0xffffa9>
  56:	00 00                	add    %al,(%eax)
  58:	74 68                	je     c2 <thread_run-0xffff3e>
  5a:	72 5f                	jb     bb <thread_run-0xffff45>
  5c:	73 65                	jae    c3 <thread_run-0xffff3d>
  5e:	74 5f                	je     bf <thread_run-0xffff41>
  60:	6d                   	insl   (%dx),%es:(%edi)
  61:	61                   	popa   
  62:	69 6e 5f 73 74 61 63 	imul   $0x63617473,0x5f(%esi),%ebp
  69:	6b 48 00 99          	imul   $0xffffff99,0x0(%eax),%ecx
  6d:	01 00                	add    %eax,(%eax)
  6f:	00 74 68 72          	add    %dh,0x72(%eax,%ebp,2)
  73:	5f                   	pop    %edi
  74:	73 65                	jae    db <thread_run-0xffff25>
  76:	74 5f                	je     d7 <thread_run-0xffff29>
  78:	6d                   	insl   (%dx),%es:(%edi)
  79:	61                   	popa   
  7a:	69 6e 5f 73 74 61 63 	imul   $0x63617473,0x5f(%esi),%ebp
  81:	6b 4c 00 c1 01       	imul   $0x1,-0x3f(%eax,%eax,1),%ecx
  86:	00 00                	add    %al,(%eax)
  88:	74 68                	je     f2 <thread_run-0xffff0e>
  8a:	72 5f                	jb     eb <thread_run-0xffff15>
  8c:	67                   	addr16
  8d:	65                   	gs
  8e:	74 5f                	je     ef <thread_run-0xffff11>
  90:	6d                   	insl   (%dx),%es:(%edi)
  91:	61                   	popa   
  92:	69 6e 5f 73 74 61 63 	imul   $0x63617473,0x5f(%esi),%ebp
  99:	6b 48 00 d2          	imul   $0xffffffd2,0x0(%eax),%ecx
  9d:	01 00                	add    %eax,(%eax)
  9f:	00 74 68 72          	add    %dh,0x72(%eax,%ebp,2)
  a3:	5f                   	pop    %edi
  a4:	67                   	addr16
  a5:	65                   	gs
  a6:	74 5f                	je     107 <thread_run-0xfffef9>
  a8:	6d                   	insl   (%dx),%es:(%edi)
  a9:	61                   	popa   
  aa:	69 6e 5f 73 74 61 63 	imul   $0x63617473,0x5f(%esi),%ebp
  b1:	6b 4c 00 e3 01       	imul   $0x1,-0x1d(%eax,%eax,1),%ecx
  b6:	00 00                	add    %al,(%eax)
  b8:	74 68                	je     122 <thread_run-0xfffede>
  ba:	72 5f                	jb     11b <thread_run-0xfffee5>
  bc:	69 6e 74 5f 64 65 61 	imul   $0x6165645f,0x74(%esi),%ebp
  c3:	6c                   	insb   (%dx),%es:(%edi)
  c4:	6c                   	insb   (%dx),%es:(%edi)
  c5:	6f                   	outsl  %ds:(%esi),(%dx)
  c6:	63 61 74             	arpl   %sp,0x74(%ecx)
  c9:	65                   	gs
  ca:	5f                   	pop    %edi
  cb:	73 74                	jae    141 <thread_run-0xfffebf>
  cd:	61                   	popa   
  ce:	63 6b 00             	arpl   %bp,0x0(%ebx)
  d1:	0d 02 00 00 74       	or     $0x74000002,%eax
  d6:	68 72 5f 69 6e       	push   $0x6e695f72
  db:	74 5f                	je     13c <thread_run-0xfffec4>
  dd:	69 6e 73 65 72 74 5f 	imul   $0x5f747265,0x73(%esi),%ebp
  e4:	74 63                	je     149 <thread_run-0xfffeb7>
  e6:	62 00                	bound  %eax,(%eax)
  e8:	54                   	push   %esp
  e9:	02 00                	add    (%eax),%al
  eb:	00 74 68 72          	add    %dh,0x72(%eax,%ebp,2)
  ef:	5f                   	pop    %edi
  f0:	69 6e 74 5f 61 6c 6c 	imul   $0x6c6c615f,0x74(%esi),%ebp
  f7:	6f                   	outsl  %ds:(%esi),(%dx)
  f8:	63 61 74             	arpl   %sp,0x74(%ecx)
  fb:	65                   	gs
  fc:	5f                   	pop    %edi
  fd:	6e                   	outsb  %ds:(%esi),(%dx)
  fe:	65                   	gs
  ff:	77 5f                	ja     160 <thread_run-0xfffea0>
 101:	74 69                	je     16c <thread_run-0xfffe94>
 103:	64 00 7f 02          	add    %bh,%fs:0x2(%edi)
 107:	00 00                	add    %al,(%eax)
 109:	74 68                	je     173 <thread_run-0xfffe8d>
 10b:	72 5f                	jb     16c <thread_run-0xfffe94>
 10d:	69 6e 74 5f 64 65 61 	imul   $0x6165645f,0x74(%esi),%ebp
 114:	6c                   	insb   (%dx),%es:(%edi)
 115:	6c                   	insb   (%dx),%es:(%edi)
 116:	6f                   	outsl  %ds:(%esi),(%dx)
 117:	63 61 74             	arpl   %sp,0x74(%ecx)
 11a:	65                   	gs
 11b:	5f                   	pop    %edi
 11c:	74 69                	je     187 <thread_run-0xfffe79>
 11e:	64 00 a9 02 00 00 74 	add    %ch,%fs:0x74000002(%ecx)
 125:	68 72 5f 69 6e       	push   $0x6e695f72
 12a:	74 5f                	je     18b <thread_run-0xfffe75>
 12c:	63 72 65             	arpl   %si,0x65(%edx)
 12f:	61                   	popa   
 130:	74 65                	je     197 <thread_run-0xfffe69>
 132:	5f                   	pop    %edi
 133:	74 63                	je     198 <thread_run-0xfffe68>
 135:	62 00                	bound  %eax,(%eax)
 137:	3a 03                	cmp    (%ebx),%al
 139:	00 00                	add    %al,(%eax)
 13b:	74 68                	je     1a5 <thread_run-0xfffe5b>
 13d:	72 5f                	jb     19e <thread_run-0xfffe62>
 13f:	69 6e 69 74 00 02 04 	imul   $0x4020074,0x69(%esi),%ebp
 146:	00 00                	add    %al,(%eax)
 148:	74 68                	je     1b2 <thread_run-0xfffe4e>
 14a:	72 5f                	jb     1ab <thread_run-0xfffe55>
 14c:	69 6e 74 5f 66 6f 72 	imul   $0x726f665f,0x74(%esi),%ebp
 153:	6b 5f 63 5f          	imul   $0x5f,0x63(%edi),%ebx
 157:	77 72                	ja     1cb <thread_run-0xfffe35>
 159:	61                   	popa   
 15a:	70 70                	jo     1cc <thread_run-0xfffe34>
 15c:	65                   	gs
 15d:	72 00                	jb     15f <thread_run-0xfffea1>
 15f:	a1 04 00 00 74       	mov    0x74000004,%eax
 164:	68 72 5f 69 6e       	push   $0x6e695f72
 169:	74 5f                	je     1ca <thread_run-0xfffe36>
 16b:	61                   	popa   
 16c:	6c                   	insb   (%dx),%es:(%edi)
 16d:	6c                   	insb   (%dx),%es:(%edi)
 16e:	6f                   	outsl  %ds:(%esi),(%dx)
 16f:	63 61 74             	arpl   %sp,0x74(%ecx)
 172:	65                   	gs
 173:	5f                   	pop    %edi
 174:	73 74                	jae    1ea <thread_run-0xfffe16>
 176:	61                   	popa   
 177:	63 6b 00             	arpl   %bp,0x0(%ebx)
 17a:	3b 05 00 00 74 68    	cmp    0x68740000,%eax
 180:	72 5f                	jb     1e1 <thread_run-0xfffe1f>
 182:	63 72 65             	arpl   %si,0x65(%edx)
 185:	61                   	popa   
 186:	74 65                	je     1ed <thread_run-0xfffe13>
 188:	00 00                	add    %al,(%eax)
 18a:	00 00                	add    %al,(%eax)
 18c:	00 39                	add    %bh,(%ecx)
 18e:	00 00                	add    %al,(%eax)
 190:	00 02                	add    %al,(%edx)
 192:	00 1f                	add    %bl,(%edi)
 194:	08 00                	or     %al,(%eax)
 196:	00 32                	add    %dh,(%edx)
 198:	01 00                	add    %eax,(%eax)
 19a:	00 3e                	add    %bh,(%esi)
 19c:	00 00                	add    %al,(%eax)
 19e:	00 66 72             	add    %ah,0x72(%esi)
 1a1:	65 65 00 68 00       	gs add %ch,%gs:0x0(%eax)
 1a6:	00 00                	add    %al,(%eax)
 1a8:	72 65                	jb     20f <thread_run-0xfffdf1>
 1aa:	61                   	popa   
 1ab:	6c                   	insb   (%dx),%es:(%edi)
 1ac:	6c                   	insb   (%dx),%es:(%edi)
 1ad:	6f                   	outsl  %ds:(%esi),(%dx)
 1ae:	63 00                	arpl   %ax,(%eax)
 1b0:	b1 00                	mov    $0x0,%cl
 1b2:	00 00                	add    %al,(%eax)
 1b4:	63 61 6c             	arpl   %sp,0x6c(%ecx)
 1b7:	6c                   	insb   (%dx),%es:(%edi)
 1b8:	6f                   	outsl  %ds:(%esi),(%dx)
 1b9:	63 00                	arpl   %ax,(%eax)
 1bb:	fa                   	cli    
 1bc:	00 00                	add    %al,(%eax)
 1be:	00 6d 61             	add    %ch,0x61(%ebp)
 1c1:	6c                   	insb   (%dx),%es:(%edi)
 1c2:	6c                   	insb   (%dx),%es:(%edi)
 1c3:	6f                   	outsl  %ds:(%esi),(%dx)
 1c4:	63 00                	arpl   %ax,(%eax)
 1c6:	00 00                	add    %al,(%eax)
 1c8:	00 00                	add    %al,(%eax)
 1ca:	ab                   	stos   %eax,%es:(%edi)
 1cb:	00 00                	add    %al,(%eax)
 1cd:	00 02                	add    %al,(%edx)
 1cf:	00 51 09             	add    %dl,0x9(%ecx)
 1d2:	00 00                	add    %al,(%eax)
 1d4:	c8 01 00 00          	enter  $0x1,$0x0
 1d8:	4f                   	dec    %edi
 1d9:	00 00                	add    %al,(%eax)
 1db:	00 73 69             	add    %dh,0x69(%ebx)
 1de:	6d                   	insl   (%dx),%es:(%edi)
 1df:	5f                   	pop    %edi
 1e0:	66                   	data16
 1e1:	72 5f                	jb     242 <thread_run-0xfffdbe>
 1e3:	68 65 72 65 00       	push   $0x657265
 1e8:	64 00 00             	add    %al,%fs:(%eax)
 1eb:	00 73 69             	add    %dh,0x69(%ebx)
 1ee:	6d                   	insl   (%dx),%es:(%edi)
 1ef:	5f                   	pop    %edi
 1f0:	66                   	data16
 1f1:	72 5f                	jb     252 <thread_run-0xfffdae>
 1f3:	70 72                	jo     267 <thread_run-0xfffd99>
 1f5:	6f                   	outsl  %ds:(%esi),(%dx)
 1f6:	67 00 91 00 00       	add    %dl,0x0(%bx,%di)
 1fb:	00 73 69             	add    %dh,0x69(%ebx)
 1fe:	6d                   	insl   (%dx),%es:(%edi)
 1ff:	5f                   	pop    %edi
 200:	63 6b 31             	arpl   %bp,0x31(%ebx)
 203:	00 a6 00 00 00 73    	add    %ah,0x73000000(%esi)
 209:	69 6d 5f 68 61 6c 74 	imul   $0x746c6168,0x5f(%ebp),%ebp
 210:	00 bb 00 00 00 73    	add    %bh,0x73000000(%ebx)
 216:	69 6d 5f 62 72 65 61 	imul   $0x61657262,0x5f(%ebp),%ebp
 21d:	6b 70 6f 69          	imul   $0x69,0x6f(%eax),%esi
 221:	6e                   	outsb  %ds:(%esi),(%dx)
 222:	74 00                	je     224 <thread_run-0xfffddc>
 224:	d0 00                	rolb   (%eax)
 226:	00 00                	add    %al,(%eax)
 228:	73 69                	jae    293 <thread_run-0xfffd6d>
 22a:	6d                   	insl   (%dx),%es:(%edi)
 22b:	5f                   	pop    %edi
 22c:	70 75                	jo     2a3 <thread_run-0xfffd5d>
 22e:	74 73                	je     2a3 <thread_run-0xfffd5d>
 230:	00 03                	add    %al,(%ebx)
 232:	01 00                	add    %eax,(%eax)
 234:	00 73 69             	add    %dh,0x69(%ebx)
 237:	6d                   	insl   (%dx),%es:(%edi)
 238:	5f                   	pop    %edi
 239:	6d                   	insl   (%dx),%es:(%edi)
 23a:	65                   	gs
 23b:	6d                   	insl   (%dx),%es:(%edi)
 23c:	73 69                	jae    2a7 <thread_run-0xfffd59>
 23e:	7a 65                	jp     2a5 <thread_run-0xfffd5b>
 240:	00 1c 01             	add    %bl,(%ecx,%eax,1)
 243:	00 00                	add    %al,(%eax)
 245:	73 69                	jae    2b0 <thread_run-0xfffd50>
 247:	6d                   	insl   (%dx),%es:(%edi)
 248:	5f                   	pop    %edi
 249:	69 6e 5f 73 69 6d 69 	imul   $0x696d6973,0x5f(%esi),%ebp
 250:	63 73 00             	arpl   %si,0x0(%ebx)
 253:	35 01 00 00 6d       	xor    $0x6d000001,%eax
 258:	61                   	popa   
 259:	67 69 63 5f 72 65 61 	imul   $0x64616572,0x5f(%bp,%di),%esp
 260:	64 
 261:	6c                   	insb   (%dx),%es:(%edi)
 262:	69 6e 65 00 75 01 00 	imul   $0x17500,0x65(%esi),%ebp
 269:	00 73 69             	add    %dh,0x69(%ebx)
 26c:	6d                   	insl   (%dx),%es:(%edi)
 26d:	5f                   	pop    %edi
 26e:	70 72                	jo     2e2 <thread_run-0xfffd1e>
 270:	69 6e 74 66 00 00 00 	imul   $0x66,0x74(%esi),%ebp
 277:	00 00                	add    %al,(%eax)
 279:	42                   	inc    %edx
 27a:	00 00                	add    %al,(%eax)
 27c:	00 02                	add    %al,(%edx)
 27e:	00 a0 0b 00 00 49    	add    %ah,0x4900000b(%eax)
 284:	02 00                	add    (%eax),%al
 286:	00 d3                	add    %dl,%bl
 288:	00 00                	add    %al,(%eax)
 28a:	00 76 73             	add    %dh,0x73(%esi)
 28d:	6e                   	outsb  %ds:(%esi),(%dx)
 28e:	70 72                	jo     302 <thread_run-0xfffcfe>
 290:	69 6e 74 66 00 40 01 	imul   $0x1400066,0x74(%esi),%ebp
 297:	00 00                	add    %al,(%eax)
 299:	73 6e                	jae    309 <thread_run-0xfffcf7>
 29b:	70 72                	jo     30f <thread_run-0xfffcf1>
 29d:	69 6e 74 66 00 a3 01 	imul   $0x1a30066,0x74(%esi),%ebp
 2a4:	00 00                	add    %al,(%eax)
 2a6:	76 73                	jbe    31b <thread_run-0xfffce5>
 2a8:	70 72                	jo     31c <thread_run-0xfffce4>
 2aa:	69 6e 74 66 00 f7 01 	imul   $0x1f70066,0x74(%esi),%ebp
 2b1:	00 00                	add    %al,(%eax)
 2b3:	73 70                	jae    325 <thread_run-0xfffcdb>
 2b5:	72 69                	jb     320 <thread_run-0xfffce0>
 2b7:	6e                   	outsb  %ds:(%esi),(%dx)
 2b8:	74 66                	je     320 <thread_run-0xfffce0>
 2ba:	00 00                	add    %al,(%eax)
 2bc:	00 00                	add    %al,(%eax)
 2be:	00 30                	add    %dh,(%eax)
 2c0:	00 00                	add    %al,(%eax)
 2c2:	00 02                	add    %al,(%edx)
 2c4:	00 e9                	add    %ch,%cl
 2c6:	0d 00 00 ff 04       	or     $0x4ff0000,%eax
 2cb:	00 00                	add    %al,(%eax)
 2cd:	80 01 00             	addb   $0x0,(%ecx)
 2d0:	00 5f 64             	add    %bl,0x64(%edi)
 2d3:	6f                   	outsl  %ds:(%esi),(%dx)
 2d4:	70 72                	jo     348 <thread_run-0xfffcb8>
 2d6:	6e                   	outsb  %ds:(%esi),(%dx)
 2d7:	74 00                	je     2d9 <thread_run-0xfffd27>
 2d9:	ec                   	in     (%dx),%al
 2da:	04 00                	add    $0x0,%al
 2dc:	00 5f 64             	add    %bl,0x64(%edi)
 2df:	6f                   	outsl  %ds:(%esi),(%dx)
 2e0:	70 72                	jo     354 <thread_run-0xfffcac>
 2e2:	6e                   	outsb  %ds:(%esi),(%dx)
 2e3:	74 5f                	je     344 <thread_run-0xfffcbc>
 2e5:	74 72                	je     359 <thread_run-0xfffca7>
 2e7:	75 6e                	jne    357 <thread_run-0xfffca9>
 2e9:	63 61 74             	arpl   %sp,0x74(%ecx)
 2ec:	65                   	gs
 2ed:	73 00                	jae    2ef <thread_run-0xfffd11>
 2ef:	00 00                	add    %al,(%eax)
 2f1:	00 00                	add    %al,(%eax)
 2f3:	17                   	pop    %ss
 2f4:	00 00                	add    %al,(%eax)
 2f6:	00 02                	add    %al,(%edx)
 2f8:	00 e8                	add    %ch,%al
 2fa:	12 00                	adc    (%eax),%al
 2fc:	00 5c 00 00          	add    %bl,0x0(%eax,%eax,1)
 300:	00 2c 00             	add    %ch,(%eax,%eax,1)
 303:	00 00                	add    %al,(%eax)
 305:	65                   	gs
 306:	78 69                	js     371 <thread_run-0xfffc8f>
 308:	74 00                	je     30a <thread_run-0xfffcf6>
 30a:	00 00                	add    %al,(%eax)
 30c:	00 00                	add    %al,(%eax)
 30e:	19 00                	sbb    %eax,(%eax)
 310:	00 00                	add    %al,(%eax)
 312:	02 00                	add    (%eax),%al
 314:	44                   	inc    %esp
 315:	13 00                	adc    (%eax),%eax
 317:	00 aa 00 00 00 3e    	add    %ch,0x3e000000(%edx)
 31d:	00 00                	add    %al,(%eax)
 31f:	00 6d 65             	add    %ch,0x65(%ebp)
 322:	6d                   	insl   (%dx),%es:(%edi)
 323:	73 65                	jae    38a <thread_run-0xfffc76>
 325:	74 00                	je     327 <thread_run-0xfffcd9>
 327:	00 00                	add    %al,(%eax)
 329:	00 00                	add    %al,(%eax)
 32b:	19 00                	sbb    %eax,(%eax)
 32d:	00 00                	add    %al,(%eax)
 32f:	02 00                	add    (%eax),%al
 331:	ee                   	out    %al,(%dx)
 332:	13 00                	adc    (%eax),%eax
 334:	00 74 00 00          	add    %dh,0x0(%eax,%eax,1)
 338:	00 25 00 00 00 73    	add    %ah,0x73000000
 33e:	74 72                	je     3b2 <thread_run-0xfffc4e>
 340:	6c                   	insb   (%dx),%es:(%edi)
 341:	65 6e                	outsb  %gs:(%esi),(%dx)
 343:	00 00                	add    %al,(%eax)
 345:	00 00                	add    %al,(%eax)
 347:	00 3d 00 00 00 02    	add    %bh,0x2000000
 34d:	00 62 14             	add    %ah,0x14(%edx)
 350:	00 00                	add    %al,(%eax)
 352:	29 01                	sub    %eax,(%ecx)
 354:	00 00                	add    %al,(%eax)
 356:	3e 00 00             	add    %al,%ds:(%eax)
 359:	00 5f 66             	add    %bl,0x66(%edi)
 35c:	72 65                	jb     3c3 <thread_run-0xfffc3d>
 35e:	65 00 68 00          	add    %ch,%gs:0x0(%eax)
 362:	00 00                	add    %al,(%eax)
 364:	5f                   	pop    %edi
 365:	72 65                	jb     3cc <thread_run-0xfffc34>
 367:	61                   	popa   
 368:	6c                   	insb   (%dx),%es:(%edi)
 369:	6c                   	insb   (%dx),%es:(%edi)
 36a:	6f                   	outsl  %ds:(%esi),(%dx)
 36b:	63 00                	arpl   %ax,(%eax)
 36d:	a2 00 00 00 5f       	mov    %al,0x5f000000
 372:	6d                   	insl   (%dx),%es:(%edi)
 373:	61                   	popa   
 374:	6c                   	insb   (%dx),%es:(%edi)
 375:	6c                   	insb   (%dx),%es:(%edi)
 376:	6f                   	outsl  %ds:(%esi),(%dx)
 377:	63 00                	arpl   %ax,(%eax)
 379:	ce                   	into   
 37a:	00 00                	add    %al,(%eax)
 37c:	00 5f 63             	add    %bl,0x63(%edi)
 37f:	61                   	popa   
 380:	6c                   	insb   (%dx),%es:(%edi)
 381:	6c                   	insb   (%dx),%es:(%edi)
 382:	6f                   	outsl  %ds:(%esi),(%dx)
 383:	63 00                	arpl   %ax,(%eax)
 385:	00 00                	add    %al,(%eax)
 387:	00 00                	add    %al,(%eax)
 389:	54                   	push   %esp
 38a:	00 00                	add    %al,(%eax)
 38c:	00 02                	add    %al,(%edx)
 38e:	00 8b 15 00 00 b2    	add    %cl,-0x4dffffeb(%ebx)
 394:	03 00                	add    (%eax),%eax
 396:	00 09                	add    %cl,(%ecx)
 398:	01 00                	add    %eax,(%eax)
 39a:	00 6d 6d             	add    %ch,0x6d(%ebp)
 39d:	5f                   	pop    %edi
 39e:	66                   	data16
 39f:	72 65                	jb     406 <thread_run-0xfffbfa>
 3a1:	65                   	gs
 3a2:	00 db                	add    %bl,%bl
 3a4:	01 00                	add    %eax,(%eax)
 3a6:	00 6d 6d             	add    %ch,0x6d(%ebp)
 3a9:	5f                   	pop    %edi
 3aa:	63 68 65             	arpl   %bp,0x65(%eax)
 3ad:	63 6b 68             	arpl   %bp,0x68(%ebx)
 3b0:	65                   	gs
 3b1:	61                   	popa   
 3b2:	70 00                	jo     3b4 <thread_run-0xfffc4c>
 3b4:	87 02                	xchg   %eax,(%edx)
 3b6:	00 00                	add    %al,(%eax)
 3b8:	6d                   	insl   (%dx),%es:(%edi)
 3b9:	6d                   	insl   (%dx),%es:(%edi)
 3ba:	5f                   	pop    %edi
 3bb:	6d                   	insl   (%dx),%es:(%edi)
 3bc:	61                   	popa   
 3bd:	6c                   	insb   (%dx),%es:(%edi)
 3be:	6c                   	insb   (%dx),%es:(%edi)
 3bf:	6f                   	outsl  %ds:(%esi),(%dx)
 3c0:	63 00                	arpl   %ax,(%eax)
 3c2:	07                   	pop    %es
 3c3:	03 00                	add    (%eax),%eax
 3c5:	00 6d 6d             	add    %ch,0x6d(%ebp)
 3c8:	5f                   	pop    %edi
 3c9:	72 65                	jb     430 <thread_run-0xfffbd0>
 3cb:	61                   	popa   
 3cc:	6c                   	insb   (%dx),%es:(%edi)
 3cd:	6c                   	insb   (%dx),%es:(%edi)
 3ce:	6f                   	outsl  %ds:(%esi),(%dx)
 3cf:	63 00                	arpl   %ax,(%eax)
 3d1:	87 03                	xchg   %eax,(%ebx)
 3d3:	00 00                	add    %al,(%eax)
 3d5:	6d                   	insl   (%dx),%es:(%edi)
 3d6:	6d                   	insl   (%dx),%es:(%edi)
 3d7:	5f                   	pop    %edi
 3d8:	69 6e 69 74 00 00 00 	imul   $0x74,0x69(%esi),%ebp
 3df:	00 00                	add    %al,(%eax)
 3e1:	28 00                	sub    %al,(%eax)
 3e3:	00 00                	add    %al,(%eax)
 3e5:	02 00                	add    (%eax),%al
 3e7:	3d 19 00 00 13       	cmp    $0x13000019,%eax
 3ec:	01 00                	add    %eax,(%eax)
 3ee:	00 3c 00             	add    %bh,(%eax,%eax,1)
 3f1:	00 00                	add    %al,(%eax)
 3f3:	6d                   	insl   (%dx),%es:(%edi)
 3f4:	65                   	gs
 3f5:	6d                   	insl   (%dx),%es:(%edi)
 3f6:	5f                   	pop    %edi
 3f7:	73 62                	jae    45b <thread_run-0xfffba5>
 3f9:	72 6b                	jb     466 <thread_run-0xfffb9a>
 3fb:	00 9d 00 00 00 6d    	add    %bl,0x6d000000(%ebp)
 401:	65                   	gs
 402:	6d                   	insl   (%dx),%es:(%edi)
 403:	5f                   	pop    %edi
 404:	69 6e 69 74 00 00 00 	imul   $0x74,0x69(%esi),%ebp
 40b:	00 00                	add    %al,(%eax)
 40d:	10 01                	adc    %al,(%ecx)
 40f:	00 00                	add    %al,(%eax)
 411:	02 00                	add    (%eax),%al
 413:	50                   	push   %eax
 414:	1a 00                	sbb    (%eax),%al
 416:	00 32                	add    %dh,(%edx)
 418:	05 00 00 80 01       	add    $0x1800000,%eax
 41d:	00 00                	add    %al,(%eax)
 41f:	65                   	gs
 420:	78 65                	js     487 <thread_run-0xfffb79>
 422:	63 00                	arpl   %ax,(%eax)
 424:	d4 01                	aam    $0x1
 426:	00 00                	add    %al,(%eax)
 428:	73 65                	jae    48f <thread_run-0xfffb71>
 42a:	74 5f                	je     48b <thread_run-0xfffb75>
 42c:	73 74                	jae    4a2 <thread_run-0xfffb5e>
 42e:	61                   	popa   
 42f:	74 75                	je     4a6 <thread_run-0xfffb5a>
 431:	73 00                	jae    433 <thread_run-0xfffbcd>
 433:	fc                   	cld    
 434:	01 00                	add    %eax,(%eax)
 436:	00 77 61             	add    %dh,0x61(%edi)
 439:	69 74 00 2e 02 00 00 	imul   $0x79000002,0x2e(%eax,%eax,1),%esi
 440:	79 
 441:	69 65 6c 64 00 5a 02 	imul   $0x25a0064,0x6c(%ebp),%esp
 448:	00 00                	add    %al,(%eax)
 44a:	64                   	fs
 44b:	65                   	gs
 44c:	73 63                	jae    4b1 <thread_run-0xfffb4f>
 44e:	68 65 64 75 6c       	push   $0x6c756465
 453:	65 00 86 02 00 00 6d 	add    %al,%gs:0x6d000002(%esi)
 45a:	61                   	popa   
 45b:	6b 65 5f 72          	imul   $0x72,0x5f(%ebp),%esp
 45f:	75 6e                	jne    4cf <thread_run-0xfffb31>
 461:	6e                   	outsb  %ds:(%esi),(%dx)
 462:	61                   	popa   
 463:	62 6c 65 00          	bound  %ebp,0x0(%ebp,%eiz,2)
 467:	b2 02                	mov    $0x2,%dl
 469:	00 00                	add    %al,(%eax)
 46b:	67                   	addr16
 46c:	65                   	gs
 46d:	74 74                	je     4e3 <thread_run-0xfffb1d>
 46f:	69 64 00 cb 02 00 00 	imul   $0x73000002,-0x35(%eax,%eax,1),%esp
 476:	73 
 477:	77 65                	ja     4de <thread_run-0xfffb22>
 479:	78 6e                	js     4e9 <thread_run-0xfffb17>
 47b:	00 21                	add    %ah,(%ecx)
 47d:	03 00                	add    (%eax),%eax
 47f:	00 67 65             	add    %ah,0x65(%edi)
 482:	74 63                	je     4e7 <thread_run-0xfffb19>
 484:	68 61 72 00 3a       	push   $0x3a007261
 489:	03 00                	add    (%eax),%eax
 48b:	00 72 65             	add    %dh,0x65(%edx)
 48e:	61                   	popa   
 48f:	64                   	fs
 490:	6c                   	insb   (%dx),%es:(%edi)
 491:	69 6e 65 00 74 03 00 	imul   $0x37400,0x65(%esi),%ebp
 498:	00 70 72             	add    %dh,0x72(%eax)
 49b:	69 6e 74 00 ae 03 00 	imul   $0x3ae00,0x74(%esi),%ebp
 4a2:	00 73 65             	add    %dh,0x65(%ebx)
 4a5:	74 5f                	je     506 <thread_run-0xfffafa>
 4a7:	74 65                	je     50e <thread_run-0xfffaf2>
 4a9:	72 6d                	jb     518 <thread_run-0xfffae8>
 4ab:	5f                   	pop    %edi
 4ac:	63 6f 6c             	arpl   %bp,0x6c(%edi)
 4af:	6f                   	outsl  %ds:(%esi),(%dx)
 4b0:	72 00                	jb     4b2 <thread_run-0xfffb4e>
 4b2:	da 03                	fiaddl (%ebx)
 4b4:	00 00                	add    %al,(%eax)
 4b6:	67                   	addr16
 4b7:	65                   	gs
 4b8:	74 5f                	je     519 <thread_run-0xfffae7>
 4ba:	63 75 72             	arpl   %si,0x72(%ebp)
 4bd:	73 6f                	jae    52e <thread_run-0xfffad2>
 4bf:	72 5f                	jb     520 <thread_run-0xfffae0>
 4c1:	70 6f                	jo     532 <thread_run-0xffface>
 4c3:	73 00                	jae    4c5 <thread_run-0xfffb3b>
 4c5:	14 04                	adc    $0x4,%al
 4c7:	00 00                	add    %al,(%eax)
 4c9:	73 65                	jae    530 <thread_run-0xfffad0>
 4cb:	74 5f                	je     52c <thread_run-0xfffad4>
 4cd:	63 75 72             	arpl   %si,0x72(%ebp)
 4d0:	73 6f                	jae    541 <thread_run-0xfffabf>
 4d2:	72 5f                	jb     533 <thread_run-0xfffacd>
 4d4:	70 6f                	jo     545 <thread_run-0xfffabb>
 4d6:	73 00                	jae    4d8 <thread_run-0xfffb28>
 4d8:	4e                   	dec    %esi
 4d9:	04 00                	add    $0x0,%al
 4db:	00 68 61             	add    %ch,0x61(%eax)
 4de:	6c                   	insb   (%dx),%es:(%edi)
 4df:	74 00                	je     4e1 <thread_run-0xfffb1f>
 4e1:	63 04 00             	arpl   %ax,(%eax,%eax,1)
 4e4:	00 72 65             	add    %dh,0x65(%edx)
 4e7:	61                   	popa   
 4e8:	64 66 69 6c 65 00 b9 	imul   $0x4b9,%fs:0x0(%ebp,%eiz,2),%bp
 4ef:	04 
 4f0:	00 00                	add    %al,(%eax)
 4f2:	74 61                	je     555 <thread_run-0xfffaab>
 4f4:	73 6b                	jae    561 <thread_run-0xfffa9f>
 4f6:	5f                   	pop    %edi
 4f7:	76 61                	jbe    55a <thread_run-0xfffaa6>
 4f9:	6e                   	outsb  %ds:(%esi),(%dx)
 4fa:	69 73 68 00 e1 04 00 	imul   $0x4e100,0x68(%ebx),%esi
 501:	00 72 65             	add    %dh,0x65(%edx)
 504:	6d                   	insl   (%dx),%es:(%edi)
 505:	6f                   	outsl  %ds:(%esi),(%dx)
 506:	76 65                	jbe    56d <thread_run-0xfffa93>
 508:	5f                   	pop    %edi
 509:	70 61                	jo     56c <thread_run-0xfffa94>
 50b:	67                   	addr16
 50c:	65                   	gs
 50d:	73 00                	jae    50f <thread_run-0xfffaf1>
 50f:	0d 05 00 00 6d       	or     $0x6d000005,%eax
 514:	69 73 62 65 68 61 76 	imul   $0x76616865,0x62(%ebx),%esi
 51b:	65 00 00             	add    %al,%gs:(%eax)
 51e:	00 00                	add    %al,(%eax)
 520:	00 24 00             	add    %ah,(%eax,%eax,1)
 523:	00 00                	add    %al,(%eax)
 525:	02 00                	add    (%eax),%al
 527:	8f                   	(bad)  
 528:	20 00                	and    %al,(%eax)
 52a:	00 91 00 00 00 25    	add    %dl,0x25000000(%ecx)
 530:	00 00                	add    %al,(%eax)
 532:	00 69 6e             	add    %ch,0x6e(%ecx)
 535:	73 74                	jae    5ab <thread_run-0xfffa55>
 537:	61                   	popa   
 538:	6c                   	insb   (%dx),%es:(%edi)
 539:	6c                   	insb   (%dx),%es:(%edi)
 53a:	5f                   	pop    %edi
 53b:	61                   	popa   
 53c:	75 74                	jne    5b2 <thread_run-0xfffa4e>
 53e:	6f                   	outsl  %ds:(%esi),(%dx)
 53f:	73 74                	jae    5b5 <thread_run-0xfffa4b>
 541:	61                   	popa   
 542:	63 6b 00             	arpl   %bp,0x0(%ebx)
 545:	00 00                	add    %al,(%eax)
 547:	00 00                	add    %al,(%eax)
 549:	38 00                	cmp    %al,(%eax)
 54b:	00 00                	add    %al,(%eax)
 54d:	02 00                	add    (%eax),%al
 54f:	26 22 00             	and    %es:(%eax),%al
 552:	00 9e 03 00 00 1b    	add    %bl,0x1b000003(%esi)
 558:	01 00                	add    %eax,(%eax)
 55a:	00 5f 5f             	add    %bl,0x5f(%edi)
 55d:	71 64                	jno    5c3 <thread_run-0xfffa3d>
 55f:	69 76 72 65 6d 00 21 	imul   $0x21006d65,0x72(%esi),%esi
 566:	03 00                	add    (%eax),%eax
 568:	00 5f 5f             	add    %bl,0x5f(%edi)
 56b:	75 6d                	jne    5da <thread_run-0xfffa26>
 56d:	6f                   	outsl  %ds:(%esi),(%dx)
 56e:	64 64 69 33 00 68 03 	fs imul $0x36800,%fs:(%ebx),%esi
 575:	00 
 576:	00 5f 5f             	add    %bl,0x5f(%edi)
 579:	75 64                	jne    5df <thread_run-0xfffa21>
 57b:	69 76 64 69 33 00 00 	imul   $0x3369,0x64(%esi),%esi
 582:	00 00                	add    %al,(%eax)
	...

Disassembly of section .debug_info:

00000000 <.debug_info>:
       0:	e8 00 00 00 02       	call   2000005 <_end+0xffc6b9>
       5:	00 00                	add    %al,(%eax)
       7:	00 00                	add    %al,(%eax)
       9:	00 04 01             	add    %al,(%ecx,%eax,1)
       c:	0d 00 00 00 01       	or     $0x1000000,%eax
      11:	34 00                	xor    $0x0,%al
      13:	00 00                	add    %al,(%eax)
      15:	47                   	inc    %edi
      16:	00 00                	add    %al,(%eax)
      18:	00 00                	add    %al,(%eax)
      1a:	00 00                	add    %al,(%eax)
      1c:	01 83 00 00 01 00    	add    %eax,0x10000(%ebx)
      22:	00 00                	add    %al,(%eax)
      24:	00 02                	add    %al,(%edx)
      26:	04 07                	add    $0x7,%al
      28:	9e                   	sahf   
      29:	05 00 00 02 04       	add    $0x4020000,%eax
      2e:	07                   	pop    %es
      2f:	99                   	cltd   
      30:	05 00 00 02 01       	add    $0x1020000,%eax
      35:	06                   	push   %es
      36:	24 05                	and    $0x5,%al
      38:	00 00                	add    %al,(%eax)
      3a:	03 04 04             	add    (%esp,%eax,1),%eax
      3d:	01 86 00 00 00 01    	add    %eax,0x1000000(%esi)
      43:	07                   	pop    %es
      44:	01 3a                	add    %edi,(%edx)
      46:	00 00                	add    %al,(%eax)
      48:	00 00                	add    %al,(%eax)
      4a:	00 00                	add    %al,(%eax)
      4c:	01 1d 00 00 01 00    	add    %ebx,0x10000
      52:	00 00                	add    %al,(%eax)
      54:	00 77 00             	add    %dh,0x0(%edi)
      57:	00 00                	add    %al,(%eax)
      59:	05 97 00 00 00       	add    $0x97,%eax
      5e:	01 07                	add    %eax,(%edi)
      60:	3a 00                	cmp    (%eax),%al
      62:	00 00                	add    %al,(%eax)
      64:	02 91 00 06 91 00    	add    0x910600(%ecx),%dl
      6a:	00 00                	add    %al,(%eax)
      6c:	01 09                	add    %ecx,(%ecx)
      6e:	77 00                	ja     70 <thread_run-0xffff90>
      70:	00 00                	add    %al,(%eax)
      72:	2c 00                	sub    $0x0,%al
      74:	00 00                	add    %al,(%eax)
      76:	00 07                	add    %al,(%edi)
      78:	04 05                	add    $0x5,%al
      7a:	69 6e 74 00 08 01 a3 	imul   $0xa3010800,0x74(%esi),%ebp
      81:	00 00                	add    %al,(%eax)
      83:	00 01                	add    %al,(%ecx)
      85:	16                   	push   %ss
      86:	77 00                	ja     88 <thread_run-0xffff78>
      88:	00 00                	add    %al,(%eax)
      8a:	1d 00 00 01 83       	sbb    $0x83010000,%eax
      8f:	00 00                	add    %al,(%eax)
      91:	01 41 00             	add    %eax,0x0(%ecx)
      94:	00 00                	add    %al,(%eax)
      96:	d6                   	(bad)  
      97:	00 00                	add    %al,(%eax)
      99:	00 09                	add    %cl,(%ecx)
      9b:	72 63                	jb     100 <thread_run-0xffff00>
      9d:	00 01                	add    %al,(%ecx)
      9f:	18 77 00             	sbb    %dh,0x0(%edi)
      a2:	00 00                	add    %al,(%eax)
      a4:	6d                   	insl   (%dx),%es:(%edi)
      a5:	00 00                	add    %al,(%eax)
      a7:	00 09                	add    %cl,(%ecx)
      a9:	74 69                	je     114 <thread_run-0xfffeec>
      ab:	64 00 01             	add    %al,%fs:(%ecx)
      ae:	19 77 00             	sbb    %esi,0x0(%edi)
      b1:	00 00                	add    %al,(%eax)
      b3:	8c 00                	mov    %es,(%eax)
      b5:	00 00                	add    %al,(%eax)
      b7:	0a 9d 00 00 00 01    	or     0x1000000(%ebp),%bl
      bd:	1a 77 00             	sbb    0x0(%edi),%dh
      c0:	00 00                	add    %al,(%eax)
      c2:	02 91 74 0b 00 00    	add    0xb74(%ecx),%dl
      c8:	00 00                	add    %al,(%eax)
      ca:	e6 00                	out    %al,$0x0
      cc:	00 00                	add    %al,(%eax)
      ce:	01 05 03 cf 23 00    	add    %eax,0x23cf03
      d4:	01 00                	add    %eax,(%eax)
      d6:	0c 33                	or     $0x33,%al
      d8:	00 00                	add    %al,(%eax)
      da:	00 e6                	add    %ah,%dh
      dc:	00 00                	add    %al,(%eax)
      de:	00 0d 25 00 00 00    	add    %cl,0x25
      e4:	04 00                	add    $0x0,%al
      e6:	0e                   	push   %cs
      e7:	d6                   	(bad)  
      e8:	00 00                	add    %al,(%eax)
      ea:	00 00                	add    %al,(%eax)
      ec:	9e                   	sahf   
      ed:	00 00                	add    %al,(%eax)
      ef:	00 02                	add    %al,(%edx)
      f1:	00 c3                	add    %al,%bl
      f3:	00 00                	add    %al,(%eax)
      f5:	00 04 01             	add    %al,(%ecx,%eax,1)
      f8:	0d 00 00 00 01       	or     $0x1000000,%eax
      fd:	a8 00                	test   $0x0,%al
      ff:	00 00                	add    %al,(%eax)
     101:	47                   	inc    %edi
     102:	00 00                	add    %al,(%eax)
     104:	00 84 00 00 01 b6 00 	add    %al,0xb60100(%eax,%eax,1)
     10b:	00 01                	add    %al,(%ecx)
     10d:	4c                   	dec    %esp
     10e:	00 00                	add    %al,(%eax)
     110:	00 02                	add    %al,(%edx)
     112:	04 07                	add    $0x7,%al
     114:	9e                   	sahf   
     115:	05 00 00 02 04       	add    $0x4020000,%eax
     11a:	07                   	pop    %es
     11b:	99                   	cltd   
     11c:	05 00 00 03 04       	add    $0x4030000,%eax
     121:	04 01                	add    $0x1,%al
     123:	a2 00 00 00 01       	mov    %al,0x1000000
     128:	0f 01 84 00 00 01 b6 	sgdtl  0xb60100(%eax,%eax,1)
     12f:	00 
     130:	00 01                	add    %al,(%ecx)
     132:	ab                   	stos   %eax,%es:(%edi)
     133:	00 00                	add    %al,(%eax)
     135:	00 87 00 00 00 05    	add    %al,0x5000000(%edi)
     13b:	c2 00 00             	ret    $0x0
     13e:	00 01                	add    %al,(%ecx)
     140:	0f 87 00 00 00 02    	ja     2000146 <_end+0xffc7fa>
     146:	91                   	xchg   %eax,%ecx
     147:	00 05 d1 00 00 00    	add    %al,0xd1
     14d:	01 0f                	add    %ecx,(%edi)
     14f:	8e 00                	mov    (%eax),%es
     151:	00 00                	add    %al,(%eax)
     153:	02 91 04 05 b7 00    	add    0xb70504(%ecx),%dl
     159:	00 00                	add    %al,(%eax)
     15b:	01 0f                	add    %ecx,(%edi)
     15d:	33 00                	xor    (%eax),%eax
     15f:	00 00                	add    %al,(%eax)
     161:	02 91 08 05 c7 00    	add    0xc70508(%ecx),%dl
     167:	00 00                	add    %al,(%eax)
     169:	01 0f                	add    %ecx,(%edi)
     16b:	33 00                	xor    (%eax),%eax
     16d:	00 00                	add    %al,(%eax)
     16f:	02 91 0c 00 06 04    	add    0x406000c(%ecx),%dl
     175:	05 69 6e 74 00       	add    $0x746e69,%eax
     17a:	07                   	pop    %es
     17b:	04 94                	add    $0x94,%al
     17d:	00 00                	add    %al,(%eax)
     17f:	00 07                	add    %al,(%edi)
     181:	04 9a                	add    $0x9a,%al
     183:	00 00                	add    %al,(%eax)
     185:	00 02                	add    %al,(%edx)
     187:	01 06                	add    %eax,(%esi)
     189:	24 05                	and    $0x5,%al
     18b:	00 00                	add    %al,(%eax)
     18d:	00 01                	add    %al,(%ecx)
     18f:	06                   	push   %es
     190:	00 00                	add    %al,(%eax)
     192:	02 00                	add    (%eax),%al
     194:	23 01                	and    (%ecx),%eax
     196:	00 00                	add    %al,(%eax)
     198:	04 01                	add    $0x1,%al
     19a:	0d 00 00 00 01       	or     $0x1000000,%eax
     19f:	f5                   	cmc    
     1a0:	02 00                	add    (%eax),%al
     1a2:	00 47 00             	add    %al,0x0(%edi)
     1a5:	00 00                	add    %al,(%eax)
     1a7:	b8 00 00 01 5b       	mov    $0x5b010000,%eax
     1ac:	04 00                	add    $0x0,%al
     1ae:	01 8d 00 00 00 02    	add    %ecx,0x2000000(%ebp)
     1b4:	04 07                	add    $0x7,%al
     1b6:	9e                   	sahf   
     1b7:	05 00 00 02 04       	add    $0x4020000,%eax
     1bc:	07                   	pop    %es
     1bd:	99                   	cltd   
     1be:	05 00 00 02 01       	add    $0x1020000,%eax
     1c3:	06                   	push   %es
     1c4:	24 05                	and    $0x5,%al
     1c6:	00 00                	add    %al,(%eax)
     1c8:	03 04 04             	add    (%esp,%eax,1),%eax
     1cb:	db 00                	fildl  (%eax)
     1cd:	00 00                	add    %al,(%eax)
     1cf:	02 0f                	add    (%edi),%cl
     1d1:	2c 00                	sub    $0x0,%al
     1d3:	00 00                	add    %al,(%eax)
     1d5:	05 64 01 00 00       	add    $0x164,%eax
     1da:	08 02                	or     %al,(%edx)
     1dc:	11 70 00             	adc    %esi,0x0(%eax)
     1df:	00 00                	add    %al,(%eax)
     1e1:	06                   	push   %es
     1e2:	92                   	xchg   %eax,%edx
     1e3:	01 00                	add    %eax,(%eax)
     1e5:	00 02                	add    %al,(%edx)
     1e7:	13 70 00             	adc    0x0(%eax),%esi
     1ea:	00 00                	add    %al,(%eax)
     1ec:	02 23                	add    (%ebx),%ah
     1ee:	00 06                	add    %al,(%esi)
     1f0:	d6                   	(bad)  
     1f1:	00 00                	add    %al,(%eax)
     1f3:	00 02                	add    %al,(%edx)
     1f5:	14 76                	adc    $0x76,%al
     1f7:	00 00                	add    %al,(%eax)
     1f9:	00 02                	add    %al,(%edx)
     1fb:	23 04 00             	and    (%eax,%eax,1),%eax
     1fe:	07                   	pop    %es
     1ff:	04 33                	add    $0x33,%al
     201:	00 00                	add    %al,(%eax)
     203:	00 07                	add    %al,(%edi)
     205:	04 47                	add    $0x47,%al
     207:	00 00                	add    %al,(%eax)
     209:	00 04 79             	add    %al,(%ecx,%edi,2)
     20c:	01 00                	add    %eax,(%eax)
     20e:	00 02                	add    %al,(%edx)
     210:	16                   	push   %ss
     211:	47                   	inc    %edi
     212:	00 00                	add    %al,(%eax)
     214:	00 05 f6 01 00 00    	add    %al,0x1f6
     21a:	18 02                	sbb    %al,(%edx)
     21c:	1b e8                	sbb    %eax,%ebp
     21e:	00 00                	add    %al,(%eax)
     220:	00 06                	add    %al,(%esi)
     222:	ed                   	in     (%dx),%eax
     223:	00 00                	add    %al,(%eax)
     225:	00 02                	add    %al,(%edx)
     227:	1d 70 00 00 00       	sbb    $0x70,%eax
     22c:	02 23                	add    (%ebx),%ah
     22e:	00 06                	add    %al,(%esi)
     230:	55                   	push   %ebp
     231:	02 00                	add    (%eax),%al
     233:	00 02                	add    %al,(%edx)
     235:	1e                   	push   %ds
     236:	70 00                	jo     238 <thread_run-0xfffdc8>
     238:	00 00                	add    %al,(%eax)
     23a:	02 23                	add    (%ebx),%ah
     23c:	04 06                	add    $0x6,%al
     23e:	9f                   	lahf   
     23f:	01 00                	add    %eax,(%eax)
     241:	00 02                	add    %al,(%edx)
     243:	1f                   	pop    %ds
     244:	70 00                	jo     246 <thread_run-0xfffdba>
     246:	00 00                	add    %al,(%eax)
     248:	02 23                	add    (%ebx),%ah
     24a:	08 06                	or     %al,(%esi)
     24c:	56                   	push   %esi
     24d:	01 00                	add    %eax,(%eax)
     24f:	00 02                	add    %al,(%edx)
     251:	20 70 00             	and    %dh,0x0(%eax)
     254:	00 00                	add    %al,(%eax)
     256:	02 23                	add    (%ebx),%ah
     258:	0c 06                	or     $0x6,%al
     25a:	c8 02 00 00          	enter  $0x2,$0x0
     25e:	02 21                	add    (%ecx),%ah
     260:	25 00 00 00 02       	and    $0x2000000,%eax
     265:	23 10                	and    (%eax),%edx
     267:	06                   	push   %es
     268:	d4 02                	aam    $0x2
     26a:	00 00                	add    %al,(%eax)
     26c:	02 22                	add    (%edx),%ah
     26e:	e8 00 00 00 02       	call   2000273 <_end+0xffc927>
     273:	23 14 00             	and    (%eax,%eax,1),%edx
     276:	07                   	pop    %es
     277:	04 7c                	add    $0x7c,%al
     279:	00 00                	add    %al,(%eax)
     27b:	00 04 04             	add    %al,(%esp,%eax,1)
     27e:	02 00                	add    (%eax),%al
     280:	00 02                	add    %al,(%edx)
     282:	24 87                	and    $0x87,%al
     284:	00 00                	add    %al,(%eax)
     286:	00 05 e1 00 00 00    	add    %al,0xe1
     28c:	14 02                	adc    $0x2,%al
     28e:	29 4c 01 00          	sub    %ecx,0x0(%ecx,%eax,1)
     292:	00 06                	add    %al,(%esi)
     294:	16                   	push   %ss
     295:	03 00                	add    (%eax),%eax
     297:	00 02                	add    %al,(%edx)
     299:	2b 70 00             	sub    0x0(%eax),%esi
     29c:	00 00                	add    %al,(%eax)
     29e:	02 23                	add    (%ebx),%ah
     2a0:	00 06                	add    %al,(%esi)
     2a2:	8e 01                	mov    (%ecx),%es
     2a4:	00 00                	add    %al,(%eax)
     2a6:	02 2c 70             	add    (%eax,%esi,2),%ch
     2a9:	00 00                	add    %al,(%eax)
     2ab:	00 02                	add    %al,(%edx)
     2ad:	23 04 08             	and    (%eax,%ecx,1),%eax
     2b0:	74 69                	je     31b <thread_run-0xfffce5>
     2b2:	64 00 02             	add    %al,%fs:(%edx)
     2b5:	2d 3c 00 00 00       	sub    $0x3c,%eax
     2ba:	02 23                	add    (%ebx),%ah
     2bc:	08 06                	or     %al,(%esi)
     2be:	3d 02 00 00 02       	cmp    $0x2000002,%eax
     2c3:	2e 3a 00             	cmp    %cs:(%eax),%al
     2c6:	00 00                	add    %al,(%eax)
     2c8:	02 23                	add    (%ebx),%ah
     2ca:	0c 06                	or     $0x6,%al
     2cc:	9d                   	popf   
     2cd:	00 00                	add    %al,(%eax)
     2cf:	00 02                	add    %al,(%edx)
     2d1:	2f                   	das    
     2d2:	3a 00                	cmp    (%eax),%al
     2d4:	00 00                	add    %al,(%eax)
     2d6:	02 23                	add    (%ebx),%ah
     2d8:	10 00                	adc    %al,(%eax)
     2da:	04 e7                	add    $0xe7,%al
     2dc:	00 00                	add    %al,(%eax)
     2de:	00 02                	add    %al,(%edx)
     2e0:	31 f9                	xor    %edi,%ecx
     2e2:	00 00                	add    %al,(%eax)
     2e4:	00 09                	add    %cl,(%ecx)
     2e6:	01 03                	add    %eax,(%ebx)
     2e8:	01 00                	add    %eax,(%eax)
     2ea:	00 01                	add    %al,(%ecx)
     2ec:	c1                   	(bad)  
     2ed:	70 00                	jo     2ef <thread_run-0xfffd11>
     2ef:	00 00                	add    %al,(%eax)
     2f1:	03 09                	add    (%ecx),%ecx
     2f3:	01 17                	add    %edx,(%edi)
     2f5:	01 00                	add    %eax,(%eax)
     2f7:	00 01                	add    %al,(%ecx)
     2f9:	c7                   	(bad)  
     2fa:	70 00                	jo     2fc <thread_run-0xfffd04>
     2fc:	00 00                	add    %al,(%eax)
     2fe:	03 0a                	add    (%edx),%ecx
     300:	01 29                	add    %ebp,(%ecx)
     302:	02 00                	add    (%eax),%al
     304:	00 01                	add    %al,(%ecx)
     306:	b3 01                	mov    $0x1,%bl
     308:	b8 00 00 01 c5       	mov    $0xc5010000,%eax
     30d:	00 00                	add    %al,(%eax)
     30f:	01 d7                	add    %edx,%edi
     311:	00 00                	add    %al,(%eax)
     313:	00 99 01 00 00 0b    	add    %bl,0xb000001(%ecx)
     319:	91                   	xchg   %eax,%ecx
     31a:	00 00                	add    %al,(%eax)
     31c:	00 01                	add    %al,(%ecx)
     31e:	b3 70                	mov    $0x70,%bl
     320:	00 00                	add    %al,(%eax)
     322:	00 02                	add    %al,(%edx)
     324:	91                   	xchg   %eax,%ecx
     325:	00 00                	add    %al,(%eax)
     327:	0a 01                	or     (%ecx),%al
     329:	3e 01 00             	add    %eax,%ds:(%eax)
     32c:	00 01                	add    %al,(%ecx)
     32e:	ba 01 c5 00 00       	mov    $0xc501,%edx
     333:	01 d2                	add    %edx,%edx
     335:	00 00                	add    %al,(%eax)
     337:	01 0f                	add    %ecx,(%edi)
     339:	01 00                	add    %eax,(%eax)
     33b:	00 c1                	add    %al,%cl
     33d:	01 00                	add    %eax,(%eax)
     33f:	00 0b                	add    %cl,(%ebx)
     341:	91                   	xchg   %eax,%ecx
     342:	00 00                	add    %al,(%eax)
     344:	00 01                	add    %al,(%ecx)
     346:	ba 70 00 00 00       	mov    $0x70,%edx
     34b:	02 91 00 00 0c 57    	add    0x570c0000(%ecx),%dl
     351:	01 00                	add    %eax,(%eax)
     353:	00 d2                	add    %dl,%dl
     355:	00 00                	add    %al,(%eax)
     357:	01 dc                	add    %ebx,%esp
     359:	00 00                	add    %al,(%eax)
     35b:	01 47 01             	add    %eax,0x1(%edi)
     35e:	00 00                	add    %al,(%eax)
     360:	0c 64                	or     $0x64,%al
     362:	01 00                	add    %eax,(%eax)
     364:	00 dc                	add    %bl,%ah
     366:	00 00                	add    %al,(%eax)
     368:	01 e6                	add    %esp,%esi
     36a:	00 00                	add    %al,(%eax)
     36c:	01 7f 01             	add    %edi,0x1(%edi)
     36f:	00 00                	add    %al,(%eax)
     371:	0d 01 6c 02 00       	or     $0x26c01,%eax
     376:	00 01                	add    %al,(%ecx)
     378:	14 01                	adc    $0x1,%al
     37a:	01 e6                	add    %esp,%esi
     37c:	00 00                	add    %al,(%eax)
     37e:	01 eb                	add    %ebp,%ebx
     380:	00 00                	add    %al,(%eax)
     382:	01 b7 01 00 00 0d    	add    %esi,0xd000001(%edi)
     388:	02 00                	add    (%eax),%al
     38a:	00 0e                	add    %cl,(%esi)
     38c:	c3                   	ret    
     38d:	02 00                	add    (%eax),%al
     38f:	00 01                	add    %al,(%ecx)
     391:	14 01                	adc    $0x1,%al
     393:	70 00                	jo     395 <thread_run-0xfffc6b>
     395:	00 00                	add    %al,(%eax)
     397:	02 91 00 00 0f 01    	add    0x10f0000(%ecx),%dl
     39d:	2b 01                	sub    (%ecx),%eax
     39f:	00 00                	add    %al,(%eax)
     3a1:	01 79 01             	add    %edi,0x1(%ecx)
     3a4:	01 47 02             	add    %eax,0x2(%edi)
     3a7:	00 00                	add    %al,(%eax)
     3a9:	eb 00                	jmp    3ab <thread_run-0xfffc55>
     3ab:	00 01                	add    %al,(%ecx)
     3ad:	f5                   	cmc    
     3ae:	00 00                	add    %al,(%eax)
     3b0:	01 ef                	add    %ebp,%edi
     3b2:	01 00                	add    %eax,(%eax)
     3b4:	00 47 02             	add    %al,0x2(%edi)
     3b7:	00 00                	add    %al,(%eax)
     3b9:	10 74 63 62          	adc    %dh,0x62(%ebx,%eiz,2)
     3bd:	00 01                	add    %al,(%ecx)
     3bf:	79 01                	jns    3c2 <thread_run-0xfffc3e>
     3c1:	4e                   	dec    %esi
     3c2:	02 00                	add    (%eax),%al
     3c4:	00 02                	add    %al,(%edx)
     3c6:	91                   	xchg   %eax,%ecx
     3c7:	00 11                	add    %dl,(%ecx)
     3c9:	72 63                	jb     42e <thread_run-0xfffbd2>
     3cb:	00 01                	add    %al,(%ecx)
     3cd:	7b 01                	jnp    3d0 <thread_run-0xfffc30>
     3cf:	47                   	inc    %edi
     3d0:	02 00                	add    (%eax),%al
     3d2:	00 00                	add    %al,(%eax)
     3d4:	00 12                	add    %dl,(%edx)
     3d6:	04 05                	add    $0x5,%al
     3d8:	69 6e 74 00 07 04 4c 	imul   $0x4c040700,0x74(%esi),%ebp
     3df:	01 00                	add    %eax,(%eax)
     3e1:	00 13                	add    %dl,(%ebx)
     3e3:	01 aa 02 00 00 01    	add    %ebp,0x1000002(%edx)
     3e9:	80 01 3c             	addb   $0x3c,(%ecx)
     3ec:	00 00                	add    %al,(%eax)
     3ee:	00 f5                	add    %dh,%ch
     3f0:	00 00                	add    %al,(%eax)
     3f2:	01 ff                	add    %edi,%edi
     3f4:	00 00                	add    %al,(%eax)
     3f6:	01 27                	add    %esp,(%edi)
     3f8:	02 00                	add    (%eax),%al
     3fa:	00 7f 02             	add    %bh,0x2(%edi)
     3fd:	00 00                	add    %al,(%eax)
     3ff:	14 bb                	adc    $0xbb,%al
     401:	02 00                	add    (%eax),%al
     403:	00 01                	add    %al,(%ecx)
     405:	82                   	(bad)  
     406:	01 3c 00             	add    %edi,(%eax,%eax,1)
     409:	00 00                	add    %al,(%eax)
     40b:	01 00                	add    %eax,(%eax)
     40d:	0d 01 bc 01 00       	or     $0x1bc01,%eax
     412:	00 01                	add    %al,(%ecx)
     414:	8b 01                	mov    (%ecx),%eax
     416:	01 ff                	add    %edi,%edi
     418:	00 00                	add    %al,(%eax)
     41a:	01 04 01             	add    %eax,(%ecx,%eax,1)
     41d:	00 01                	add    %al,(%ecx)
     41f:	5f                   	pop    %edi
     420:	02 00                	add    (%eax),%al
     422:	00 a9 02 00 00 10    	add    %ch,0x10000002(%ecx)
     428:	74 69                	je     493 <thread_run-0xfffb6d>
     42a:	64 00 01             	add    %al,%fs:(%ecx)
     42d:	8b 01                	mov    (%ecx),%eax
     42f:	3c 00                	cmp    $0x0,%al
     431:	00 00                	add    %al,(%eax)
     433:	02 91 00 00 0f 01    	add    0x10f0000(%ecx),%dl
     439:	42                   	inc    %edx
     43a:	02 00                	add    (%eax),%al
     43c:	00 01                	add    %al,(%ecx)
     43e:	62 01                	bound  %eax,(%ecx)
     440:	01 4e 02             	add    %ecx,0x2(%esi)
     443:	00 00                	add    %al,(%eax)
     445:	04 01                	add    $0x1,%al
     447:	00 01                	add    %al,(%ecx)
     449:	60                   	pusha  
     44a:	01 00                	add    %eax,(%eax)
     44c:	01 97 02 00 00 24    	add    %edx,0x24000002(%edi)
     452:	03 00                	add    (%eax),%eax
     454:	00 0e                	add    %cl,(%esi)
     456:	1a 03                	sbb    (%ebx),%al
     458:	00 00                	add    %al,(%eax)
     45a:	01 62 01             	add    %esp,0x1(%edx)
     45d:	70 00                	jo     45f <thread_run-0xfffba1>
     45f:	00 00                	add    %al,(%eax)
     461:	02 91 00 0e 92 01    	add    0x1920e00(%ecx),%dl
     467:	00 00                	add    %al,(%eax)
     469:	01 62 01             	add    %esp,0x1(%edx)
     46c:	70 00                	jo     46e <thread_run-0xfffb92>
     46e:	00 00                	add    %al,(%eax)
     470:	02 91 04 0e 3d 02    	add    0x23d0e04(%ecx),%dl
     476:	00 00                	add    %al,(%eax)
     478:	01 63 01             	add    %esp,0x1(%ebx)
     47b:	34 03                	xor    $0x3,%al
     47d:	00 00                	add    %al,(%eax)
     47f:	02 91 08 10 61 72    	add    0x72611008(%ecx),%dl
     485:	67 00 01             	add    %al,(%bx,%di)
     488:	63 01                	arpl   %ax,(%ecx)
     48a:	3a 00                	cmp    (%eax),%al
     48c:	00 00                	add    %al,(%eax)
     48e:	02 91 0c 15 fb 00    	add    0xfb150c(%ecx),%dl
     494:	00 00                	add    %al,(%eax)
     496:	01 65 01             	add    %esp,0x1(%ebp)
     499:	4e                   	dec    %esi
     49a:	02 00                	add    (%eax),%al
     49c:	00 cf                	add    %cl,%bh
     49e:	02 00                	add    (%eax),%al
     4a0:	00 15 bb 02 00 00    	add    %dl,0x2bb
     4a6:	01 66 01             	add    %esp,0x1(%esi)
     4a9:	3c 00                	cmp    $0x0,%al
     4ab:	00 00                	add    %al,(%eax)
     4ad:	04 03                	add    $0x3,%al
     4af:	00 00                	add    %al,(%eax)
     4b1:	00 16                	add    %dl,(%esi)
     4b3:	01 3a                	add    %edi,(%edx)
     4b5:	00 00                	add    %al,(%eax)
     4b7:	00 34 03             	add    %dh,(%ebx,%eax,1)
     4ba:	00 00                	add    %al,(%eax)
     4bc:	17                   	pop    %ss
     4bd:	3a 00                	cmp    (%eax),%al
     4bf:	00 00                	add    %al,(%eax)
     4c1:	00 07                	add    %al,(%edi)
     4c3:	04 24                	add    $0x24,%al
     4c5:	03 00                	add    (%eax),%eax
     4c7:	00 18                	add    %bl,(%eax)
     4c9:	01 a1 02 00 00 01    	add    %esp,0x1000002(%ecx)
     4cf:	12 01                	adc    (%ecx),%al
     4d1:	47                   	inc    %edi
     4d2:	02 00                	add    (%eax),%al
     4d4:	00 60 01             	add    %ah,0x1(%eax)
     4d7:	00 01                	add    %al,(%ecx)
     4d9:	5d                   	pop    %ebp
     4da:	02 00                	add    (%eax),%al
     4dc:	01 2e                	add    %ebp,(%esi)
     4de:	03 00                	add    (%eax),%eax
     4e0:	00 ed                	add    %ch,%ch
     4e2:	03 00                	add    (%eax),%eax
     4e4:	00 0b                	add    %cl,(%ebx)
     4e6:	0d 03 00 00 01       	or     $0x1000003,%eax
     4eb:	12 25 00 00 00 02    	adc    0x2000000,%ah
     4f1:	91                   	xchg   %eax,%ecx
     4f2:	00 19                	add    %bl,(%ecx)
     4f4:	72 63                	jb     559 <thread_run-0xfffaa7>
     4f6:	00 01                	add    %al,(%ecx)
     4f8:	14 47                	adc    $0x47,%al
     4fa:	02 00                	add    (%eax),%al
     4fc:	00 72 03             	add    %dh,0x3(%edx)
     4ff:	00 00                	add    %al,(%eax)
     501:	1a ed                	sbb    %ch,%ch
     503:	00 00                	add    %al,(%eax)
     505:	00 01                	add    %al,(%ecx)
     507:	15 70 00 00 00       	adc    $0x70,%eax
     50c:	9f                   	lahf   
     50d:	03 00                	add    (%eax),%eax
     50f:	00 1a                	add    %bl,(%edx)
     511:	55                   	push   %ebp
     512:	02 00                	add    (%eax),%al
     514:	00 01                	add    %al,(%ecx)
     516:	16                   	push   %ss
     517:	70 00                	jo     519 <thread_run-0xfffae7>
     519:	00 00                	add    %al,(%eax)
     51b:	cd 03                	int    $0x3
     51d:	00 00                	add    %al,(%eax)
     51f:	1a 9f 01 00 00 01    	sbb    0x1000001(%edi),%bl
     525:	17                   	pop    %ss
     526:	70 00                	jo     528 <thread_run-0xfffad8>
     528:	00 00                	add    %al,(%eax)
     52a:	0a 04 00             	or     (%eax,%eax,1),%al
     52d:	00 1a                	add    %bl,(%edx)
     52f:	56                   	push   %esi
     530:	01 00                	add    %eax,(%eax)
     532:	00 01                	add    %al,(%ecx)
     534:	18 70 00             	sbb    %dh,0x0(%eax)
     537:	00 00                	add    %al,(%eax)
     539:	29 04 00             	sub    %eax,(%eax,%eax,1)
     53c:	00 1a                	add    %bl,(%edx)
     53e:	85 02                	test   %eax,(%edx)
     540:	00 00                	add    %al,(%eax)
     542:	01 19                	add    %ebx,(%ecx)
     544:	25 00 00 00 5a       	and    $0x5a000000,%eax
     549:	04 00                	add    $0x0,%al
     54b:	00 1b                	add    %bl,(%ebx)
     54d:	00 00                	add    %al,(%eax)
     54f:	00 00                	add    %al,(%eax)
     551:	fd                   	std    
     552:	03 00                	add    (%eax),%eax
     554:	00 01                	add    %al,(%ecx)
     556:	05 03 06 26 00       	add    $0x260603,%eax
     55b:	01 1c 57             	add    %ebx,(%edi,%edx,2)
     55e:	01 00                	add    %eax,(%eax)
     560:	00 86 01 00 01 8b    	add    %al,-0x74feffff(%esi)
     566:	01 00                	add    %eax,(%eax)
     568:	01 01                	add    %eax,(%ecx)
     56a:	23 1c 64             	and    (%esp,%eiz,2),%ebx
     56d:	01 00                	add    %eax,(%eax)
     56f:	00 8b 01 00 01 91    	add    %cl,-0x6efeffff(%ebx)
     575:	01 00                	add    %eax,(%eax)
     577:	01 01                	add    %eax,(%ecx)
     579:	24 00                	and    $0x0,%al
     57b:	1d 33 00 00 00       	sbb    $0x33,%eax
     580:	fd                   	std    
     581:	03 00                	add    (%eax),%eax
     583:	00 1e                	add    %bl,(%esi)
     585:	25 00 00 00 08       	and    $0x8000000,%eax
     58a:	00 1f                	add    %bl,(%edi)
     58c:	ed                   	in     (%dx),%eax
     58d:	03 00                	add    (%eax),%eax
     58f:	00 0d 01 12 02 00    	add    %cl,0x21201
     595:	00 01                	add    %al,(%ecx)
     597:	22 01                	and    (%ecx),%al
     599:	01 5d 02             	add    %ebx,0x2(%ebp)
     59c:	00 01                	add    %al,(%ecx)
     59e:	a9 02 00 01 79       	test   $0x79010002,%eax
     5a3:	04 00                	add    $0x0,%al
     5a5:	00 8c 04 00 00 0e fb 	add    %cl,-0x4f20000(%esp,%eax,1)
     5ac:	00 00                	add    %al,(%eax)
     5ae:	00 01                	add    %al,(%ecx)
     5b0:	22 01                	and    (%ecx),%al
     5b2:	4e                   	dec    %esi
     5b3:	02 00                	add    (%eax),%al
     5b5:	00 02                	add    %al,(%edx)
     5b7:	91                   	xchg   %eax,%ecx
     5b8:	00 15 e1 02 00 00    	add    %dl,0x2e1
     5be:	01 24 01             	add    %esp,(%ecx,%eax,1)
     5c1:	3c 00                	cmp    $0x0,%al
     5c3:	00 00                	add    %al,(%eax)
     5c5:	bd 04 00 00 15       	mov    $0x15000004,%ebp
     5ca:	ad                   	lods   %ds:(%esi),%eax
     5cb:	01 00                	add    %eax,(%eax)
     5cd:	00 01                	add    %al,(%ecx)
     5cf:	25 01 70 00 00       	and    $0x7001,%eax
     5d4:	00 dc                	add    %bl,%ah
     5d6:	04 00                	add    $0x0,%al
     5d8:	00 15 3d 02 00 00    	add    %dl,0x23d
     5de:	01 2e                	add    %ebp,(%esi)
     5e0:	01 34 03             	add    %esi,(%ebx,%eax,1)
     5e3:	00 00                	add    %al,(%eax)
     5e5:	08 05 00 00 15 9d    	or     %al,0x9d150000
     5eb:	00 00                	add    %al,(%eax)
     5ed:	00 01                	add    %al,(%ecx)
     5ef:	2f                   	das    
     5f0:	01 3a                	add    %edi,(%edx)
     5f2:	00 00                	add    %al,(%eax)
     5f4:	00 2b                	add    %ch,(%ebx)
     5f6:	05 00 00 15 63       	add    $0x63150000,%eax
     5fb:	02 00                	add    (%eax),%al
     5fd:	00 01                	add    %al,(%ecx)
     5ff:	30 01                	xor    %al,(%ecx)
     601:	3a 00                	cmp    (%eax),%al
     603:	00 00                	add    %al,(%eax)
     605:	4e                   	dec    %esi
     606:	05 00 00 1b 00       	add    $0x1b0000,%eax
     60b:	00 00                	add    %al,(%eax)
     60d:	00 9c 04 00 00 01 05 	add    %bl,0x5010000(%esp,%eax,1)
     614:	03 cd                	add    %ebp,%ecx
     616:	25 00 01 00 1d       	and    $0x1d000100,%eax
     61b:	33 00                	xor    (%eax),%eax
     61d:	00 00                	add    %al,(%eax)
     61f:	9c                   	pushf  
     620:	04 00                	add    $0x0,%al
     622:	00 1e                	add    %bl,(%esi)
     624:	25 00 00 00 16       	and    $0x16000000,%eax
     629:	00 1f                	add    %bl,(%edi)
     62b:	8c 04 00             	mov    %es,(%eax,%eax,1)
     62e:	00 18                	add    %bl,(%eax)
     630:	01 df                	add    %ebx,%edi
     632:	01 00                	add    %eax,(%eax)
     634:	00 01                	add    %al,(%ecx)
     636:	d2 01                	rolb   %cl,(%ecx)
     638:	70 00                	jo     63a <thread_run-0xfff9c6>
     63a:	00 00                	add    %al,(%eax)
     63c:	a9 02 00 01 2a       	test   $0x2a010002,%eax
     641:	03 00                	add    (%eax),%eax
     643:	01 62 05             	add    %esp,0x5(%edx)
     646:	00 00                	add    %al,(%eax)
     648:	36                   	ss
     649:	05 00 00 0b 8b       	add    $0x8b0b0000,%eax
     64e:	02 00                	add    (%eax),%al
     650:	00 01                	add    %al,(%ecx)
     652:	d2 47 02             	rolb   %cl,0x2(%edi)
     655:	00 00                	add    %al,(%eax)
     657:	02 91 00 1a eb 02    	add    0x2eb1a00(%ecx),%dl
     65d:	00 00                	add    %al,(%eax)
     65f:	01 d4                	add    %edx,%esp
     661:	70 00                	jo     663 <thread_run-0xfff99d>
     663:	00 00                	add    %al,(%eax)
     665:	9a 05 00 00 19 72 63 	lcall  $0x6372,$0x19000005
     66c:	00 01                	add    %al,(%ecx)
     66e:	d5 47                	aad    $0x47
     670:	02 00                	add    (%eax),%al
     672:	00 ea                	add    %ch,%dl
     674:	05 00 00 1a 23       	add    $0x231a0000,%eax
     679:	03 00                	add    (%eax),%eax
     67b:	00 01                	add    %al,(%ecx)
     67d:	d6                   	(bad)  
     67e:	e8 00 00 00 09       	call   9000683 <_end+0x7ffcd37>
     683:	06                   	push   %es
     684:	00 00                	add    %al,(%eax)
     686:	1a 52 01             	sbb    0x1(%edx),%dl
     689:	00 00                	add    %al,(%eax)
     68b:	01 d7                	add    %edx,%edi
     68d:	70 00                	jo     68f <thread_run-0xfff971>
     68f:	00 00                	add    %al,(%eax)
     691:	2c 06                	sub    $0x6,%al
     693:	00 00                	add    %al,(%eax)
     695:	1a 9b 01 00 00 01    	sbb    0x1000001(%ebx),%bl
     69b:	d8 70 00             	fdivs  0x0(%eax)
     69e:	00 00                	add    %al,(%eax)
     6a0:	70 06                	jo     6a8 <thread_run-0xfff958>
     6a2:	00 00                	add    %al,(%eax)
     6a4:	1a 85 02 00 00 01    	sbb    0x1000002(%ebp),%al
     6aa:	d9 25 00 00 00 9e    	fldenv 0x9e000000
     6b0:	06                   	push   %es
     6b1:	00 00                	add    %al,(%eax)
     6b3:	1b 00                	sbb    (%eax),%eax
     6b5:	00 00                	add    %al,(%eax)
     6b7:	00 36                	add    %dh,(%esi)
     6b9:	05 00 00 01 05       	add    $0x5010000,%eax
     6be:	03 e4                	add    %esp,%esp
     6c0:	25 00 01 00 1f       	and    $0x1f000100,%eax
     6c5:	8c 04 00             	mov    %es,(%eax,%eax,1)
     6c8:	00 18                	add    %bl,(%eax)
     6ca:	01 96 02 00 00 01    	add    %edx,0x1000002(%esi)
     6d0:	52                   	push   %edx
     6d1:	01 47 02             	add    %eax,0x2(%edi)
     6d4:	00 00                	add    %al,(%eax)
     6d6:	2a 03                	sub    (%ebx),%al
     6d8:	00 01                	add    %al,(%ecx)
     6da:	5b                   	pop    %ebx
     6db:	04 00                	add    $0x0,%al
     6dd:	01 b5 06 00 00 de    	add    %esi,-0x21fffffa(%ebp)
     6e3:	05 00 00 0b 3d       	add    $0x3d0b0000,%eax
     6e8:	02 00                	add    (%eax),%al
     6ea:	00 01                	add    %al,(%ecx)
     6ec:	52                   	push   %edx
     6ed:	34 03                	xor    $0x3,%al
     6ef:	00 00                	add    %al,(%eax)
     6f1:	02 91 00 20 61 72    	add    0x72612000(%ecx),%dl
     6f7:	67 00 01             	add    %al,(%bx,%di)
     6fa:	52                   	push   %edx
     6fb:	3a 00                	cmp    (%eax),%al
     6fd:	00 00                	add    %al,(%eax)
     6ff:	02 91 04 19 72 63    	add    0x63721904(%ecx),%dl
     705:	00 01                	add    %al,(%ecx)
     707:	54                   	push   %esp
     708:	47                   	inc    %edi
     709:	02 00                	add    (%eax),%al
     70b:	00 f9                	add    %bh,%cl
     70d:	06                   	push   %es
     70e:	00 00                	add    %al,(%eax)
     710:	1a 92 01 00 00 01    	sbb    0x1000001(%edx),%dl
     716:	55                   	push   %ebp
     717:	70 00                	jo     719 <thread_run-0xfff8e7>
     719:	00 00                	add    %al,(%eax)
     71b:	62 07                	bound  %eax,(%edi)
     71d:	00 00                	add    %al,(%eax)
     71f:	1a 1a                	sbb    (%edx),%bl
     721:	03 00                	add    (%eax),%eax
     723:	00 01                	add    %al,(%ecx)
     725:	56                   	push   %esi
     726:	70 00                	jo     728 <thread_run-0xfff8d8>
     728:	00 00                	add    %al,(%eax)
     72a:	8c 07                	mov    %es,(%edi)
     72c:	00 00                	add    %al,(%eax)
     72e:	1a fb                	sbb    %bl,%bh
     730:	00 00                	add    %al,(%eax)
     732:	00 01                	add    %al,(%ecx)
     734:	57                   	push   %edi
     735:	4e                   	dec    %esi
     736:	02 00                	add    (%eax),%al
     738:	00 ab 07 00 00 1a    	add    %ch,0x1a000007(%ebx)
     73e:	bb 02 00 00 01       	mov    $0x1000002,%ebx
     743:	58                   	pop    %eax
     744:	3c 00                	cmp    $0x0,%al
     746:	00 00                	add    %al,(%eax)
     748:	d5 07                	aad    $0x7
     74a:	00 00                	add    %al,(%eax)
     74c:	1a 85 02 00 00 01    	sbb    0x1000002(%ebp),%al
     752:	59                   	pop    %ecx
     753:	25 00 00 00 00       	and    $0x0,%eax
     758:	08 00                	or     %al,(%eax)
     75a:	00 1b                	add    %bl,(%ebx)
     75c:	00 00                	add    %al,(%eax)
     75e:	00 00                	add    %al,(%eax)
     760:	ee                   	out    %al,(%dx)
     761:	05 00 00 01 05       	add    $0x5010000,%eax
     766:	03 fb                	add    %ebx,%edi
     768:	25 00 01 00 1d       	and    $0x1d000100,%eax
     76d:	33 00                	xor    (%eax),%eax
     76f:	00 00                	add    %al,(%eax)
     771:	ee                   	out    %al,(%dx)
     772:	05 00 00 1e 25       	add    $0x251e0000,%eax
     777:	00 00                	add    %al,(%eax)
     779:	00 0a                	add    %cl,(%edx)
     77b:	00 1f                	add    %bl,(%edi)
     77d:	de 05 00 00 21 d3    	fiadd  0xd3210000
     783:	01 00                	add    %eax,(%eax)
     785:	00 01                	add    %al,(%ecx)
     787:	0f ee 00             	pmaxsw (%eax),%mm0
     78a:	00 00                	add    %al,(%eax)
     78c:	05 03 1c 39 00       	add    $0x391c03,%eax
     791:	01 00                	add    %eax,(%eax)
     793:	88 00                	mov    %al,(%eax)
     795:	00 00                	add    %al,(%eax)
     797:	02 00                	add    (%eax),%al
     799:	09 03                	or     %eax,(%ebx)
     79b:	00 00                	add    %al,(%eax)
     79d:	04 01                	add    $0x1,%al
     79f:	7a 01                	jp     7a2 <thread_run-0xfff85e>
     7a1:	00 00                	add    %al,(%eax)
     7a3:	5c                   	pop    %esp
     7a4:	04 00                	add    $0x0,%al
     7a6:	01 7b 04             	add    %edi,0x4(%ebx)
     7a9:	00 01                	add    %al,(%ecx)
     7ab:	75 73                	jne    820 <thread_run-0xfff7e0>
     7ad:	65                   	gs
     7ae:	72 2f                	jb     7df <thread_run-0xfff821>
     7b0:	6c                   	insb   (%dx),%es:(%edi)
     7b1:	69 62 74 68 72 65 61 	imul   $0x61657268,0x74(%edx),%esp
     7b8:	64                   	fs
     7b9:	2f                   	das    
     7ba:	74 68                	je     824 <thread_run-0xfff7dc>
     7bc:	72 65                	jb     823 <thread_run-0xfff7dd>
     7be:	61                   	popa   
     7bf:	64                   	fs
     7c0:	5f                   	pop    %edi
     7c1:	75 74                	jne    837 <thread_run-0xfff7c9>
     7c3:	69 6c 69 74 79 2e 53 	imul   $0x532e79,0x74(%ecx,%ebp,2),%ebp
     7ca:	00 
     7cb:	2f                   	das    
     7cc:	61                   	popa   
     7cd:	66                   	data16
     7ce:	73 2f                	jae    7ff <thread_run-0xfff801>
     7d0:	61                   	popa   
     7d1:	6e                   	outsb  %ds:(%esi),(%dx)
     7d2:	64                   	fs
     7d3:	72 65                	jb     83a <thread_run-0xfff7c6>
     7d5:	77 2e                	ja     805 <thread_run-0xfff7fb>
     7d7:	63 6d 75             	arpl   %bp,0x75(%ebp)
     7da:	2e                   	cs
     7db:	65                   	gs
     7dc:	64                   	fs
     7dd:	75 2f                	jne    80e <thread_run-0xfff7f2>
     7df:	75 73                	jne    854 <thread_run-0xfff7ac>
     7e1:	72 32                	jb     815 <thread_run-0xfff7eb>
     7e3:	33 2f                	xor    (%edi),%ebp
     7e5:	61                   	popa   
     7e6:	6e                   	outsb  %ds:(%esi),(%dx)
     7e7:	6b 75 72 73          	imul   $0x73,0x72(%ebp),%esi
     7eb:	68 61 2f 44 65       	push   $0x65442f61
     7f0:	73 6b                	jae    85d <thread_run-0xfff7a3>
     7f2:	74 6f                	je     863 <thread_run-0xfff79d>
     7f4:	70 2f                	jo     825 <thread_run-0xfff7db>
     7f6:	73 74                	jae    86c <thread_run-0xfff794>
     7f8:	75 64                	jne    85e <thread_run-0xfff7a2>
     7fa:	69 65 73 2f 31 35 34 	imul   $0x3435312f,0x73(%ebp),%esp
     801:	31 30                	xor    %esi,(%eax)
     803:	2f                   	das    
     804:	50                   	push   %eax
     805:	32 2f                	xor    (%edi),%ch
     807:	70 32                	jo     83b <thread_run-0xfff7c5>
     809:	00 47 4e             	add    %al,0x4e(%edi)
     80c:	55                   	push   %ebp
     80d:	20 41 53             	and    %al,0x53(%ecx)
     810:	20 32                	and    %dh,(%edx)
     812:	2e 32 30             	xor    %cs:(%eax),%dh
     815:	2e                   	cs
     816:	35 31 2e 30 2e       	xor    $0x2e302e31,%eax
     81b:	32 00                	xor    (%eax),%al
     81d:	01 80 2e 01 00 00    	add    %eax,0x12e(%eax)
     823:	02 00                	add    (%eax),%al
     825:	1d 03 00 00 04       	sbb    $0x4000003,%eax
     82a:	01 0d 00 00 00 01    	add    %ecx,0x1000000
     830:	4e                   	dec    %esi
     831:	03 00                	add    (%eax),%eax
     833:	00 47 00             	add    %al,0x0(%edi)
     836:	00 00                	add    %al,(%eax)
     838:	7c 04                	jl     83e <thread_run-0xfff7c2>
     83a:	00 01                	add    %al,(%ecx)
     83c:	d6                   	(bad)  
     83d:	04 00                	add    $0x0,%al
     83f:	01 d3                	add    %edx,%ebx
     841:	01 00                	add    %eax,(%eax)
     843:	00 02                	add    %al,(%edx)
     845:	36 03 00             	add    %ss:(%eax),%eax
     848:	00 02                	add    %al,(%edx)
     84a:	0a 30                	or     (%eax),%dh
     84c:	00 00                	add    %al,(%eax)
     84e:	00 03                	add    %al,(%ebx)
     850:	04 07                	add    $0x7,%al
     852:	9e                   	sahf   
     853:	05 00 00 03 04       	add    $0x4030000,%eax
     858:	07                   	pop    %es
     859:	99                   	cltd   
     85a:	05 00 00 04 01       	add    $0x1040000,%eax
     85f:	dc 06                	faddl  (%esi)
     861:	00 00                	add    %al,(%eax)
     863:	01 28                	add    %ebp,(%eax)
     865:	01 7c 04 00          	add    %edi,0x0(%esp,%eax,1)
     869:	01 8f 04 00 01 2e    	add    %ecx,0x2e010004(%edi)
     86f:	08 00                	or     %al,(%eax)
     871:	00 66 00             	add    %ah,0x0(%esi)
     874:	00 00                	add    %al,(%eax)
     876:	05 48 03 00 00       	add    $0x348,%eax
     87b:	01 28                	add    %ebp,(%eax)
     87d:	66                   	data16
     87e:	00 00                	add    %al,(%eax)
     880:	00 02                	add    %al,(%edx)
     882:	91                   	xchg   %eax,%ecx
     883:	00 00                	add    %al,(%eax)
     885:	06                   	push   %es
     886:	04 07                	add    $0x7,%al
     888:	01 85 06 00 00 01    	add    %eax,0x1000006(%ebp)
     88e:	1f                   	pop    %ds
     88f:	01 66 00             	add    %esp,0x0(%esi)
     892:	00 00                	add    %al,(%eax)
     894:	8f 04 00             	popl   (%eax,%eax,1)
     897:	01 a9 04 00 01 66    	add    %ebp,0x66010004(%ecx)
     89d:	08 00                	or     %al,(%eax)
     89f:	00 b1 00 00 00 05    	add    %dh,0x5000000(%ecx)
     8a5:	48                   	dec    %eax
     8a6:	03 00                	add    (%eax),%eax
     8a8:	00 01                	add    %al,(%ecx)
     8aa:	1f                   	pop    %ds
     8ab:	66                   	data16
     8ac:	00 00                	add    %al,(%eax)
     8ae:	00 02                	add    %al,(%edx)
     8b0:	91                   	xchg   %eax,%ecx
     8b1:	00 05 3d 03 00 00    	add    %al,0x33d
     8b7:	01 1f                	add    %ebx,(%edi)
     8b9:	25 00 00 00 02       	and    $0x2000000,%eax
     8be:	91                   	xchg   %eax,%ecx
     8bf:	04 08                	add    $0x8,%al
     8c1:	70 74                	jo     937 <thread_run-0xfff6c9>
     8c3:	72 00                	jb     8c5 <thread_run-0xfff73b>
     8c5:	01 21                	add    %esp,(%ecx)
     8c7:	66                   	data16
     8c8:	00 00                	add    %al,(%eax)
     8ca:	00 9e 08 00 00 00    	add    %bl,0x8(%esi)
     8d0:	07                   	pop    %es
     8d1:	01 21                	add    %esp,(%ecx)
     8d3:	06                   	push   %es
     8d4:	00 00                	add    %al,(%eax)
     8d6:	01 16                	add    %edx,(%esi)
     8d8:	01 66 00             	add    %esp,0x0(%esi)
     8db:	00 00                	add    %al,(%eax)
     8dd:	a9 04 00 01 c3       	test   $0xc3010004,%eax
     8e2:	04 00                	add    $0x0,%al
     8e4:	01 bd 08 00 00 fa    	add    %edi,-0x5fffff8(%ebp)
     8ea:	00 00                	add    %al,(%eax)
     8ec:	00 05 66 03 00 00    	add    %al,0x366
     8f2:	01 16                	add    %edx,(%esi)
     8f4:	25 00 00 00 02       	and    $0x2000000,%eax
     8f9:	91                   	xchg   %eax,%ecx
     8fa:	00 05 6d 03 00 00    	add    %al,0x36d
     900:	01 16                	add    %edx,(%esi)
     902:	25 00 00 00 02       	and    $0x2000000,%eax
     907:	91                   	xchg   %eax,%ecx
     908:	04 08                	add    $0x8,%al
     90a:	70 74                	jo     980 <thread_run-0xfff680>
     90c:	72 00                	jb     90e <thread_run-0xfff6f2>
     90e:	01 18                	add    %ebx,(%eax)
     910:	66                   	data16
     911:	00 00                	add    %al,(%eax)
     913:	00 f5                	add    %dh,%ch
     915:	08 00                	or     %al,(%eax)
     917:	00 00                	add    %al,(%eax)
     919:	09 01                	or     %eax,(%ecx)
     91b:	d2 06                	rolb   %cl,(%esi)
     91d:	00 00                	add    %al,(%eax)
     91f:	01 0d 01 66 00 00    	add    %ecx,0x6601
     925:	00 c3                	add    %al,%bl
     927:	04 00                	add    $0x0,%al
     929:	01 d6                	add    %edx,%esi
     92b:	04 00                	add    $0x0,%al
     92d:	01 14 09             	add    %edx,(%ecx,%ecx,1)
     930:	00 00                	add    %al,(%eax)
     932:	05 2f 03 00 00       	add    $0x32f,%eax
     937:	01 0d 25 00 00 00    	add    %ecx,0x25
     93d:	02 91 00 08 70 74    	add    0x74700800(%ecx),%dl
     943:	72 00                	jb     945 <thread_run-0xfff6bb>
     945:	01 0f                	add    %ecx,(%edi)
     947:	66                   	data16
     948:	00 00                	add    %al,(%eax)
     94a:	00 4c 09 00          	add    %cl,0x0(%ecx,%ecx,1)
     94e:	00 00                	add    %al,(%eax)
     950:	00 c4                	add    %al,%ah
     952:	01 00                	add    %eax,(%eax)
     954:	00 02                	add    %al,(%edx)
     956:	00 b5 03 00 00 04    	add    %dh,0x4000003(%ebp)
     95c:	01 0d 00 00 00 01    	add    %ecx,0x1000000
     962:	c4 03                	les    (%ebx),%eax
     964:	00 00                	add    %al,(%eax)
     966:	47                   	inc    %edi
     967:	00 00                	add    %al,(%eax)
     969:	00 d8                	add    %bl,%al
     96b:	04 00                	add    $0x0,%al
     96d:	01 eb                	add    %ebp,%ebx
     96f:	05 00 01 44 02       	add    $0x2440100,%eax
     974:	00 00                	add    %al,(%eax)
     976:	02 81 03 00 00 02    	add    0x2000003(%ecx),%al
     97c:	09 30                	or     %esi,(%eax)
     97e:	00 00                	add    %al,(%eax)
     980:	00 03                	add    %al,(%ebx)
     982:	04 77                	add    $0x77,%al
     984:	03 00                	add    (%eax),%eax
     986:	00 3a                	add    %bh,(%edx)
     988:	00 00                	add    %al,(%eax)
     98a:	00 04 01             	add    %al,(%ecx,%eax,1)
     98d:	06                   	push   %es
     98e:	24 05                	and    $0x5,%al
     990:	00 00                	add    %al,(%eax)
     992:	04 04                	add    $0x4,%al
     994:	07                   	pop    %es
     995:	9e                   	sahf   
     996:	05 00 00 04 04       	add    $0x4040000,%eax
     99b:	07                   	pop    %es
     99c:	99                   	cltd   
     99d:	05 00 00 05 01       	add    $0x1050000,%eax
     9a2:	00 04 00             	add    %al,(%eax,%eax,1)
     9a5:	00 01                	add    %al,(%ecx)
     9a7:	22 01                	and    (%ecx),%al
     9a9:	d8 04 00             	fadds  (%eax,%eax,1)
     9ac:	01 ec                	add    %ebp,%esp
     9ae:	04 00                	add    $0x0,%al
     9b0:	01 6b 09             	add    %ebp,0x9(%ebx)
     9b3:	00 00                	add    %al,(%eax)
     9b5:	06                   	push   %es
     9b6:	01 b8 03 00 00 01    	add    %edi,0x1000003(%eax)
     9bc:	1e                   	push   %ds
     9bd:	01 ec                	add    %ebp,%esp
     9bf:	04 00                	add    $0x0,%al
     9c1:	01 07                	add    %eax,(%edi)
     9c3:	05 00 01 a3 09       	add    $0x9a30100,%eax
     9c8:	00 00                	add    %al,(%eax)
     9ca:	8a 00                	mov    (%eax),%al
     9cc:	00 00                	add    %al,(%eax)
     9ce:	07                   	pop    %es
     9cf:	61                   	popa   
     9d0:	00 01                	add    %al,(%ecx)
     9d2:	1e                   	push   %ds
     9d3:	8a 00                	mov    (%eax),%al
     9d5:	00 00                	add    %al,(%eax)
     9d7:	02 91 00 00 08 04    	add    0x4080000(%ecx),%dl
     9dd:	05 69 6e 74 00       	add    $0x746e69,%eax
     9e2:	05 01 f8 03 00       	add    $0x3f801,%eax
     9e7:	00 01                	add    %al,(%ecx)
     9e9:	1a 01                	sbb    (%ecx),%al
     9eb:	07                   	pop    %es
     9ec:	05 00 01 1b 05       	add    $0x51b0100,%eax
     9f1:	00 01                	add    %al,(%ecx)
     9f3:	db 09                	fisttpl (%ecx)
     9f5:	00 00                	add    %al,(%eax)
     9f7:	05 01 af 03 00       	add    $0x3af01,%eax
     9fc:	00 01                	add    %al,(%ecx)
     9fe:	16                   	push   %ss
     9ff:	01 1b                	add    %ebx,(%ebx)
     a01:	05 00 01 2f 05       	add    $0x52f0100,%eax
     a06:	00 01                	add    %al,(%ecx)
     a08:	13 0a                	adc    (%edx),%ecx
     a0a:	00 00                	add    %al,(%eax)
     a0c:	05 01 0c 04 00       	add    $0x40c01,%eax
     a11:	00 01                	add    %al,(%ecx)
     a13:	12 01                	adc    (%ecx),%al
     a15:	2f                   	das    
     a16:	05 00 01 43 05       	add    $0x5430100,%eax
     a1b:	00 01                	add    %al,(%ecx)
     a1d:	4b                   	dec    %ebx
     a1e:	0a 00                	or     (%eax),%al
     a20:	00 06                	add    %al,(%esi)
     a22:	01 98 03 00 00 01    	add    %ebx,0x1000003(%eax)
     a28:	0e                   	push   %cs
     a29:	01 43 05             	add    %eax,0x5(%ebx)
     a2c:	00 01                	add    %al,(%ecx)
     a2e:	5e                   	pop    %esi
     a2f:	05 00 01 83 0a       	add    $0xa830100,%eax
     a34:	00 00                	add    %al,(%eax)
     a36:	f8                   	clc    
     a37:	00 00                	add    %al,(%eax)
     a39:	00 07                	add    %al,(%edi)
     a3b:	61                   	popa   
     a3c:	72 67                	jb     aa5 <thread_run-0xfff55b>
     a3e:	00 01                	add    %al,(%ecx)
     a40:	0e                   	push   %cs
     a41:	f8                   	clc    
     a42:	00 00                	add    %al,(%eax)
     a44:	00 02                	add    %al,(%edx)
     a46:	91                   	xchg   %eax,%ecx
     a47:	00 00                	add    %al,(%eax)
     a49:	09 04 fe             	or     %eax,(%esi,%edi,8)
     a4c:	00 00                	add    %al,(%eax)
     a4e:	00 0a                	add    %cl,(%edx)
     a50:	3a 00                	cmp    (%eax),%al
     a52:	00 00                	add    %al,(%eax)
     a54:	0b 01                	or     (%ecx),%eax
     a56:	e1 03                	loope  a5b <thread_run-0xfff5a5>
     a58:	00 00                	add    %al,(%eax)
     a5a:	01 0a                	add    %ecx,(%edx)
     a5c:	01 8a 00 00 00 5e    	add    %ecx,0x5e000000(%edx)
     a62:	05 00 01 72 05       	add    $0x5720100,%eax
     a67:	00 01                	add    %al,(%ecx)
     a69:	bb 0a 00 00 0b       	mov    $0xb00000a,%ebx
     a6e:	01 a1 03 00 00 01    	add    %esp,0x1000003(%ecx)
     a74:	06                   	push   %es
     a75:	01 8a 00 00 00 72    	add    %ecx,0x72000000(%edx)
     a7b:	05 00 01 86 05       	add    $0x5860100,%eax
     a80:	00 01                	add    %al,(%ecx)
     a82:	f3 0a 00             	repz or (%eax),%al
     a85:	00 0c 01             	add    %cl,(%ecx,%eax,1)
     a88:	89 03                	mov    %eax,(%ebx)
     a8a:	00 00                	add    %al,(%eax)
     a8c:	01 31                	add    %esi,(%ecx)
     a8e:	01 8a 00 00 00 86    	add    %ecx,-0x7a000000(%edx)
     a94:	05 00 01 ac 05       	add    $0x5ac0100,%eax
     a99:	00 01                	add    %al,(%ecx)
     a9b:	2b 0b                	sub    (%ebx),%ecx
     a9d:	00 00                	add    %al,(%eax)
     a9f:	6f                   	outsl  %ds:(%esi),(%dx)
     aa0:	01 00                	add    %eax,(%eax)
     aa2:	00 0d 31 03 00 00    	add    %cl,0x331
     aa8:	01 31                	add    %esi,(%ecx)
     aaa:	8a 00                	mov    (%eax),%al
     aac:	00 00                	add    %al,(%eax)
     aae:	02 91 00 07 62 75    	add    0x75620700(%ecx),%dl
     ab4:	66                   	data16
     ab5:	00 01                	add    %al,(%ecx)
     ab7:	31 6f 01             	xor    %ebp,0x1(%edi)
     aba:	00 00                	add    %al,(%eax)
     abc:	02 91 04 00 09 04    	add    0x4090004(%ecx),%dl
     ac2:	3a 00                	cmp    (%eax),%al
     ac4:	00 00                	add    %al,(%eax)
     ac6:	06                   	push   %es
     ac7:	01 ed                	add    %ebp,%ebp
     ac9:	03 00                	add    (%eax),%eax
     acb:	00 01                	add    %al,(%ecx)
     acd:	26 01 ac 05 00 01 eb 	add    %ebp,%es:0x5eb0100(%ebp,%eax,1)
     ad4:	05 
     ad5:	00 01                	add    %al,(%ecx)
     ad7:	63 0b                	arpl   %cx,(%ebx)
     ad9:	00 00                	add    %al,(%eax)
     adb:	bb 01 00 00 07       	mov    $0x7000001,%ebx
     ae0:	66 6d                	insw   (%dx),%es:(%edi)
     ae2:	74 00                	je     ae4 <thread_run-0xfff51c>
     ae4:	01 26                	add    %esp,(%esi)
     ae6:	f8                   	clc    
     ae7:	00 00                	add    %al,(%eax)
     ae9:	00 02                	add    %al,(%edx)
     aeb:	91                   	xchg   %eax,%ecx
     aec:	00 0e                	add    %cl,(%esi)
     aee:	0f 73                	(bad)  
     af0:	74 72                	je     b64 <thread_run-0xfff49c>
     af2:	00 01                	add    %al,(%ecx)
     af4:	27                   	daa    
     af5:	bb 01 00 00 03       	mov    $0x3000001,%ebx
     afa:	91                   	xchg   %eax,%ecx
     afb:	f4                   	hlt    
     afc:	7d 10                	jge    b0e <thread_run-0xfff4f2>
     afe:	61                   	popa   
     aff:	70 00                	jo     b01 <thread_run-0xfff4ff>
     b01:	01 28                	add    %ebp,(%eax)
     b03:	25 00 00 00 9b       	and    $0x9b000000,%eax
     b08:	0b 00                	or     (%eax),%eax
     b0a:	00 00                	add    %al,(%eax)
     b0c:	11 3a                	adc    %edi,(%edx)
     b0e:	00 00                	add    %al,(%eax)
     b10:	00 12                	add    %dl,(%edx)
     b12:	41                   	inc    %ecx
     b13:	00 00                	add    %al,(%eax)
     b15:	00 ff                	add    %bh,%bh
     b17:	00 00                	add    %al,(%eax)
     b19:	83 00 00             	addl   $0x0,(%eax)
     b1c:	00 02                	add    %al,(%edx)
     b1e:	00 b4 04 00 00 04 01 	add    %dh,0x1040000(%esp,%eax,1)
     b25:	de 02                	fiadd  (%edx)
     b27:	00 00                	add    %al,(%eax)
     b29:	ec                   	in     (%dx),%al
     b2a:	05 00 01 02 06       	add    $0x6020100,%eax
     b2f:	00 01                	add    %al,(%ecx)
     b31:	34 31                	xor    $0x31,%al
     b33:	30 75 73             	xor    %dh,0x73(%ebp)
     b36:	65                   	gs
     b37:	72 2f                	jb     b68 <thread_run-0xfff498>
     b39:	6c                   	insb   (%dx),%es:(%edi)
     b3a:	69 62 73 69 6d 69 63 	imul   $0x63696d69,0x73(%edx),%esp
     b41:	73 2f                	jae    b72 <thread_run-0xfff48e>
     b43:	73 69                	jae    bae <thread_run-0xfff452>
     b45:	6d                   	insl   (%dx),%es:(%edi)
     b46:	69 63 73 2e 53 00 2f 	imul   $0x2f00532e,0x73(%ebx),%esp
     b4d:	61                   	popa   
     b4e:	66                   	data16
     b4f:	73 2f                	jae    b80 <thread_run-0xfff480>
     b51:	61                   	popa   
     b52:	6e                   	outsb  %ds:(%esi),(%dx)
     b53:	64                   	fs
     b54:	72 65                	jb     bbb <thread_run-0xfff445>
     b56:	77 2e                	ja     b86 <thread_run-0xfff47a>
     b58:	63 6d 75             	arpl   %bp,0x75(%ebp)
     b5b:	2e                   	cs
     b5c:	65                   	gs
     b5d:	64                   	fs
     b5e:	75 2f                	jne    b8f <thread_run-0xfff471>
     b60:	75 73                	jne    bd5 <thread_run-0xfff42b>
     b62:	72 32                	jb     b96 <thread_run-0xfff46a>
     b64:	33 2f                	xor    (%edi),%ebp
     b66:	61                   	popa   
     b67:	6e                   	outsb  %ds:(%esi),(%dx)
     b68:	6b 75 72 73          	imul   $0x73,0x72(%ebp),%esi
     b6c:	68 61 2f 44 65       	push   $0x65442f61
     b71:	73 6b                	jae    bde <thread_run-0xfff422>
     b73:	74 6f                	je     be4 <thread_run-0xfff41c>
     b75:	70 2f                	jo     ba6 <thread_run-0xfff45a>
     b77:	73 74                	jae    bed <thread_run-0xfff413>
     b79:	75 64                	jne    bdf <thread_run-0xfff421>
     b7b:	69 65 73 2f 31 35 34 	imul   $0x3435312f,0x73(%ebp),%esp
     b82:	31 30                	xor    %esi,(%eax)
     b84:	2f                   	das    
     b85:	50                   	push   %eax
     b86:	32 2f                	xor    (%edi),%ch
     b88:	70 32                	jo     bbc <thread_run-0xfff444>
     b8a:	00 47 4e             	add    %al,0x4e(%edi)
     b8d:	55                   	push   %ebp
     b8e:	20 41 53             	and    %al,0x53(%ecx)
     b91:	20 32                	and    %dh,(%edx)
     b93:	2e 32 30             	xor    %cs:(%eax),%dh
     b96:	2e                   	cs
     b97:	35 31 2e 30 2e       	xor    $0x2e302e31,%eax
     b9c:	32 00                	xor    (%eax),%al
     b9e:	01 80 45 02 00 00    	add    %eax,0x245(%eax)
     ba4:	02 00                	add    (%eax),%al
     ba6:	c8 04 00 00          	enter  $0x4,$0x0
     baa:	04 01                	add    $0x1,%al
     bac:	0d 00 00 00 01       	or     $0x1000000,%eax
     bb1:	1b 04 00             	sbb    (%eax,%eax,1),%eax
     bb4:	00 47 00             	add    %al,0x0(%edi)
     bb7:	00 00                	add    %al,(%eax)
     bb9:	04 06                	add    $0x6,%al
     bbb:	00 01                	add    %al,(%ecx)
     bbd:	0e                   	push   %cs
     bbe:	07                   	pop    %es
     bbf:	00 01                	add    %al,(%ecx)
     bc1:	2d 03 00 00 02       	sub    $0x2000003,%eax
     bc6:	81 03 00 00 02 09    	addl   $0x9020000,(%ebx)
     bcc:	30 00                	xor    %al,(%eax)
     bce:	00 00                	add    %al,(%eax)
     bd0:	03 04 77             	add    (%edi,%esi,2),%eax
     bd3:	03 00                	add    (%eax),%eax
     bd5:	00 3a                	add    %bh,(%edx)
     bd7:	00 00                	add    %al,(%eax)
     bd9:	00 04 01             	add    %al,(%ecx,%eax,1)
     bdc:	06                   	push   %es
     bdd:	24 05                	and    $0x5,%al
     bdf:	00 00                	add    %al,(%eax)
     be1:	05 52 04 00 00       	add    $0x452,%eax
     be6:	0c 01                	or     $0x1,%al
     be8:	1f                   	pop    %ds
     be9:	78 00                	js     beb <thread_run-0xfff415>
     beb:	00 00                	add    %al,(%eax)
     bed:	06                   	push   %es
     bee:	62 75 66             	bound  %esi,0x66(%ebp)
     bf1:	00 01                	add    %al,(%ecx)
     bf3:	20 78 00             	and    %bh,0x0(%eax)
     bf6:	00 00                	add    %al,(%eax)
     bf8:	02 23                	add    (%ebx),%ah
     bfa:	00 06                	add    %al,(%esi)
     bfc:	6c                   	insb   (%dx),%es:(%edi)
     bfd:	65 6e                	outsb  %gs:(%esi),(%dx)
     bff:	00 01                	add    %al,(%ecx)
     c01:	21 7e 00             	and    %edi,0x0(%esi)
     c04:	00 00                	add    %al,(%eax)
     c06:	02 23                	add    (%ebx),%ah
     c08:	04 06                	add    $0x6,%al
     c0a:	6d                   	insl   (%dx),%es:(%edi)
     c0b:	61                   	popa   
     c0c:	78 00                	js     c0e <thread_run-0xfff3f2>
     c0e:	01 22                	add    %esp,(%edx)
     c10:	7e 00                	jle    c12 <thread_run-0xfff3ee>
     c12:	00 00                	add    %al,(%eax)
     c14:	02 23                	add    (%ebx),%ah
     c16:	08 00                	or     %al,(%eax)
     c18:	07                   	pop    %es
     c19:	04 3a                	add    $0x3a,%al
     c1b:	00 00                	add    %al,(%eax)
     c1d:	00 04 04             	add    %al,(%esp,%eax,1)
     c20:	07                   	pop    %es
     c21:	9e                   	sahf   
     c22:	05 00 00 08 49       	add    $0x49080000,%eax
     c27:	04 00                	add    $0x0,%al
     c29:	00 01                	add    %al,(%ecx)
     c2b:	26 01 04 06          	add    %eax,%es:(%esi,%eax,1)
     c2f:	00 01                	add    %al,(%ecx)
     c31:	27                   	daa    
     c32:	06                   	push   %es
     c33:	00 01                	add    %al,(%ecx)
     c35:	c7                   	(bad)  
     c36:	0b 00                	or     (%eax),%eax
     c38:	00 c6                	add    %al,%dh
     c3a:	00 00                	add    %al,(%eax)
     c3c:	00 09                	add    %cl,(%ecx)
     c3e:	61                   	popa   
     c3f:	72 67                	jb     ca8 <thread_run-0xfff358>
     c41:	00 01                	add    %al,(%ecx)
     c43:	26                   	es
     c44:	78 00                	js     c46 <thread_run-0xfff3ba>
     c46:	00 00                	add    %al,(%eax)
     c48:	02 91 00 09 63 00    	add    0x630900(%ecx),%dl
     c4e:	01 26                	add    %esp,(%esi)
     c50:	c6 00 00             	movb   $0x0,(%eax)
     c53:	00 02                	add    %al,(%edx)
     c55:	91                   	xchg   %eax,%ecx
     c56:	04 0a                	add    $0xa,%al
     c58:	5a                   	pop    %edx
     c59:	04 00                	add    $0x0,%al
     c5b:	00 01                	add    %al,(%ecx)
     c5d:	28 cd                	sub    %cl,%ch
     c5f:	00 00                	add    %al,(%eax)
     c61:	00 02                	add    %al,(%edx)
     c63:	91                   	xchg   %eax,%ecx
     c64:	00 00                	add    %al,(%eax)
     c66:	0b 04 05 69 6e 74 00 	or     0x746e69(,%eax,1),%eax
     c6d:	07                   	pop    %es
     c6e:	04 41                	add    $0x41,%al
     c70:	00 00                	add    %al,(%eax)
     c72:	00 0c 01             	add    %cl,(%ecx,%eax,1)
     c75:	3f                   	aas    
     c76:	04 00                	add    $0x0,%al
     c78:	00 01                	add    %al,(%ecx)
     c7a:	42                   	inc    %edx
     c7b:	01 c6                	add    %eax,%esi
     c7d:	00 00                	add    %al,(%eax)
     c7f:	00 27                	add    %ah,(%edi)
     c81:	06                   	push   %es
     c82:	00 01                	add    %al,(%ecx)
     c84:	77 06                	ja     c8c <thread_run-0xfff374>
     c86:	00 01                	add    %al,(%ecx)
     c88:	ff 0b                	decl   (%ebx)
     c8a:	00 00                	add    %al,(%eax)
     c8c:	35 01 00 00 09       	xor    $0x9000001,%eax
     c91:	73 00                	jae    c93 <thread_run-0xfff36d>
     c93:	01 42 78             	add    %eax,0x78(%edx)
     c96:	00 00                	add    %al,(%eax)
     c98:	00 02                	add    %al,(%edx)
     c9a:	91                   	xchg   %eax,%ecx
     c9b:	00 0d 31 03 00 00    	add    %cl,0x331
     ca1:	01 42 c6             	add    %eax,-0x3a(%edx)
     ca4:	00 00                	add    %al,(%eax)
     ca6:	00 02                	add    %al,(%edx)
     ca8:	91                   	xchg   %eax,%ecx
     ca9:	04 09                	add    $0x9,%al
     cab:	66 6d                	insw   (%dx),%es:(%edi)
     cad:	74 00                	je     caf <thread_run-0xfff351>
     caf:	01 42 35             	add    %eax,0x35(%edx)
     cb2:	01 00                	add    %eax,(%eax)
     cb4:	00 02                	add    %al,(%edx)
     cb6:	91                   	xchg   %eax,%ecx
     cb7:	08 0d 9d 00 00 00    	or     %cl,0x9d
     cbd:	01 42 25             	add    %eax,0x25(%edx)
     cc0:	00 00                	add    %al,(%eax)
     cc2:	00 02                	add    %al,(%edx)
     cc4:	91                   	xchg   %eax,%ecx
     cc5:	0c 0a                	or     $0xa,%al
     cc7:	5a                   	pop    %edx
     cc8:	04 00                	add    $0x0,%al
     cca:	00 01                	add    %al,(%ecx)
     ccc:	44                   	inc    %esp
     ccd:	41                   	inc    %ecx
     cce:	00 00                	add    %al,(%eax)
     cd0:	00 02                	add    %al,(%edx)
     cd2:	91                   	xchg   %eax,%ecx
     cd3:	6c                   	insb   (%dx),%es:(%edi)
     cd4:	00 07                	add    %al,(%edi)
     cd6:	04 3b                	add    $0x3b,%al
     cd8:	01 00                	add    %eax,(%eax)
     cda:	00 0e                	add    %cl,(%esi)
     cdc:	3a 00                	cmp    (%eax),%al
     cde:	00 00                	add    %al,(%eax)
     ce0:	0c 01                	or     $0x1,%al
     ce2:	40                   	inc    %eax
     ce3:	04 00                	add    $0x0,%al
     ce5:	00 01                	add    %al,(%ecx)
     ce7:	5b                   	pop    %ebx
     ce8:	01 c6                	add    %eax,%esi
     cea:	00 00                	add    %al,(%eax)
     cec:	00 77 06             	add    %dh,0x6(%edi)
     cef:	00 01                	add    %al,(%ecx)
     cf1:	9f                   	lahf   
     cf2:	06                   	push   %es
     cf3:	00 01                	add    %al,(%ecx)
     cf5:	37                   	aaa    
     cf6:	0c 00                	or     $0x0,%al
     cf8:	00 a3 01 00 00 09    	add    %ah,0x9000001(%ebx)
     cfe:	73 00                	jae    d00 <thread_run-0xfff300>
     d00:	01 5b 78             	add    %ebx,0x78(%ebx)
     d03:	00 00                	add    %al,(%eax)
     d05:	00 02                	add    %al,(%edx)
     d07:	91                   	xchg   %eax,%ecx
     d08:	00 0d 31 03 00 00    	add    %cl,0x331
     d0e:	01 5b c6             	add    %ebx,-0x3a(%ebx)
     d11:	00 00                	add    %al,(%eax)
     d13:	00 02                	add    %al,(%edx)
     d15:	91                   	xchg   %eax,%ecx
     d16:	04 09                	add    $0x9,%al
     d18:	66 6d                	insw   (%dx),%es:(%edi)
     d1a:	74 00                	je     d1c <thread_run-0xfff2e4>
     d1c:	01 5b 35             	add    %ebx,0x35(%ebx)
     d1f:	01 00                	add    %eax,(%eax)
     d21:	00 02                	add    %al,(%edx)
     d23:	91                   	xchg   %eax,%ecx
     d24:	08 0f                	or     %cl,(%edi)
     d26:	10 9d 00 00 00 01    	adc    %bl,0x1000000(%ebp)
     d2c:	5d                   	pop    %ebp
     d2d:	25 00 00 00 6f       	and    $0x6f000000,%eax
     d32:	0c 00                	or     $0x0,%al
     d34:	00 11                	add    %dl,(%ecx)
     d36:	65                   	gs
     d37:	72 72                	jb     dab <thread_run-0xfff255>
     d39:	00 01                	add    %al,(%ecx)
     d3b:	5e                   	pop    %esi
     d3c:	c6 00 00             	movb   $0x0,(%eax)
     d3f:	00 01                	add    %al,(%ecx)
     d41:	50                   	push   %eax
     d42:	00 0c 01             	add    %cl,(%ecx,%eax,1)
     d45:	36                   	ss
     d46:	04 00                	add    $0x0,%al
     d48:	00 01                	add    %al,(%ecx)
     d4a:	35 01 c6 00 00       	xor    $0xc601,%eax
     d4f:	00 9f 06 00 01 ed    	add    %bl,-0x12fefffa(%edi)
     d55:	06                   	push   %es
     d56:	00 01                	add    %al,(%ecx)
     d58:	9b                   	fwait
     d59:	0c 00                	or     $0x0,%al
     d5b:	00 f7                	add    %dh,%bh
     d5d:	01 00                	add    %eax,(%eax)
     d5f:	00 09                	add    %cl,(%ecx)
     d61:	73 00                	jae    d63 <thread_run-0xfff29d>
     d63:	01 35 78 00 00 00    	add    %esi,0x78
     d69:	02 91 00 09 66 6d    	add    0x6d660900(%ecx),%dl
     d6f:	74 00                	je     d71 <thread_run-0xfff28f>
     d71:	01 35 35 01 00 00    	add    %esi,0x135
     d77:	02 91 04 0d 9d 00    	add    0x9d0d04(%ecx),%dl
     d7d:	00 00                	add    %al,(%eax)
     d7f:	01 35 25 00 00 00    	add    %esi,0x25
     d85:	02 91 08 0a 5a 04    	add    0x45a0a08(%ecx),%dl
     d8b:	00 00                	add    %al,(%eax)
     d8d:	01 37                	add    %esi,(%edi)
     d8f:	41                   	inc    %ecx
     d90:	00 00                	add    %al,(%eax)
     d92:	00 02                	add    %al,(%edx)
     d94:	91                   	xchg   %eax,%ecx
     d95:	6c                   	insb   (%dx),%es:(%edi)
     d96:	00 12                	add    %dl,(%edx)
     d98:	01 37                	add    %esi,(%edi)
     d9a:	04 00                	add    $0x0,%al
     d9c:	00 01                	add    %al,(%ecx)
     d9e:	4f                   	dec    %edi
     d9f:	01 c6                	add    %eax,%esi
     da1:	00 00                	add    %al,(%eax)
     da3:	00 ed                	add    %ch,%ch
     da5:	06                   	push   %es
     da6:	00 01                	add    %al,(%ecx)
     da8:	0e                   	push   %cs
     da9:	07                   	pop    %es
     daa:	00 01                	add    %al,(%ecx)
     dac:	d3 0c 00             	rorl   %cl,(%eax,%eax,1)
     daf:	00 09                	add    %cl,(%ecx)
     db1:	73 00                	jae    db3 <thread_run-0xfff24d>
     db3:	01 4f 78             	add    %ecx,0x78(%edi)
     db6:	00 00                	add    %al,(%eax)
     db8:	00 02                	add    %al,(%edx)
     dba:	91                   	xchg   %eax,%ecx
     dbb:	00 09                	add    %cl,(%ecx)
     dbd:	66 6d                	insw   (%dx),%es:(%edi)
     dbf:	74 00                	je     dc1 <thread_run-0xfff23f>
     dc1:	01 4f 35             	add    %ecx,0x35(%edi)
     dc4:	01 00                	add    %eax,(%eax)
     dc6:	00 02                	add    %al,(%edx)
     dc8:	91                   	xchg   %eax,%ecx
     dc9:	04 0f                	add    $0xf,%al
     dcb:	10 9d 00 00 00 01    	adc    %bl,0x1000000(%ebp)
     dd1:	51                   	push   %ecx
     dd2:	25 00 00 00 0b       	and    $0xb000000,%eax
     dd7:	0d 00 00 11 65       	or     $0x65110000,%eax
     ddc:	72 72                	jb     e50 <thread_run-0xfff1b0>
     dde:	00 01                	add    %al,(%ecx)
     de0:	52                   	push   %edx
     de1:	c6 00 00             	movb   $0x0,(%eax)
     de4:	00 01                	add    %al,(%ecx)
     de6:	50                   	push   %eax
     de7:	00 00                	add    %al,(%eax)
     de9:	fb                   	sti    
     dea:	04 00                	add    $0x0,%al
     dec:	00 02                	add    %al,(%edx)
     dee:	00 cd                	add    %cl,%ch
     df0:	05 00 00 04 01       	add    $0x1040000,%eax
     df5:	0d 00 00 00 01       	or     $0x1000000,%eax
     dfa:	f3 04 00             	repz add $0x0,%al
     dfd:	00 47 00             	add    %al,0x0(%edi)
     e00:	00 00                	add    %al,(%eax)
     e02:	10 07                	adc    %al,(%edi)
     e04:	00 01                	add    %al,(%ecx)
     e06:	e2 15                	loop   e1d <thread_run-0xfff1e3>
     e08:	00 01                	add    %al,(%ecx)
     e0a:	ba 03 00 00 02       	mov    $0x2000003,%edx
     e0f:	81 03 00 00 02 09    	addl   $0x9020000,(%ebx)
     e15:	30 00                	xor    %al,(%eax)
     e17:	00 00                	add    %al,(%eax)
     e19:	03 04 77             	add    (%edi,%esi,2),%eax
     e1c:	03 00                	add    (%eax),%eax
     e1e:	00 3a                	add    %bh,(%edx)
     e20:	00 00                	add    %al,(%eax)
     e22:	00 04 01             	add    %al,(%ecx,%eax,1)
     e25:	06                   	push   %es
     e26:	24 05                	and    $0x5,%al
     e28:	00 00                	add    %al,(%eax)
     e2a:	04 04                	add    $0x4,%al
     e2c:	07                   	pop    %es
     e2d:	9e                   	sahf   
     e2e:	05 00 00 04 04       	add    $0x4040000,%eax
     e33:	07                   	pop    %es
     e34:	99                   	cltd   
     e35:	05 00 00 05 04       	add    $0x4050000,%eax
     e3a:	03 12                	add    (%edx),%edx
     e3c:	64 00 00             	add    %al,%fs:(%eax)
     e3f:	00 06                	add    %al,(%esi)
     e41:	c3                   	ret    
     e42:	04 00                	add    $0x0,%al
     e44:	00 00                	add    %al,(%eax)
     e46:	06                   	push   %es
     e47:	60                   	pusha  
     e48:	05 00 00 01 00       	add    $0x10000,%eax
     e4d:	02 6e 04             	add    0x4(%esi),%ch
     e50:	00 00                	add    %al,(%eax)
     e52:	03 15 4f 00 00 00    	add    0x4f,%edx
     e58:	07                   	pop    %es
     e59:	52                   	push   %edx
     e5a:	05 00 00 01 95       	add    $0x95010000,%eax
     e5f:	10 07                	adc    %al,(%edi)
     e61:	00 01                	add    %al,(%ecx)
     e63:	65                   	gs
     e64:	07                   	pop    %es
     e65:	00 01                	add    %al,(%ecx)
     e67:	37                   	aaa    
     e68:	0d 00 00 db 00       	or     $0xdb0000,%eax
     e6d:	00 00                	add    %al,(%eax)
     e6f:	08 75 00             	or     %dh,0x0(%ebp)
     e72:	01 96 48 00 00 00    	add    %edx,0x48(%esi)
     e78:	6f                   	outsl  %ds:(%esi),(%dx)
     e79:	0d 00 00 09 c3       	or     $0xc3090000,%eax
     e7e:	02 00                	add    (%eax),%al
     e80:	00 01                	add    %al,(%ecx)
     e82:	97                   	xchg   %eax,%edi
     e83:	db 00                	fildl  (%eax)
     e85:	00 00                	add    %al,(%eax)
     e87:	8d 0d 00 00 09 5b    	lea    0x5b090000,%ecx
     e8d:	05 00 00 01 98       	add    $0x98010000,%eax
     e92:	e9 00 00 00 ac       	jmp    ac000e97 <_end+0xaaffd54b>
     e97:	0d 00 00 0a 78       	or     $0x780a0000,%eax
     e9c:	04 00                	add    $0x0,%al
     e9e:	00 01                	add    %al,(%ecx)
     ea0:	99                   	cltd   
     ea1:	ef                   	out    %eax,(%dx)
     ea2:	00 00                	add    %al,(%eax)
     ea4:	00 02                	add    %al,(%edx)
     ea6:	91                   	xchg   %eax,%ecx
     ea7:	00 0b                	add    %cl,(%ebx)
     ea9:	62 75 66             	bound  %esi,0x66(%ebp)
     eac:	00 01                	add    %al,(%ecx)
     eae:	9b                   	fwait
     eaf:	f5                   	cmc    
     eb0:	00 00                	add    %al,(%eax)
     eb2:	00 02                	add    %al,(%edx)
     eb4:	91                   	xchg   %eax,%ecx
     eb5:	4c                   	dec    %esp
     eb6:	0c 70                	or     $0x70,%al
     eb8:	00 01                	add    %al,(%ecx)
     eba:	9c                   	pushf  
     ebb:	ef                   	out    %eax,(%dx)
     ebc:	00 00                	add    %al,(%eax)
     ebe:	00 cb                	add    %cl,%bl
     ec0:	0d 00 00 00 0d       	or     $0xd000000,%eax
     ec5:	04 05                	add    $0x5,%al
     ec7:	69 6e 74 00 0e e9 00 	imul   $0xe90e00,0x74(%esi),%ebp
     ece:	00 00                	add    %al,(%eax)
     ed0:	0f 00 10             	lldt   (%eax)
     ed3:	04 e2                	add    $0xe2,%al
     ed5:	00 00                	add    %al,(%eax)
     ed7:	00 10                	add    %dl,(%eax)
     ed9:	04 3a                	add    $0x3a,%al
     edb:	00 00                	add    %al,(%eax)
     edd:	00 11                	add    %dl,(%ecx)
     edf:	3a 00                	cmp    (%eax),%al
     ee1:	00 00                	add    %al,(%eax)
     ee3:	05 01 00 00 12       	add    $0x12000001,%eax
     ee8:	41                   	inc    %ecx
     ee9:	00 00                	add    %al,(%eax)
     eeb:	00 1f                	add    %bl,(%edi)
     eed:	00 07                	add    %al,(%edi)
     eef:	34 05                	xor    $0x5,%al
     ef1:	00 00                	add    %al,(%eax)
     ef3:	01 a8 65 07 00 01    	add    %ebp,0x1000765(%eax)
     ef9:	bd 07 00 01 eb       	mov    $0xeb010007,%ebp
     efe:	0d 00 00 70 01       	or     $0x1700000,%eax
     f03:	00 00                	add    %al,(%eax)
     f05:	08 75 00             	or     %dh,0x0(%ebp)
     f08:	01 a9 48 00 00 00    	add    %ebp,0x48(%ecx)
     f0e:	23 0e                	and    (%esi),%ecx
     f10:	00 00                	add    %al,(%eax)
     f12:	09 5b 05             	or     %ebx,0x5(%ebx)
     f15:	00 00                	add    %al,(%eax)
     f17:	01 aa e9 00 00 00    	add    %ebp,0xe9(%edx)
     f1d:	36                   	ss
     f1e:	0e                   	push   %cs
     f1f:	00 00                	add    %al,(%eax)
     f21:	09 78 04             	or     %edi,0x4(%eax)
     f24:	00 00                	add    %al,(%eax)
     f26:	01 ab ef 00 00 00    	add    %ebp,0xef(%ebx)
     f2c:	55                   	push   %ebp
     f2d:	0e                   	push   %cs
     f2e:	00 00                	add    %al,(%eax)
     f30:	0b 62 75             	or     0x75(%edx),%esp
     f33:	66                   	data16
     f34:	00 01                	add    %al,(%ecx)
     f36:	ad                   	lods   %ds:(%esi),%eax
     f37:	70 01                	jo     f3a <thread_run-0xfff0c6>
     f39:	00 00                	add    %al,(%eax)
     f3b:	02 91 64 0c 70 00    	add    0x700c64(%ecx),%dl
     f41:	01 ae ef 00 00 00    	add    %ebp,0xef(%esi)
     f47:	74 0e                	je     f57 <thread_run-0xfff0a9>
     f49:	00 00                	add    %al,(%eax)
     f4b:	0c 69                	or     $0x69,%al
     f4d:	00 01                	add    %al,(%ecx)
     f4f:	af                   	scas   %es:(%edi),%eax
     f50:	db 00                	fildl  (%eax)
     f52:	00 00                	add    %al,(%eax)
     f54:	94                   	xchg   %eax,%esp
     f55:	0e                   	push   %cs
     f56:	00 00                	add    %al,(%eax)
     f58:	00 11                	add    %dl,(%ecx)
     f5a:	3a 00                	cmp    (%eax),%al
     f5c:	00 00                	add    %al,(%eax)
     f5e:	80 01 00             	addb   $0x0,(%ecx)
     f61:	00 12                	add    %dl,(%edx)
     f63:	41                   	inc    %ecx
     f64:	00 00                	add    %al,(%eax)
     f66:	00 07                	add    %al,(%edi)
     f68:	00 13                	add    %dl,(%ebx)
     f6a:	01 17                	add    %edx,(%edi)
     f6c:	05 00 00 01 bd       	add    $0xbd010000,%eax
     f71:	01 bd 07 00 01 e2    	add    %edi,-0x1dfefff9(%ebp)
     f77:	15 00 01 b3 0e       	adc    $0xeb30100,%eax
     f7c:	00 00                	add    %al,(%eax)
     f7e:	9b                   	fwait
     f7f:	04 00                	add    $0x0,%al
     f81:	00 08                	add    %cl,(%eax)
     f83:	66 6d                	insw   (%dx),%es:(%edi)
     f85:	74 00                	je     f87 <thread_run-0xfff079>
     f87:	01 be 9b 04 00 00    	add    %edi,0x49b(%esi)
     f8d:	eb 0e                	jmp    f9d <thread_run-0xfff063>
     f8f:	00 00                	add    %al,(%eax)
     f91:	09 9d 00 00 00 01    	or     %ebx,0x1000000(%ebp)
     f97:	bf 25 00 00 00       	mov    $0x25,%edi
     f9c:	5d                   	pop    %ebp
     f9d:	0f 00 00             	sldt   (%eax)
     fa0:	0a 8e 04 00 00 01    	or     0x1000004(%esi),%cl
     fa6:	c0 db 00             	rcr    $0x0,%bl
     fa9:	00 00                	add    %al,(%eax)
     fab:	02 91 08 0a 5b 05    	add    0x55b0a08(%ecx),%dl
     fb1:	00 00                	add    %al,(%eax)
     fb3:	01 c1                	add    %eax,%ecx
     fb5:	e9 00 00 00 02       	jmp    2000fba <_end+0xffd66e>
     fba:	91                   	xchg   %eax,%ecx
     fbb:	0c 0a                	or     $0xa,%al
     fbd:	78 04                	js     fc3 <thread_run-0xfff03d>
     fbf:	00 00                	add    %al,(%eax)
     fc1:	01 c2                	add    %eax,%edx
     fc3:	ef                   	out    %eax,(%dx)
     fc4:	00 00                	add    %al,(%eax)
     fc6:	00 02                	add    %al,(%edx)
     fc8:	91                   	xchg   %eax,%ecx
     fc9:	10 14 8d 05 00 00 01 	adc    %dl,0x1000005(,%ecx,4)
     fd0:	c4 db 00             	(bad)(bad)(bad) 
     fd3:	00 00                	add    %al,(%eax)
     fd5:	c5 10                	lds    (%eax),%edx
     fd7:	00 00                	add    %al,(%eax)
     fd9:	14 c9                	adc    $0xc9,%al
     fdb:	04 00                	add    $0x0,%al
     fdd:	00 01                	add    %al,(%ecx)
     fdf:	c5 db 00             	(bad)  
     fe2:	00 00                	add    %al,(%eax)
     fe4:	f8                   	clc    
     fe5:	11 00                	adc    %eax,(%eax)
     fe7:	00 14 bb             	add    %dl,(%ebx,%edi,4)
     fea:	04 00                	add    $0x0,%al
     fec:	00 01                	add    %al,(%ecx)
     fee:	c6                   	(bad)  
     fef:	64 00 00             	add    %al,%fs:(%eax)
     ff2:	00 b9 12 00 00 14    	add    %bh,0x14000012(%ecx)
     ff8:	a7                   	cmpsl  %es:(%edi),%ds:(%esi)
     ff9:	04 00                	add    $0x0,%al
     ffb:	00 01                	add    %al,(%ecx)
     ffd:	c7                   	(bad)  
     ffe:	3a 00                	cmp    (%eax),%al
    1000:	00 00                	add    %al,(%eax)
    1002:	0c 13                	or     $0x13,%al
    1004:	00 00                	add    %al,(%eax)
    1006:	0c 6e                	or     $0x6e,%al
    1008:	00 01                	add    %al,(%ecx)
    100a:	c8 a6 04 00          	enter  $0x4a6,$0x0
    100e:	00 62 13             	add    %ah,0x13(%edx)
    1011:	00 00                	add    %al,(%eax)
    1013:	0c 6d                	or     $0x6d,%al
    1015:	00 01                	add    %al,(%ecx)
    1017:	c8 a6 04 00          	enter  $0x4a6,$0x0
    101b:	00 c6                	add    %al,%dh
    101d:	14 00                	adc    $0x0,%al
    101f:	00 0c 75 00 01 c9 ad 	add    %cl,-0x5236ff00(,%esi,2)
    1026:	04 00                	add    $0x0,%al
    1028:	00 fc                	add    %bh,%ah
    102a:	14 00                	adc    $0x0,%al
    102c:	00 14 0d 05 00 00 01 	add    %dl,0x1000005(,%ecx,1)
    1033:	ca db 00             	lret   $0xdb
    1036:	00 00                	add    %al,(%eax)
    1038:	64                   	fs
    1039:	15 00 00 14 1f       	adc    $0x1f140000,%eax
    103e:	05 00 00 01 cb       	add    $0xcb010000,%eax
    1043:	db 00                	fildl  (%eax)
    1045:	00 00                	add    %al,(%eax)
    1047:	fc                   	cld    
    1048:	15 00 00 14 94       	adc    $0x94140000,%eax
    104d:	04 00                	add    $0x0,%al
    104f:	00 01                	add    %al,(%ecx)
    1051:	cc                   	int3   
    1052:	64 00 00             	add    %al,%fs:(%eax)
    1055:	00 59 16             	add    %bl,0x16(%ecx)
    1058:	00 00                	add    %al,(%eax)
    105a:	14 6a                	adc    $0x6a,%al
    105c:	05 00 00 01 cc       	add    $0xcc010000,%eax
    1061:	64 00 00             	add    %al,%fs:(%eax)
    1064:	00 91 16 00 00 14    	add    %dl,0x14000016(%ecx)
    106a:	c3                   	ret    
    106b:	02 00                	add    (%eax),%al
    106d:	00 01                	add    %al,(%ecx)
    106f:	cd db                	int    $0xdb
    1071:	00 00                	add    %al,(%eax)
    1073:	00 a0 17 00 00 0c    	add    %ah,0xc000017(%eax)
    1079:	63 00                	arpl   %ax,(%eax)
    107b:	01 ce                	add    %ecx,%esi
    107d:	3a 00                	cmp    (%eax),%al
    107f:	00 00                	add    %al,(%eax)
    1081:	e2 17                	loop   109a <thread_run-0xffef66>
    1083:	00 00                	add    %al,(%eax)
    1085:	14 7d                	adc    $0x7d,%al
    1087:	05 00 00 01 cf       	add    $0xcf010000,%eax
    108c:	db 00                	fildl  (%eax)
    108e:	00 00                	add    %al,(%eax)
    1090:	49                   	dec    %ecx
    1091:	18 00                	sbb    %al,(%eax)
    1093:	00 15 ac 04 00 00    	add    %dl,0x4ac
    1099:	01 38                	add    %edi,(%eax)
    109b:	02 2b                	add    (%ebx),%ch
    109d:	13 00                	adc    (%eax),%eax
    109f:	01 15 81 04 00 00    	add    %edx,0x481
    10a5:	01 29                	add    %ebp,(%ecx)
    10a7:	02 c9                	add    %cl,%cl
    10a9:	12 00                	adc    (%eax),%al
    10ab:	01 15 73 05 00 00    	add    %edx,0x573
    10b1:	01 3f                	add    %edi,(%edi)
    10b3:	02 64 13 00          	add    0x0(%ebx,%edx,1),%ah
    10b7:	01 16                	add    %edx,(%esi)
    10b9:	00 00                	add    %al,(%eax)
    10bb:	00 00                	add    %al,(%eax)
    10bd:	18 03                	sbb    %al,(%ebx)
    10bf:	00 00                	add    %al,(%eax)
    10c1:	17                   	pop    %ss
    10c2:	62 75 66             	bound  %esi,0x66(%ebp)
    10c5:	00 01                	add    %al,(%ecx)
    10c7:	41                   	inc    %ecx
    10c8:	02 f5                	add    %ch,%dh
    10ca:	00 00                	add    %al,(%eax)
    10cc:	00 02                	add    %al,(%edx)
    10ce:	91                   	xchg   %eax,%ecx
    10cf:	4c                   	dec    %esp
    10d0:	18 70 00             	sbb    %dh,0x0(%eax)
    10d3:	01 42 02             	add    %eax,0x2(%edx)
    10d6:	ef                   	out    %eax,(%dx)
    10d7:	00 00                	add    %al,(%eax)
    10d9:	00 68 18             	add    %ch,0x18(%eax)
    10dc:	00 00                	add    %al,(%eax)
    10de:	19 9b 04 00 00 01    	sbb    %ebx,0x1000004(%ebx)
    10e4:	43                   	inc    %ebx
    10e5:	02 c4                	add    %ah,%al
    10e7:	04 00                	add    $0x0,%al
    10e9:	00 05 03 00 28 00    	add    %al,0x280003
    10ef:	01 1a                	add    %ebx,(%edx)
    10f1:	df 04 00             	fild   (%eax,%eax,1)
    10f4:	00 01                	add    %al,(%ecx)
    10f6:	44                   	inc    %esp
    10f7:	02 ef                	add    %bh,%ch
    10f9:	00 00                	add    %al,(%eax)
    10fb:	00 a0 18 00 00 00    	add    %ah,0x18(%eax)
    1101:	1b 97 09 00 01 46    	sbb    0x46010009(%edi),%edx
    1107:	0b 00                	or     (%eax),%eax
    1109:	01 6a 03             	add    %ebp,0x3(%edx)
    110c:	00 00                	add    %al,(%eax)
    110e:	18 70 00             	sbb    %dh,0x0(%eax)
    1111:	01 22                	add    %esp,(%edx)
    1113:	01 ef                	add    %ebp,%edi
    1115:	00 00                	add    %al,(%eax)
    1117:	00 cc                	add    %cl,%ah
    1119:	18 00                	sbb    %al,(%eax)
    111b:	00 18                	add    %bl,(%eax)
    111d:	61                   	popa   
    111e:	6e                   	outsb  %ds:(%esi),(%dx)
    111f:	79 00                	jns    1121 <thread_run-0xffeedf>
    1121:	01 23                	add    %esp,(%ebx)
    1123:	01 64 00 00          	add    %esp,0x0(%eax,%eax,1)
    1127:	00 43 19             	add    %al,0x19(%ebx)
    112a:	00 00                	add    %al,(%eax)
    112c:	18 69 00             	sbb    %ch,0x0(%ecx)
    112f:	01 24 01             	add    %esp,(%ecx,%eax,1)
    1132:	db 00                	fildl  (%eax)
    1134:	00 00                	add    %al,(%eax)
    1136:	8a 19                	mov    (%ecx),%bl
    1138:	00 00                	add    %al,(%eax)
    113a:	1c 05                	sbb    $0x5,%al
    113c:	0a 00                	or     (%eax),%al
    113e:	01 a3 0a 00 01 18    	add    %esp,0x1801000a(%ebx)
    1144:	6a 00                	push   $0x0
    1146:	01 35 01 db 00 00    	add    %esi,0xdb01
    114c:	00 c0                	add    %al,%al
    114e:	19 00                	sbb    %eax,(%eax)
    1150:	00 00                	add    %al,(%eax)
    1152:	00 16                	add    %dl,(%esi)
    1154:	18 00                	sbb    %al,(%eax)
    1156:	00 00                	add    %al,(%eax)
    1158:	77 04                	ja     115e <thread_run-0xffeea2>
    115a:	00 00                	add    %al,(%eax)
    115c:	1d 08 01 5d 01       	sbb    $0x15d0108,%eax
    1161:	fb                   	sti    
    1162:	03 00                	add    (%eax),%eax
    1164:	00 1e                	add    %bl,(%esi)
    1166:	ce                   	into   
    1167:	04 00                	add    $0x0,%al
    1169:	00 01                	add    %al,(%ecx)
    116b:	5e                   	pop    %esi
    116c:	01 41 00             	add    %eax,0x0(%ecx)
    116f:	00 00                	add    %al,(%eax)
    1171:	04 0a                	add    $0xa,%al
    1173:	16                   	push   %ss
    1174:	02 23                	add    (%ebx),%ah
    1176:	00 1e                	add    %bl,(%esi)
    1178:	85 05 00 00 01 5f    	test   %eax,0x5f010000
    117e:	01 41 00             	add    %eax,0x0(%ecx)
    1181:	00 00                	add    %al,(%eax)
    1183:	04 07                	add    $0x7,%al
    1185:	0f 02 23             	lar    (%ebx),%esp
    1188:	00 1e                	add    %bl,(%esi)
    118a:	65                   	gs
    118b:	05 00 00 01 60       	add    $0x60010000,%eax
    1190:	01 41 00             	add    %eax,0x0(%ecx)
    1193:	00 00                	add    %al,(%eax)
    1195:	04 0b                	add    $0xb,%al
    1197:	04 02                	add    $0x2,%al
    1199:	23 00                	and    (%eax),%eax
    119b:	1e                   	push   %ds
    119c:	e6 04                	out    %al,$0x4
    119e:	00 00                	add    %al,(%eax)
    11a0:	01 61 01             	add    %esp,0x1(%ecx)
    11a3:	41                   	inc    %ecx
    11a4:	00 00                	add    %al,(%eax)
    11a6:	00 04 04             	add    %al,(%esp,%eax,1)
    11a9:	00 02                	add    %al,(%edx)
    11ab:	23 00                	and    (%eax),%eax
    11ad:	1e                   	push   %ds
    11ae:	ab                   	stos   %eax,%es:(%edi)
    11af:	05 00 00 01 62       	add    $0x62010000,%eax
    11b4:	01 41 00             	add    %eax,0x0(%ecx)
    11b7:	00 00                	add    %al,(%eax)
    11b9:	04 11                	add    $0x11,%al
    11bb:	0f 02 23             	lar    (%ebx),%esp
    11be:	04 1e                	add    $0x1e,%al
    11c0:	2e                   	cs
    11c1:	05 00 00 01 63       	add    $0x63010000,%eax
    11c6:	01 41 00             	add    %eax,0x0(%ecx)
    11c9:	00 00                	add    %al,(%eax)
    11cb:	04 0b                	add    $0xb,%al
    11cd:	04 02                	add    $0x2,%al
    11cf:	23 04 1e             	and    (%esi,%ebx,1),%eax
    11d2:	29 05 00 00 01 64    	sub    %eax,0x64010000
    11d8:	01 41 00             	add    %eax,0x0(%ecx)
    11db:	00 00                	add    %al,(%eax)
    11dd:	04 04                	add    $0x4,%al
    11df:	00 02                	add    %al,(%edx)
    11e1:	23 04 00             	and    (%eax,%eax,1),%eax
    11e4:	1f                   	pop    %ds
    11e5:	db 00                	fildl  (%eax)
    11e7:	00 00                	add    %al,(%eax)
    11e9:	01 65 01             	add    %esp,0x1(%ebp)
    11ec:	73 03                	jae    11f1 <thread_run-0xffee0f>
    11ee:	00 00                	add    %al,(%eax)
    11f0:	1d 08 01 66 01       	sbb    $0x1660108,%eax
    11f5:	2f                   	das    
    11f6:	04 00                	add    $0x0,%al
    11f8:	00 20                	add    %ah,(%eax)
    11fa:	bd 00 00 00 01       	mov    $0x1000000,%ebp
    11ff:	67 01 41 00          	add    %eax,0x0(%bx,%di)
    1203:	00 00                	add    %al,(%eax)
    1205:	02 23                	add    (%ebx),%ah
    1207:	00 21                	add    %ah,(%ecx)
    1209:	6c                   	insb   (%dx),%es:(%edi)
    120a:	6f                   	outsl  %ds:(%esi),(%dx)
    120b:	77 00                	ja     120d <thread_run-0xffedf3>
    120d:	01 68 01             	add    %ebp,0x1(%eax)
    1210:	41                   	inc    %ecx
    1211:	00 00                	add    %al,(%eax)
    1213:	00 02                	add    %al,(%edx)
    1215:	23 04 00             	and    (%eax,%eax,1),%eax
    1218:	1f                   	pop    %ds
    1219:	da 04 00             	fiaddl (%eax,%eax,1)
    121c:	00 01                	add    %al,(%ecx)
    121e:	69 01 07 04 00 00    	imul   $0x407,(%ecx),%eax
    1224:	22 db                	and    %bl,%bl
    1226:	00 00                	add    %al,(%eax)
    1228:	00 08                	add    %cl,(%eax)
    122a:	01 6a 01             	add    %ebp,0x1(%edx)
    122d:	5f                   	pop    %edi
    122e:	04 00                	add    $0x0,%al
    1230:	00 23                	add    %ah,(%ebx)
    1232:	69 64 00 01 6b 01 fb 	imul   $0x3fb016b,0x1(%eax,%eax,1),%esp
    1239:	03 
    123a:	00 00                	add    %al,(%eax)
    123c:	23 6c 68 00          	and    0x0(%eax,%ebp,2),%ebp
    1240:	01 6c 01 2f          	add    %ebp,0x2f(%ecx,%eax,1)
    1244:	04 00                	add    $0x0,%al
    1246:	00 00                	add    %al,(%eax)
    1248:	17                   	pop    %ss
    1249:	74 69                	je     12b4 <thread_run-0xffed4c>
    124b:	64 00 01             	add    %al,%fs:(%ecx)
    124e:	6d                   	insl   (%dx),%es:(%edi)
    124f:	01 3b                	add    %edi,(%ebx)
    1251:	04 00                	add    $0x0,%al
    1253:	00 0a                	add    %cl,(%edx)
    1255:	75 a0                	jne    11f7 <thread_run-0xffee09>
    1257:	7f 93                	jg     11ec <thread_run-0xffee14>
    1259:	04 75                	add    $0x75,%al
    125b:	a4                   	movsb  %ds:(%esi),%es:(%edi)
    125c:	7f 93                	jg     11f1 <thread_run-0xffee0f>
    125e:	04 00                	add    $0x0,%al
    1260:	1c 26                	sbb    $0x26,%al
    1262:	10 00                	adc    %al,(%eax)
    1264:	01 19                	add    %ebx,(%ecx)
    1266:	12 00                	adc    (%eax),%al
    1268:	01 18                	add    %ebx,(%eax)
    126a:	70 00                	jo     126c <thread_run-0xffed94>
    126c:	01 c7                	add    %eax,%edi
    126e:	01 ef                	add    %ebp,%edi
    1270:	00 00                	add    %al,(%eax)
    1272:	00 e0                	add    %ah,%al
    1274:	19 00                	sbb    %eax,(%eax)
    1276:	00 24 70             	add    %ah,(%eax,%esi,2)
    1279:	32 00                	xor    (%eax),%al
    127b:	01 c8                	add    %ecx,%eax
    127d:	01 ef                	add    %ebp,%edi
    127f:	00 00                	add    %al,(%eax)
    1281:	00 00                	add    %al,(%eax)
    1283:	00 10                	add    %dl,(%eax)
    1285:	04 a1                	add    $0xa1,%al
    1287:	04 00                	add    $0x0,%al
    1289:	00 25 3a 00 00 00    	add    %ah,0x3a
    128f:	04 08                	add    $0x8,%al
    1291:	05 60 04 00 00       	add    $0x460,%eax
    1296:	04 08                	add    $0x8,%al
    1298:	07                   	pop    %es
    1299:	94                   	xchg   %eax,%esp
    129a:	05 00 00 11 3a       	add    $0x3a110000,%eax
    129f:	00 00                	add    %al,(%eax)
    12a1:	00 c4                	add    %al,%ah
    12a3:	04 00                	add    $0x0,%al
    12a5:	00 12                	add    %dl,(%edx)
    12a7:	41                   	inc    %ecx
    12a8:	00 00                	add    %al,(%eax)
    12aa:	00 10                	add    %dl,(%eax)
    12ac:	00 25 b4 04 00 00    	add    %ah,0x4b4
    12b2:	26 a2 04 00 00 01    	mov    %al,%es:0x1000004
    12b8:	92                   	xchg   %eax,%edx
    12b9:	da 04 00             	fiaddl (%eax,%eax,1)
    12bc:	00 05 03 11 28 00    	add    %al,0x281103
    12c2:	01 25 b4 04 00 00    	add    %esp,0x4b4
    12c8:	27                   	daa    
    12c9:	40                   	inc    %eax
    12ca:	05 00 00 01 bb       	add    $0xbb010000,%eax
    12cf:	64 00 00             	add    %al,%fs:(%eax)
    12d2:	00 01                	add    %al,(%ecx)
    12d4:	01 28                	add    %ebp,(%eax)
    12d6:	40                   	inc    %eax
    12d7:	05 00 00 01 bb       	add    $0xbb010000,%eax
    12dc:	64 00 00             	add    %al,%fs:(%eax)
    12df:	00 01                	add    %al,(%ecx)
    12e1:	05 03 34 39 00       	add    $0x393403,%eax
    12e6:	01 00                	add    %eax,(%eax)
    12e8:	58                   	pop    %eax
    12e9:	00 00                	add    %al,(%eax)
    12eb:	00 02                	add    %al,(%edx)
    12ed:	00 e4                	add    %ah,%ah
    12ef:	07                   	pop    %es
    12f0:	00 00                	add    %al,(%eax)
    12f2:	04 01                	add    $0x1,%al
    12f4:	0d 00 00 00 01       	or     $0x1000000,%eax
    12f9:	b5 05                	mov    $0x5,%ch
    12fb:	00 00                	add    %al,(%eax)
    12fd:	47                   	inc    %edi
    12fe:	00 00                	add    %al,(%eax)
    1300:	00 e4                	add    %ah,%ah
    1302:	15 00 01 fa 15       	adc    $0x15fa0100,%eax
    1307:	00 01                	add    %al,(%ecx)
    1309:	d7                   	xlat   %ds:(%ebx)
    130a:	05 00 00 02 04       	add    $0x4020000,%eax
    130f:	07                   	pop    %es
    1310:	9e                   	sahf   
    1311:	05 00 00 03 01       	add    $0x1030000,%eax
    1316:	b0 05                	mov    $0x5,%al
    1318:	00 00                	add    %al,(%eax)
    131a:	01 0c 01             	add    %ecx,(%ecx,%eax,1)
    131d:	e4 15                	in     $0x15,%al
    131f:	00 01                	add    %al,(%ecx)
    1321:	fa                   	cli    
    1322:	15 00 01 2d 1a       	adc    $0x1a2d0100,%eax
    1327:	00 00                	add    %al,(%eax)
    1329:	54                   	push   %esp
    132a:	00 00                	add    %al,(%eax)
    132c:	00 04 f8             	add    %al,(%eax,%edi,8)
    132f:	07                   	pop    %es
    1330:	00 00                	add    %al,(%eax)
    1332:	01 0c 54             	add    %ecx,(%esp,%edx,2)
    1335:	00 00                	add    %al,(%eax)
    1337:	00 02                	add    %al,(%edx)
    1339:	91                   	xchg   %eax,%ecx
    133a:	00 00                	add    %al,(%eax)
    133c:	05 04 05 69 6e       	add    $0x6e690504,%eax
    1341:	74 00                	je     1343 <thread_run-0xffecbd>
    1343:	00 a6 00 00 00 02    	add    %ah,0x2000000(%esi)
    1349:	00 34 08             	add    %dh,(%eax,%ecx,1)
    134c:	00 00                	add    %al,(%eax)
    134e:	04 01                	add    $0x1,%al
    1350:	0d 00 00 00 01       	or     $0x1000000,%eax
    1355:	ce                   	into   
    1356:	05 00 00 47 00       	add    $0x470000,%eax
    135b:	00 00                	add    %al,(%eax)
    135d:	fc                   	cld    
    135e:	15 00 01 1f 16       	adc    $0x161f0100,%eax
    1363:	00 01                	add    %al,(%ecx)
    1365:	21 06                	and    %eax,(%esi)
    1367:	00 00                	add    %al,(%eax)
    1369:	02 36                	add    (%esi),%dh
    136b:	03 00                	add    (%eax),%eax
    136d:	00 02                	add    %al,(%edx)
    136f:	0a 30                	or     (%eax),%dh
    1371:	00 00                	add    %al,(%eax)
    1373:	00 03                	add    %al,(%ebx)
    1375:	04 07                	add    $0x7,%al
    1377:	9e                   	sahf   
    1378:	05 00 00 03 04       	add    $0x4030000,%eax
    137d:	07                   	pop    %es
    137e:	99                   	cltd   
    137f:	05 00 00 04 01       	add    $0x1040000,%eax
    1384:	e9 05 00 00 01       	jmp    100138e <_doprnt+0xbd1>
    1389:	19 01                	sbb    %eax,(%ecx)
    138b:	93                   	xchg   %eax,%ebx
    138c:	00 00                	add    %al,(%eax)
    138e:	00 fc                	add    %bh,%ah
    1390:	15 00 01 1f 16       	adc    $0x161f0100,%eax
    1395:	00 01                	add    %al,(%ecx)
    1397:	59                   	pop    %ecx
    1398:	1a 00                	sbb    (%eax),%al
    139a:	00 93 00 00 00 05    	add    %dl,0x5000000(%ebx)
    13a0:	74 6f                	je     1411 <thread_run-0xffebef>
    13a2:	76 00                	jbe    13a4 <thread_run-0xffec5c>
    13a4:	01 19                	add    %ebx,(%ecx)
    13a6:	93                   	xchg   %eax,%ebx
    13a7:	00 00                	add    %al,(%eax)
    13a9:	00 02                	add    %al,(%edx)
    13ab:	91                   	xchg   %eax,%ecx
    13ac:	00 05 63 00 01 19    	add    %al,0x19010063
    13b2:	95                   	xchg   %eax,%ebp
    13b3:	00 00                	add    %al,(%eax)
    13b5:	00 02                	add    %al,(%edx)
    13b7:	91                   	xchg   %eax,%ecx
    13b8:	04 06                	add    $0x6,%al
    13ba:	6c                   	insb   (%dx),%es:(%edi)
    13bb:	65 6e                	outsb  %gs:(%esi),(%dx)
    13bd:	00 01                	add    %al,(%ecx)
    13bf:	19 25 00 00 00 91    	sbb    %esp,0x91000000
    13c5:	1a 00                	sbb    (%eax),%al
    13c7:	00 07                	add    %al,(%edi)
    13c9:	74 6f                	je     143a <thread_run-0xffebc6>
    13cb:	00 01                	add    %al,(%ecx)
    13cd:	1b 9c 00 00 00 b5 1a 	sbb    0x1ab50000(%eax,%eax,1),%ebx
    13d4:	00 00                	add    %al,(%eax)
    13d6:	00 08                	add    %cl,(%eax)
    13d8:	04 09                	add    $0x9,%al
    13da:	04 05                	add    $0x5,%al
    13dc:	69 6e 74 00 0a 04 a2 	imul   $0xa2040a00,0x74(%esi),%ebp
    13e3:	00 00                	add    %al,(%eax)
    13e5:	00 03                	add    %al,(%ebx)
    13e7:	01 06                	add    %eax,(%esi)
    13e9:	24 05                	and    $0x5,%al
    13eb:	00 00                	add    %al,(%eax)
    13ed:	00 70 00             	add    %dh,0x0(%eax)
    13f0:	00 00                	add    %al,(%eax)
    13f2:	02 00                	add    (%eax),%al
    13f4:	c1 08 00             	rorl   $0x0,(%eax)
    13f7:	00 04 01             	add    %al,(%ecx,%eax,1)
    13fa:	0d 00 00 00 01       	or     $0x1000000,%eax
    13ff:	fe 05 00 00 47 00    	incb   0x470000
    1405:	00 00                	add    %al,(%eax)
    1407:	20 16                	and    %dl,(%esi)
    1409:	00 01                	add    %al,(%ecx)
    140b:	38 16                	cmp    %dl,(%esi)
    140d:	00 01                	add    %al,(%ecx)
    140f:	86 06                	xchg   %al,(%esi)
    1411:	00 00                	add    %al,(%eax)
    1413:	02 01                	add    (%ecx),%al
    1415:	f7 05 00 00 01 24 5f 	testl  $0x5f,0x24010000
    141c:	00 00 00 
    141f:	20 16                	and    %dl,(%esi)
    1421:	00 01                	add    %al,(%ecx)
    1423:	38 16                	cmp    %dl,(%esi)
    1425:	00 01                	add    %al,(%ecx)
    1427:	c9                   	leave  
    1428:	1a 00                	sbb    (%eax),%al
    142a:	00 5f 00             	add    %bl,0x0(%edi)
    142d:	00 00                	add    %al,(%eax)
    142f:	03 f0                	add    %eax,%esi
    1431:	05 00 00 01 25       	add    $0x25010000,%eax
    1436:	66                   	data16
    1437:	00 00                	add    %al,(%eax)
    1439:	00 01                	add    %al,(%ecx)
    143b:	1b 00                	sbb    (%eax),%eax
    143d:	00 04 72             	add    %al,(%edx,%esi,2)
    1440:	65                   	gs
    1441:	74 00                	je     1443 <thread_run-0xffebbd>
    1443:	01 27                	add    %esp,(%edi)
    1445:	66                   	data16
    1446:	00 00                	add    %al,(%eax)
    1448:	00 02                	add    %al,(%edx)
    144a:	91                   	xchg   %eax,%ecx
    144b:	00 00                	add    %al,(%eax)
    144d:	05 04 05 69 6e       	add    $0x6e690504,%eax
    1452:	74 00                	je     1454 <thread_run-0xffebac>
    1454:	06                   	push   %es
    1455:	04 6c                	add    $0x6c,%al
    1457:	00 00                	add    %al,(%eax)
    1459:	00 07                	add    %al,(%edi)
    145b:	01 06                	add    %eax,(%esi)
    145d:	24 05                	and    $0x5,%al
    145f:	00 00                	add    %al,(%eax)
    1461:	00 25 01 00 00 02    	add    %ah,0x2000001
    1467:	00 29                	add    %ch,(%ecx)
    1469:	09 00                	or     %eax,(%eax)
    146b:	00 04 01             	add    %al,(%ecx,%eax,1)
    146e:	0d 00 00 00 01       	or     $0x1000000,%eax
    1473:	28 06                	sub    %al,(%esi)
    1475:	00 00                	add    %al,(%eax)
    1477:	47                   	inc    %edi
    1478:	00 00                	add    %al,(%eax)
    147a:	00 38                	add    %bh,(%eax)
    147c:	16                   	push   %ss
    147d:	00 01                	add    %al,(%ecx)
    147f:	0c 17                	or     $0x17,%al
    1481:	00 01                	add    %al,(%ecx)
    1483:	d3 06                	roll   %cl,(%esi)
    1485:	00 00                	add    %al,(%eax)
    1487:	02 36                	add    (%esi),%dh
    1489:	03 00                	add    (%eax),%eax
    148b:	00 02                	add    %al,(%edx)
    148d:	0a 30                	or     (%eax),%dh
    148f:	00 00                	add    %al,(%eax)
    1491:	00 03                	add    %al,(%ebx)
    1493:	04 07                	add    $0x7,%al
    1495:	9e                   	sahf   
    1496:	05 00 00 03 04       	add    $0x4030000,%eax
    149b:	07                   	pop    %es
    149c:	99                   	cltd   
    149d:	05 00 00 04 01       	add    $0x1040000,%eax
    14a2:	db 06                	fildl  (%esi)
    14a4:	00 00                	add    %al,(%eax)
    14a6:	01 49 01             	add    %ecx,0x1(%ecx)
    14a9:	38 16                	cmp    %dl,(%esi)
    14ab:	00 01                	add    %al,(%ecx)
    14ad:	54                   	push   %esp
    14ae:	16                   	push   %ss
    14af:	00 01                	add    %al,(%ecx)
    14b1:	2b 1b                	sub    (%ebx),%ebx
    14b3:	00 00                	add    %al,(%eax)
    14b5:	66                   	data16
    14b6:	00 00                	add    %al,(%eax)
    14b8:	00 05 48 03 00 00    	add    %al,0x348
    14be:	01 49 66             	add    %ecx,0x66(%ecx)
    14c1:	00 00                	add    %al,(%eax)
    14c3:	00 02                	add    %al,(%edx)
    14c5:	91                   	xchg   %eax,%ecx
    14c6:	00 00                	add    %al,(%eax)
    14c8:	06                   	push   %es
    14c9:	04 07                	add    $0x7,%al
    14cb:	01 84 06 00 00 01 3c 	add    %eax,0x3c010000(%esi,%eax,1)
    14d2:	01 66 00             	add    %esp,0x0(%esi)
    14d5:	00 00                	add    %al,(%eax)
    14d7:	54                   	push   %esp
    14d8:	16                   	push   %ss
    14d9:	00 01                	add    %al,(%ecx)
    14db:	7c 16                	jl     14f3 <thread_run-0xffeb0d>
    14dd:	00 01                	add    %al,(%ecx)
    14df:	63 1b                	arpl   %bx,(%ebx)
    14e1:	00 00                	add    %al,(%eax)
    14e3:	a2 00 00 00 05       	mov    %al,0x5000000
    14e8:	48                   	dec    %eax
    14e9:	03 00                	add    (%eax),%eax
    14eb:	00 01                	add    %al,(%ecx)
    14ed:	3c 66                	cmp    $0x66,%al
    14ef:	00 00                	add    %al,(%eax)
    14f1:	00 02                	add    %al,(%edx)
    14f3:	91                   	xchg   %eax,%ecx
    14f4:	00 05 3d 03 00 00    	add    %al,0x33d
    14fa:	01 3c 25 00 00 00 02 	add    %edi,0x2000000(,%eiz,1)
    1501:	91                   	xchg   %eax,%ecx
    1502:	04 00                	add    $0x0,%al
    1504:	07                   	pop    %es
    1505:	01 d1                	add    %edx,%ecx
    1507:	06                   	push   %es
    1508:	00 00                	add    %al,(%eax)
    150a:	01 16                	add    %edx,(%esi)
    150c:	01 66 00             	add    %esp,0x0(%esi)
    150f:	00 00                	add    %al,(%eax)
    1511:	7c 16                	jl     1529 <thread_run-0xffead7>
    1513:	00 01                	add    %al,(%ecx)
    1515:	b2 16                	mov    $0x16,%dl
    1517:	00 01                	add    %al,(%ecx)
    1519:	9b                   	fwait
    151a:	1b 00                	sbb    (%eax),%eax
    151c:	00 ce                	add    %cl,%dh
    151e:	00 00                	add    %al,(%eax)
    1520:	00 05 2f 03 00 00    	add    %al,0x32f
    1526:	01 16                	add    %edx,(%esi)
    1528:	25 00 00 00 02       	and    $0x2000000,%eax
    152d:	91                   	xchg   %eax,%ecx
    152e:	00 00                	add    %al,(%eax)
    1530:	07                   	pop    %es
    1531:	01 20                	add    %esp,(%eax)
    1533:	06                   	push   %es
    1534:	00 00                	add    %al,(%eax)
    1536:	01 25 01 66 00 00    	add    %esp,0x6601
    153c:	00 b2 16 00 01 0c    	add    %dh,0xc010016(%edx)
    1542:	17                   	pop    %ss
    1543:	00 01                	add    %al,(%ecx)
    1545:	d3 1b                	rcrl   %cl,(%ebx)
    1547:	00 00                	add    %al,(%eax)
    1549:	17                   	pop    %ss
    154a:	01 00                	add    %eax,(%eax)
    154c:	00 05 66 03 00 00    	add    %al,0x366
    1552:	01 25 25 00 00 00    	add    %esp,0x25
    1558:	02 91 00 05 6d 03    	add    0x36d0500(%ecx),%dl
    155e:	00 00                	add    %al,(%eax)
    1560:	01 25 25 00 00 00    	add    %esp,0x25
    1566:	02 91 04 08 6e 65    	add    0x656e0804(%ecx),%dl
    156c:	77 00                	ja     156e <thread_run-0xffea92>
    156e:	01 27                	add    %esp,(%edi)
    1570:	66                   	data16
    1571:	00 00                	add    %al,(%eax)
    1573:	00 17                	add    %dl,(%edi)
    1575:	1c 00                	sbb    $0x0,%al
    1577:	00 00                	add    %al,(%eax)
    1579:	09 19                	or     %ebx,(%ecx)
    157b:	06                   	push   %es
    157c:	00 00                	add    %al,(%eax)
    157e:	01 0f                	add    %ecx,(%edi)
    1580:	30 00                	xor    %al,(%eax)
    1582:	00 00                	add    %al,(%eax)
    1584:	05 03 38 39 00       	add    $0x393803,%eax
    1589:	01 00                	add    %eax,(%eax)
    158b:	ae                   	scas   %es:(%edi),%al
    158c:	03 00                	add    (%eax),%eax
    158e:	00 02                	add    %al,(%edx)
    1590:	00 b9 09 00 00 04    	add    %bh,0x4000009(%ecx)
    1596:	01 0d 00 00 00 01    	add    %ecx,0x1000000
    159c:	64                   	fs
    159d:	06                   	push   %es
    159e:	00 00                	add    %al,(%eax)
    15a0:	47                   	inc    %edi
    15a1:	00 00                	add    %al,(%eax)
    15a3:	00 10                	add    %dl,(%eax)
    15a5:	17                   	pop    %ss
    15a6:	00 01                	add    %al,(%ecx)
    15a8:	ad                   	lods   %ds:(%esi),%eax
    15a9:	1b 00                	sbb    (%eax),%eax
    15ab:	01 50 07             	add    %edx,0x7(%eax)
    15ae:	00 00                	add    %al,(%eax)
    15b0:	02 04 07             	add    (%edi,%eax,1),%al
    15b3:	9e                   	sahf   
    15b4:	05 00 00 02 04       	add    $0x4020000,%eax
    15b9:	07                   	pop    %es
    15ba:	99                   	cltd   
    15bb:	05 00 00 02 01       	add    $0x1020000,%eax
    15c0:	06                   	push   %es
    15c1:	24 05                	and    $0x5,%al
    15c3:	00 00                	add    %al,(%eax)
    15c5:	03 6d 69             	add    0x69(%ebp),%ebp
    15c8:	6e                   	outsb  %ds:(%esi),(%dx)
    15c9:	00 01                	add    %al,(%ecx)
    15cb:	30 01                	xor    %al,(%ecx)
    15cd:	25 00 00 00 03       	and    $0x3000000,%eax
    15d2:	5e                   	pop    %esi
    15d3:	00 00                	add    %al,(%eax)
    15d5:	00 04 78             	add    %al,(%eax,%edi,2)
    15d8:	00 01                	add    %al,(%ecx)
    15da:	30 25 00 00 00 04    	xor    %ah,0x4000000
    15e0:	79 00                	jns    15e2 <thread_run-0xffea1e>
    15e2:	01 30                	add    %esi,(%eax)
    15e4:	25 00 00 00 00       	and    $0x0,%eax
    15e9:	05 f9 06 00 00       	add    $0x6f9,%eax
    15ee:	01 da                	add    %ebx,%edx
    15f0:	01 10                	add    %edx,(%eax)
    15f2:	17                   	pop    %ss
    15f3:	00 01                	add    %al,(%ecx)
    15f5:	74 17                	je     160e <thread_run-0xffe9f2>
    15f7:	00 01                	add    %al,(%ecx)
    15f9:	35 1c 00 00 a3       	xor    $0xa300001c,%eax
    15fe:	00 00                	add    %al,(%eax)
    1600:	00 06                	add    %al,(%esi)
    1602:	62 70 00             	bound  %esi,0x0(%eax)
    1605:	01 da                	add    %ebx,%edx
    1607:	a3 00 00 00 79       	mov    %eax,0x79000000
    160c:	1c 00                	sbb    $0x0,%al
    160e:	00 07                	add    %al,(%edi)
    1610:	c3                   	ret    
    1611:	06                   	push   %es
    1612:	00 00                	add    %al,(%eax)
    1614:	01 da                	add    %ebx,%edx
    1616:	a5                   	movsl  %ds:(%esi),%es:(%edi)
    1617:	00 00                	add    %al,(%eax)
    1619:	00 bf 1c 00 00 08    	add    %bh,0x800001c(%edi)
    161f:	43                   	inc    %ebx
    1620:	06                   	push   %es
    1621:	00 00                	add    %al,(%eax)
    1623:	01 dd                	add    %ebx,%ebp
    1625:	a5                   	movsl  %ds:(%esi),%es:(%edi)
    1626:	00 00                	add    %al,(%eax)
    1628:	00 dd                	add    %bl,%ch
    162a:	1c 00                	sbb    $0x0,%al
    162c:	00 00                	add    %al,(%eax)
    162e:	09 04 0a             	or     %eax,(%edx,%ecx,1)
    1631:	04 05                	add    $0x5,%al
    1633:	69 6e 74 00 0b 08 07 	imul   $0x7080b00,0x74(%esi),%ebp
    163a:	00 00                	add    %al,(%eax)
    163c:	01 05 01 01 a3 00    	add    %eax,0xa30101
    1642:	00 00                	add    %al,(%eax)
    1644:	74 17                	je     165d <thread_run-0xffe9a3>
    1646:	00 01                	add    %al,(%ecx)
    1648:	84 18                	test   %bl,(%eax)
    164a:	00 01                	add    %al,(%ecx)
    164c:	fb                   	sti    
    164d:	1c 00                	sbb    $0x0,%al
    164f:	00 09                	add    %cl,(%ecx)
    1651:	01 00                	add    %eax,(%eax)
    1653:	00 0c 62             	add    %cl,(%edx,%eiz,2)
    1656:	70 00                	jo     1658 <thread_run-0xffe9a8>
    1658:	01 05 01 a3 00 00    	add    %eax,0xa301
    165e:	00 3f                	add    %bh,(%edi)
    1660:	1d 00 00 0d e1       	sbb    $0xe10d0000,%eax
    1665:	06                   	push   %es
    1666:	00 00                	add    %al,(%eax)
    1668:	01 07                	add    %eax,(%edi)
    166a:	01 a5 00 00 00 5f    	add    %esp,0x5f000000(%ebp)
    1670:	1d 00 00 0d 9e       	sbb    $0x9e0d0000,%eax
    1675:	06                   	push   %es
    1676:	00 00                	add    %al,(%eax)
    1678:	01 08                	add    %ecx,(%eax)
    167a:	01 a5 00 00 00 8d    	add    %esp,-0x73000000(%ebp)
    1680:	1d 00 00 0d 31       	sbb    $0x310d0000,%eax
    1685:	03 00                	add    (%eax),%eax
    1687:	00 01                	add    %al,(%ecx)
    1689:	09 01                	or     %eax,(%ecx)
    168b:	a5                   	movsl  %ds:(%esi),%es:(%edi)
    168c:	00 00                	add    %al,(%eax)
    168e:	00 d1                	add    %dl,%cl
    1690:	1d 00 00 00 0e       	sbb    $0xe000000,%eax
    1695:	01 d9                	add    %ebx,%ecx
    1697:	06                   	push   %es
    1698:	00 00                	add    %al,(%eax)
    169a:	01 78 01             	add    %edi,0x1(%eax)
    169d:	84 18                	test   %bl,(%eax)
    169f:	00 01                	add    %al,(%ecx)
    16a1:	a3 18 00 01 49       	mov    %eax,0x49010018
    16a6:	1e                   	push   %ds
    16a7:	00 00                	add    %al,(%eax)
    16a9:	49                   	dec    %ecx
    16aa:	01 00                	add    %eax,(%eax)
    16ac:	00 0f                	add    %cl,(%edi)
    16ae:	62 70 00             	bound  %esi,0x0(%eax)
    16b1:	01 78 a3             	add    %edi,-0x5d(%eax)
    16b4:	00 00                	add    %al,(%eax)
    16b6:	00 02                	add    %al,(%edx)
    16b8:	91                   	xchg   %eax,%ecx
    16b9:	00 10                	add    %dl,(%eax)
    16bb:	8e 18                	mov    (%eax),%ds
    16bd:	00 01                	add    %al,(%ecx)
    16bf:	a1 18 00 01 08       	mov    0x8010018,%eax
    16c4:	31 03                	xor    %eax,(%ebx)
    16c6:	00 00                	add    %al,(%eax)
    16c8:	01 81 a5 00 00 00    	add    %eax,0xa5(%ecx)
    16ce:	81 1e 00 00 00 00    	sbbl   $0x0,(%esi)
    16d4:	11 11                	adc    %edx,(%ecx)
    16d6:	07                   	pop    %es
    16d7:	00 00                	add    %al,(%eax)
    16d9:	01 3a                	add    %edi,(%edx)
    16db:	01 01                	add    %eax,(%ecx)
    16dd:	a3 18 00 01 e0       	mov    %eax,0xe0010018
    16e2:	18 00                	sbb    %al,(%eax)
    16e4:	01 94 1e 00 00 72 01 	add    %edx,0x1720000(%esi,%ebx,1)
    16eb:	00 00                	add    %al,(%eax)
    16ed:	0c 62                	or     $0x62,%al
    16ef:	70 00                	jo     16f1 <thread_run-0xffe90f>
    16f1:	01 3a                	add    %edi,(%edx)
    16f3:	01 a3 00 00 00 cc    	add    %esp,-0x34000000(%ebx)
    16f9:	1e                   	push   %ds
    16fa:	00 00                	add    %al,(%eax)
    16fc:	00 11                	add    %dl,(%ecx)
    16fe:	29 07                	sub    %eax,(%edi)
    1700:	00 00                	add    %al,(%eax)
    1702:	01 27                	add    %esp,(%edi)
    1704:	01 01                	add    %eax,(%ecx)
    1706:	e0 18                	loopne 1720 <thread_run-0xffe8e0>
    1708:	00 01                	add    %al,(%ecx)
    170a:	52                   	push   %edx
    170b:	19 00                	sbb    %eax,(%eax)
    170d:	01 ea                	add    %ebp,%edx
    170f:	1e                   	push   %ds
    1710:	00 00                	add    %al,(%eax)
    1712:	db 01                	fildl  (%ecx)
    1714:	00 00                	add    %al,(%eax)
    1716:	0c 62                	or     $0x62,%al
    1718:	70 00                	jo     171a <thread_run-0xffe8e6>
    171a:	01 27                	add    %esp,(%edi)
    171c:	01 a3 00 00 00 22    	add    %esp,0x22000000(%ebx)
    1722:	1f                   	pop    %ds
    1723:	00 00                	add    %al,(%eax)
    1725:	0d 8d 06 00 00       	or     $0x68d,%eax
    172a:	01 29                	add    %ebp,(%ecx)
    172c:	01 a5 00 00 00 40    	add    %esp,0x40000000(%ebp)
    1732:	1f                   	pop    %ds
    1733:	00 00                	add    %al,(%eax)
    1735:	0d a9 06 00 00       	or     $0x6a9,%eax
    173a:	01 29                	add    %ebp,(%ecx)
    173c:	01 a5 00 00 00 53    	add    %esp,0x53000000(%ebp)
    1742:	1f                   	pop    %ds
    1743:	00 00                	add    %al,(%eax)
    1745:	0d f3 06 00 00       	or     $0x6f3,%eax
    174a:	01 29                	add    %ebp,(%ecx)
    174c:	01 a5 00 00 00 8a    	add    %esp,-0x76000000(%ebp)
    1752:	1f                   	pop    %ds
    1753:	00 00                	add    %al,(%eax)
    1755:	0d ec 06 00 00       	or     $0x6ec,%eax
    175a:	01 29                	add    %ebp,(%ecx)
    175c:	01 a5 00 00 00 ce    	add    %esp,-0x32000000(%ebp)
    1762:	1f                   	pop    %ds
    1763:	00 00                	add    %al,(%eax)
    1765:	00 0e                	add    %cl,(%esi)
    1767:	01 1c 07             	add    %ebx,(%edi,%eax,1)
    176a:	00 00                	add    %al,(%eax)
    176c:	01 a3 01 52 19 00    	add    %esp,0x195201(%ebx)
    1772:	01 fb                	add    %edi,%ebx
    1774:	19 00                	sbb    %eax,(%eax)
    1776:	01 0f                	add    %ecx,(%edi)
    1778:	20 00                	and    %al,(%eax)
    177a:	00 11                	add    %dl,(%ecx)
    177c:	02 00                	add    (%eax),%al
    177e:	00 12                	add    %dl,(%edx)
    1780:	54                   	push   %esp
    1781:	06                   	push   %es
    1782:	00 00                	add    %al,(%eax)
    1784:	01 a3 a5 00 00 00    	add    %esp,0xa5(%ebx)
    178a:	02 91 00 13 62 70    	add    0x70621300(%ecx),%dl
    1790:	00 01                	add    %al,(%ecx)
    1792:	a5                   	movsl  %ds:(%esi),%es:(%edi)
    1793:	11 02                	adc    %eax,(%edx)
    1795:	00 00                	add    %al,(%eax)
    1797:	47                   	inc    %edi
    1798:	20 00                	and    %al,(%eax)
    179a:	00 00                	add    %al,(%eax)
    179c:	14 04                	adc    $0x4,%al
    179e:	33 00                	xor    (%eax),%eax
    17a0:	00 00                	add    %al,(%eax)
    17a2:	15 34 07 00 00       	adc    $0x734,%eax
    17a7:	01 c0                	add    %eax,%eax
    17a9:	01 a3 00 00 00 fb    	add    %esp,-0x5000000(%ebx)
    17af:	19 00                	sbb    %eax,(%eax)
    17b1:	01 4f 1a             	add    %ecx,0x1a(%edi)
    17b4:	00 01                	add    %al,(%ecx)
    17b6:	78 20                	js     17d8 <thread_run-0xffe828>
    17b8:	00 00                	add    %al,(%eax)
    17ba:	60                   	pusha  
    17bb:	02 00                	add    (%eax),%al
    17bd:	00 07                	add    %al,(%edi)
    17bf:	c9                   	leave  
    17c0:	06                   	push   %es
    17c1:	00 00                	add    %al,(%eax)
    17c3:	01 c0                	add    %eax,%eax
    17c5:	a5                   	movsl  %ds:(%esi),%es:(%edi)
    17c6:	00 00                	add    %al,(%eax)
    17c8:	00 b0 20 00 00 13    	add    %dh,0x13000020(%eax)
    17ce:	62 70 00             	bound  %esi,0x0(%eax)
    17d1:	01 c2                	add    %eax,%edx
    17d3:	11 02                	adc    %eax,(%edx)
    17d5:	00 00                	add    %al,(%eax)
    17d7:	c3                   	ret    
    17d8:	20 00                	and    %al,(%eax)
    17da:	00 08                	add    %cl,(%eax)
    17dc:	31 03                	xor    %eax,(%ebx)
    17de:	00 00                	add    %al,(%eax)
    17e0:	01 c3                	add    %eax,%ebx
    17e2:	a5                   	movsl  %ds:(%esi),%es:(%edi)
    17e3:	00 00                	add    %al,(%eax)
    17e5:	00 d6                	add    %dl,%dh
    17e7:	20 00                	and    %al,(%eax)
    17e9:	00 00                	add    %al,(%eax)
    17eb:	16                   	push   %ss
    17ec:	ba 06 00 00 01       	mov    $0x1000006,%edx
    17f1:	f2 01 a3 00 00 00 01 	repnz add %esp,0x1000000(%ebx)
    17f8:	87 02                	xchg   %eax,(%edx)
    17fa:	00 00                	add    %al,(%eax)
    17fc:	17                   	pop    %ss
    17fd:	c3                   	ret    
    17fe:	06                   	push   %es
    17ff:	00 00                	add    %al,(%eax)
    1801:	01 f2                	add    %esi,%edx
    1803:	a5                   	movsl  %ds:(%esi),%es:(%edi)
    1804:	00 00                	add    %al,(%eax)
    1806:	00 18                	add    %bl,(%eax)
    1808:	62 70 00             	bound  %esi,0x0(%eax)
    180b:	01 f5                	add    %esi,%ebp
    180d:	a3 00 00 00 00       	mov    %eax,0x0
    1812:	19 01                	sbb    %eax,(%ecx)
    1814:	cf                   	iret   
    1815:	06                   	push   %es
    1816:	00 00                	add    %al,(%eax)
    1818:	01 53 01             	add    %edx,0x1(%ebx)
    181b:	a3 00 00 00 4f       	mov    %eax,0x4f000000
    1820:	1a 00                	sbb    (%eax),%al
    1822:	01 e7                	add    %esp,%edi
    1824:	1a 00                	sbb    (%eax),%al
    1826:	01 e9                	add    %ebp,%ecx
    1828:	20 00                	and    %al,(%eax)
    182a:	00 07                	add    %al,(%edi)
    182c:	03 00                	add    (%eax),%eax
    182e:	00 12                	add    %dl,(%edx)
    1830:	31 03                	xor    %eax,(%ebx)
    1832:	00 00                	add    %al,(%eax)
    1834:	01 53 a5             	add    %edx,-0x5b(%ebx)
    1837:	00 00                	add    %al,(%eax)
    1839:	00 02                	add    %al,(%edx)
    183b:	91                   	xchg   %eax,%ecx
    183c:	00 08                	add    %cl,(%eax)
    183e:	c3                   	ret    
    183f:	06                   	push   %es
    1840:	00 00                	add    %al,(%eax)
    1842:	01 55 a5             	add    %edx,-0x5b(%ebp)
    1845:	00 00                	add    %al,(%eax)
    1847:	00 21                	add    %ah,(%ecx)
    1849:	21 00                	and    %eax,(%eax)
    184b:	00 1a                	add    %bl,(%edx)
    184d:	49                   	dec    %ecx
    184e:	06                   	push   %es
    184f:	00 00                	add    %al,(%eax)
    1851:	01 56 a5             	add    %edx,-0x5b(%esi)
    1854:	00 00                	add    %al,(%eax)
    1856:	00 13                	add    %dl,(%ebx)
    1858:	62 70 00             	bound  %esi,0x0(%eax)
    185b:	01 57 11             	add    %edx,0x11(%edi)
    185e:	02 00                	add    (%eax),%al
    1860:	00 34 21             	add    %dh,(%ecx,%eiz,1)
    1863:	00 00                	add    %al,(%eax)
    1865:	1b 60 02             	sbb    0x2(%eax),%esp
    1868:	00 00                	add    %al,(%eax)
    186a:	75 1a                	jne    1886 <thread_run-0xffe77a>
    186c:	00 01                	add    %al,(%ecx)
    186e:	9e                   	sahf   
    186f:	1a 00                	sbb    (%eax),%al
    1871:	01 01                	add    %eax,(%ecx)
    1873:	64                   	fs
    1874:	1c 71                	sbb    $0x71,%al
    1876:	02 00                	add    (%eax),%al
    1878:	00 5d 21             	add    %bl,0x21(%ebp)
    187b:	00 00                	add    %al,(%eax)
    187d:	10 75 1a             	adc    %dh,0x1a(%ebp)
    1880:	00 01                	add    %al,(%ecx)
    1882:	9e                   	sahf   
    1883:	1a 00                	sbb    (%eax),%al
    1885:	01 1d 7c 02 00 00    	add    %ebx,0x27c
    188b:	70 21                	jo     18ae <thread_run-0xffe752>
    188d:	00 00                	add    %al,(%eax)
    188f:	00 00                	add    %al,(%eax)
    1891:	00 19                	add    %bl,(%ecx)
    1893:	01 82 06 00 00 01    	add    %eax,0x1000006(%edx)
    1899:	8e 01                	mov    (%ecx),%es
    189b:	a3 00 00 00 e7       	mov    %eax,0xe7000000
    18a0:	1a 00                	sbb    (%eax),%al
    18a2:	01 47 1b             	add    %eax,0x1b(%edi)
    18a5:	00 01                	add    %al,(%ecx)
    18a7:	9d                   	popf   
    18a8:	21 00                	and    %eax,(%eax)
    18aa:	00 81 03 00 00 0f    	add    %al,0xf000003(%ecx)
    18b0:	70 74                	jo     1926 <thread_run-0xffe6da>
    18b2:	72 00                	jb     18b4 <thread_run-0xffe74c>
    18b4:	01 8e a3 00 00 00    	add    %ecx,0xa3(%esi)
    18ba:	02 91 00 12 31 03    	add    0x3311200(%ecx),%dl
    18c0:	00 00                	add    %al,(%eax)
    18c2:	01 8e a5 00 00 00    	add    %ecx,0xa5(%esi)
    18c8:	02 91 04 08 ff 06    	add    0x6ff0804(%ecx),%dl
    18ce:	00 00                	add    %al,(%eax)
    18d0:	01 90 25 00 00 00    	add    %edx,0x25(%eax)
    18d6:	e1 21                	loope  18f9 <thread_run-0xffe707>
    18d8:	00 00                	add    %al,(%eax)
    18da:	08 b0 06 00 00 01    	or     %dh,0x1000006(%eax)
    18e0:	91                   	xchg   %eax,%ecx
    18e1:	81 03 00 00 fd 21    	addl   $0x21fd0000,(%ebx)
    18e7:	00 00                	add    %al,(%eax)
    18e9:	1b 3a                	sbb    (%edx),%edi
    18eb:	00 00                	add    %al,(%eax)
    18ed:	00 1b                	add    %bl,(%ebx)
    18ef:	1b 00                	sbb    (%eax),%eax
    18f1:	01 20                	add    %esp,(%eax)
    18f3:	1b 00                	sbb    (%eax),%eax
    18f5:	01 01                	add    %eax,(%ecx)
    18f7:	9a 1c 54 00 00 00 1b 	lcall  $0x1b00,$0x541c
    18fe:	22 00                	and    (%eax),%al
    1900:	00 1c 4b             	add    %bl,(%ebx,%ecx,2)
    1903:	00 00                	add    %al,(%eax)
    1905:	00 2f                	add    %ch,(%edi)
    1907:	22 00                	and    (%eax),%al
    1909:	00 00                	add    %al,(%eax)
    190b:	00 14 04             	add    %dl,(%esp,%eax,1)
    190e:	25 00 00 00 1e       	and    $0x1e000000,%eax
    1913:	01 5c 06 00          	add    %ebx,0x0(%esi,%eax,1)
    1917:	00 01                	add    %al,(%ecx)
    1919:	39 01                	cmp    %eax,(%ecx)
    191b:	a5                   	movsl  %ds:(%esi),%es:(%edi)
    191c:	00 00                	add    %al,(%eax)
    191e:	00 47 1b             	add    %al,0x1b(%edi)
    1921:	00 01                	add    %al,(%ecx)
    1923:	ad                   	lods   %ds:(%esi),%eax
    1924:	1b 00                	sbb    (%eax),%eax
    1926:	01 4b 22             	add    %ecx,0x22(%ebx)
    1929:	00 00                	add    %al,(%eax)
    192b:	1f                   	pop    %ds
    192c:	93                   	xchg   %eax,%ebx
    192d:	06                   	push   %es
    192e:	00 00                	add    %al,(%eax)
    1930:	01 24 11             	add    %esp,(%ecx,%edx,1)
    1933:	02 00                	add    (%eax),%al
    1935:	00 05 03 3c 39 00    	add    %al,0x393c03
    193b:	01 00                	add    %eax,(%eax)
    193d:	0f 01 00             	sgdtl  (%eax)
    1940:	00 02                	add    %al,(%edx)
    1942:	00 9d 0b 00 00 04    	add    %bl,0x400000b(%ebp)
    1948:	01 0d 00 00 00 01    	add    %ecx,0x1000000
    194e:	40                   	inc    %eax
    194f:	07                   	pop    %es
    1950:	00 00                	add    %al,(%eax)
    1952:	47                   	inc    %edi
    1953:	00 00                	add    %al,(%eax)
    1955:	00 b0 1b 00 01 74    	add    %dh,0x7401001b(%eax)
    195b:	1c 00                	sbb    $0x0,%al
    195d:	01 42 08             	add    %eax,0x8(%edx)
    1960:	00 00                	add    %al,(%eax)
    1962:	02 04 07             	add    (%edi,%eax,1),%al
    1965:	9e                   	sahf   
    1966:	05 00 00 02 04       	add    $0x4020000,%eax
    196b:	07                   	pop    %es
    196c:	99                   	cltd   
    196d:	05 00 00 02 01       	add    $0x1020000,%eax
    1972:	06                   	push   %es
    1973:	24 05                	and    $0x5,%al
    1975:	00 00                	add    %al,(%eax)
    1977:	03 04 04             	add    (%esp,%eax,1),%eax
    197a:	01 9f 07 00 00 01    	add    %ebx,0x1000007(%edi)
    1980:	2e 01 3a             	add    %edi,%cs:(%edx)
    1983:	00 00                	add    %al,(%eax)
    1985:	00 b0 1b 00 01 21    	add    %dh,0x2101001b(%eax)
    198b:	1c 00                	sbb    $0x0,%al
    198d:	01 83 22 00 00 90    	add    %eax,-0x6fffffde(%ebx)
    1993:	00 00                	add    %al,(%eax)
    1995:	00 05 7f 07 00 00    	add    %al,0x77f
    199b:	01 2e                	add    %ebp,(%esi)
    199d:	90                   	nop
    199e:	00 00                	add    %al,(%eax)
    19a0:	00 02                	add    %al,(%edx)
    19a2:	91                   	xchg   %eax,%ecx
    19a3:	00 06                	add    %al,(%esi)
    19a5:	89 07                	mov    %eax,(%edi)
    19a7:	00 00                	add    %al,(%eax)
    19a9:	01 30                	add    %esi,(%eax)
    19ab:	97                   	xchg   %eax,%edi
    19ac:	00 00                	add    %al,(%eax)
    19ae:	00 c7                	add    %al,%bh
    19b0:	22 00                	and    (%eax),%al
    19b2:	00 07                	add    %al,(%edi)
    19b4:	e1 1b                	loope  19d1 <thread_run-0xffe62f>
    19b6:	00 01                	add    %al,(%ecx)
    19b8:	05 1c 00 01 06       	add    $0x601001c,%eax
    19bd:	7a 07                	jp     19c6 <thread_run-0xffe63a>
    19bf:	00 00                	add    %al,(%eax)
    19c1:	01 38                	add    %edi,(%eax)
    19c3:	90                   	nop
    19c4:	00 00                	add    %al,(%eax)
    19c6:	00 e9                	add    %ch,%cl
    19c8:	22 00                	and    (%eax),%al
    19ca:	00 00                	add    %al,(%eax)
    19cc:	00 08                	add    %cl,(%eax)
    19ce:	04 05                	add    $0x5,%al
    19d0:	69 6e 74 00 09 04 33 	imul   $0x33040900,0x74(%esi),%ebp
    19d7:	00 00                	add    %al,(%eax)
    19d9:	00 0a                	add    %cl,(%edx)
    19db:	01 71 07             	add    %esi,0x7(%ecx)
    19de:	00 00                	add    %al,(%eax)
    19e0:	01 1e                	add    %ebx,(%esi)
    19e2:	01 21                	add    %esp,(%ecx)
    19e4:	1c 00                	sbb    $0x0,%al
    19e6:	01 74 1c 00          	add    %esi,0x0(%esp,%ebx,1)
    19ea:	01 10                	add    %edx,(%eax)
    19ec:	23 00                	and    (%eax),%eax
    19ee:	00 c5                	add    %al,%ch
    19f0:	00 00                	add    %al,(%eax)
    19f2:	00 05 91 07 00 00    	add    %al,0x791
    19f8:	01 1e                	add    %ebx,(%esi)
    19fa:	90                   	nop
    19fb:	00 00                	add    %al,(%eax)
    19fd:	00 02                	add    %al,(%edx)
    19ff:	91                   	xchg   %eax,%ecx
    1a00:	00 00                	add    %al,(%eax)
    1a02:	0b a8 07 00 00 01    	or     0x1000007(%eax),%ebp
    1a08:	15 97 00 00 00       	adc    $0x97,%eax
    1a0d:	05 03 40 39 00       	add    $0x394003,%eax
    1a12:	01 0b                	add    %ecx,(%ebx)
    1a14:	5b                   	pop    %ebx
    1a15:	07                   	pop    %es
    1a16:	00 00                	add    %al,(%eax)
    1a18:	01 16                	add    %edx,(%esi)
    1a1a:	97                   	xchg   %eax,%edi
    1a1b:	00 00                	add    %al,(%eax)
    1a1d:	00 05 03 44 39 00    	add    %al,0x394403
    1a23:	01 0b                	add    %ecx,(%ebx)
    1a25:	64                   	fs
    1a26:	07                   	pop    %es
    1a27:	00 00                	add    %al,(%eax)
    1a29:	01 17                	add    %edx,(%edi)
    1a2b:	97                   	xchg   %eax,%edi
    1a2c:	00 00                	add    %al,(%eax)
    1a2e:	00 05 03 48 39 00    	add    %al,0x394803
    1a34:	01 0c 84             	add    %ecx,(%esp,%eax,4)
    1a37:	07                   	pop    %es
    1a38:	00 00                	add    %al,(%eax)
    1a3a:	01 19                	add    %ebx,(%ecx)
    1a3c:	3a 00                	cmp    (%eax),%al
    1a3e:	00 00                	add    %al,(%eax)
    1a40:	01 01                	add    %eax,(%ecx)
    1a42:	0c 84                	or     $0x84,%al
    1a44:	07                   	pop    %es
    1a45:	00 00                	add    %al,(%eax)
    1a47:	01 19                	add    %ebx,(%ecx)
    1a49:	3a 00                	cmp    (%eax),%al
    1a4b:	00 00                	add    %al,(%eax)
    1a4d:	01 01                	add    %eax,(%ecx)
    1a4f:	00 2e                	add    %ch,(%esi)
    1a51:	05 00 00 02 00       	add    $0x20000,%eax
    1a56:	4e                   	dec    %esi
    1a57:	0c 00                	or     $0x0,%al
    1a59:	00 04 01             	add    %al,(%ecx,%eax,1)
    1a5c:	0d 00 00 00 01       	or     $0x1000000,%eax
    1a61:	ce                   	into   
    1a62:	07                   	pop    %es
    1a63:	00 00                	add    %al,(%eax)
    1a65:	47                   	inc    %edi
    1a66:	00 00                	add    %al,(%eax)
    1a68:	00 74 1c 00          	add    %dh,0x0(%esp,%ebx,1)
    1a6c:	01 1e                	add    %ebx,(%esi)
    1a6e:	1d 00 01 a3 08       	sbb    $0x8a30100,%eax
    1a73:	00 00                	add    %al,(%eax)
    1a75:	02 c0                	add    %al,%al
    1a77:	07                   	pop    %es
    1a78:	00 00                	add    %al,(%eax)
    1a7a:	50                   	push   %eax
    1a7b:	02 16                	add    (%esi),%dl
    1a7d:	44                   	inc    %esp
    1a7e:	01 00                	add    %eax,(%eax)
    1a80:	00 03                	add    %al,(%ebx)
    1a82:	83 08 00             	orl    $0x0,(%eax)
    1a85:	00 02                	add    %al,(%edx)
    1a87:	17                   	pop    %ss
    1a88:	44                   	inc    %esp
    1a89:	01 00                	add    %eax,(%eax)
    1a8b:	00 02                	add    %al,(%edx)
    1a8d:	23 00                	and    (%eax),%eax
    1a8f:	04 63                	add    $0x63,%al
    1a91:	72 32                	jb     1ac5 <thread_run-0xffe53b>
    1a93:	00 02                	add    %al,(%edx)
    1a95:	18 44 01 00          	sbb    %al,0x0(%ecx,%eax,1)
    1a99:	00 02                	add    %al,(%edx)
    1a9b:	23 04 04             	and    (%esp,%eax,1),%eax
    1a9e:	64                   	fs
    1a9f:	73 00                	jae    1aa1 <thread_run-0xffe55f>
    1aa1:	02 1a                	add    (%edx),%bl
    1aa3:	44                   	inc    %esp
    1aa4:	01 00                	add    %eax,(%eax)
    1aa6:	00 02                	add    %al,(%edx)
    1aa8:	23 08                	and    (%eax),%ecx
    1aaa:	04 65                	add    $0x65,%al
    1aac:	73 00                	jae    1aae <thread_run-0xffe552>
    1aae:	02 1b                	add    (%ebx),%bl
    1ab0:	44                   	inc    %esp
    1ab1:	01 00                	add    %eax,(%eax)
    1ab3:	00 02                	add    %al,(%edx)
    1ab5:	23 0c 04             	and    (%esp,%eax,1),%ecx
    1ab8:	66                   	data16
    1ab9:	73 00                	jae    1abb <thread_run-0xffe545>
    1abb:	02 1c 44             	add    (%esp,%eax,2),%bl
    1abe:	01 00                	add    %eax,(%eax)
    1ac0:	00 02                	add    %al,(%edx)
    1ac2:	23 10                	and    (%eax),%edx
    1ac4:	04 67                	add    $0x67,%al
    1ac6:	73 00                	jae    1ac8 <thread_run-0xffe538>
    1ac8:	02 1d 44 01 00 00    	add    0x144,%bl
    1ace:	02 23                	add    (%ebx),%ah
    1ad0:	14 04                	adc    $0x4,%al
    1ad2:	65 64 69 00 02 1f 44 	gs imul $0x1441f02,%fs:%gs:(%eax),%eax
    1ad9:	01 
    1ada:	00 00                	add    %al,(%eax)
    1adc:	02 23                	add    (%ebx),%ah
    1ade:	18 04 65 73 69 00 02 	sbb    %al,0x2006973(,%eiz,2)
    1ae5:	20 44 01 00          	and    %al,0x0(%ecx,%eax,1)
    1ae9:	00 02                	add    %al,(%edx)
    1aeb:	23 1c 04             	and    (%esp,%eax,1),%ebx
    1aee:	65 62 70 00          	bound  %esi,%gs:0x0(%eax)
    1af2:	02 21                	add    (%ecx),%ah
    1af4:	44                   	inc    %esp
    1af5:	01 00                	add    %eax,(%eax)
    1af7:	00 02                	add    %al,(%edx)
    1af9:	23 20                	and    (%eax),%esp
    1afb:	03 1b                	add    (%ebx),%ebx
    1afd:	08 00                	or     %al,(%eax)
    1aff:	00 02                	add    %al,(%edx)
    1b01:	22 44 01 00          	and    0x0(%ecx,%eax,1),%al
    1b05:	00 02                	add    %al,(%edx)
    1b07:	23 24 04             	and    (%esp,%eax,1),%esp
    1b0a:	65 62 78 00          	bound  %edi,%gs:0x0(%eax)
    1b0e:	02 23                	add    (%ebx),%ah
    1b10:	44                   	inc    %esp
    1b11:	01 00                	add    %eax,(%eax)
    1b13:	00 02                	add    %al,(%edx)
    1b15:	23 28                	and    (%eax),%ebp
    1b17:	04 65                	add    $0x65,%al
    1b19:	64                   	fs
    1b1a:	78 00                	js     1b1c <thread_run-0xffe4e4>
    1b1c:	02 24 44             	add    (%esp,%eax,2),%ah
    1b1f:	01 00                	add    %eax,(%eax)
    1b21:	00 02                	add    %al,(%edx)
    1b23:	23 2c 04             	and    (%esp,%eax,1),%ebp
    1b26:	65 63 78 00          	arpl   %di,%gs:0x0(%eax)
    1b2a:	02 25 44 01 00 00    	add    0x144,%ah
    1b30:	02 23                	add    (%ebx),%ah
    1b32:	30 04 65 61 78 00 02 	xor    %al,0x2007861(,%eiz,2)
    1b39:	26                   	es
    1b3a:	44                   	inc    %esp
    1b3b:	01 00                	add    %eax,(%eax)
    1b3d:	00 02                	add    %al,(%edx)
    1b3f:	23 34 03             	and    (%ebx,%eax,1),%esi
    1b42:	b5 07                	mov    $0x7,%ch
    1b44:	00 00                	add    %al,(%eax)
    1b46:	02 28                	add    (%eax),%ch
    1b48:	44                   	inc    %esp
    1b49:	01 00                	add    %eax,(%eax)
    1b4b:	00 02                	add    %al,(%edx)
    1b4d:	23 38                	and    (%eax),%edi
    1b4f:	04 65                	add    $0x65,%al
    1b51:	69 70 00 02 29 44 01 	imul   $0x1442902,0x0(%eax),%esi
    1b58:	00 00                	add    %al,(%eax)
    1b5a:	02 23                	add    (%ebx),%ah
    1b5c:	3c 04                	cmp    $0x4,%al
    1b5e:	63 73 00             	arpl   %si,0x0(%ebx)
    1b61:	02 2a                	add    (%edx),%ch
    1b63:	44                   	inc    %esp
    1b64:	01 00                	add    %eax,(%eax)
    1b66:	00 02                	add    %al,(%edx)
    1b68:	23 40 03             	and    0x3(%eax),%eax
    1b6b:	98                   	cwtl   
    1b6c:	08 00                	or     %al,(%eax)
    1b6e:	00 02                	add    %al,(%edx)
    1b70:	2b 44 01 00          	sub    0x0(%ecx,%eax,1),%eax
    1b74:	00 02                	add    %al,(%edx)
    1b76:	23 44 04 65          	and    0x65(%esp,%eax,1),%eax
    1b7a:	73 70                	jae    1bec <thread_run-0xffe414>
    1b7c:	00 02                	add    %al,(%edx)
    1b7e:	2c 44                	sub    $0x44,%al
    1b80:	01 00                	add    %eax,(%eax)
    1b82:	00 02                	add    %al,(%edx)
    1b84:	23 48 04             	and    0x4(%eax),%ecx
    1b87:	73 73                	jae    1bfc <thread_run-0xffe404>
    1b89:	00 02                	add    %al,(%edx)
    1b8b:	2d 44 01 00 00       	sub    $0x144,%eax
    1b90:	02 23                	add    (%ebx),%ah
    1b92:	4c                   	dec    %esp
    1b93:	00 05 04 07 9e 05    	add    %al,0x59e0704
    1b99:	00 00                	add    %al,(%eax)
    1b9b:	06                   	push   %es
    1b9c:	c0 07 00             	rolb   $0x0,(%edi)
    1b9f:	00 02                	add    %al,(%edx)
    1ba1:	2e                   	cs
    1ba2:	25 00 00 00 06       	and    $0x6000000,%eax
    1ba7:	d6                   	(bad)  
    1ba8:	08 00                	or     %al,(%eax)
    1baa:	00 03                	add    %al,(%ebx)
    1bac:	50                   	push   %eax
    1bad:	61                   	popa   
    1bae:	01 00                	add    %eax,(%eax)
    1bb0:	00 07                	add    %al,(%edi)
    1bb2:	04 67                	add    $0x67,%al
    1bb4:	01 00                	add    %eax,(%eax)
    1bb6:	00 08                	add    %cl,(%eax)
    1bb8:	01 78 01             	add    %edi,0x1(%eax)
    1bbb:	00 00                	add    %al,(%eax)
    1bbd:	09 78 01             	or     %edi,0x1(%eax)
    1bc0:	00 00                	add    %al,(%eax)
    1bc2:	09 7a 01             	or     %edi,0x1(%edx)
    1bc5:	00 00                	add    %al,(%eax)
    1bc7:	00 0a                	add    %cl,(%edx)
    1bc9:	04 07                	add    $0x7,%al
    1bcb:	04 4b                	add    $0x4b,%al
    1bcd:	01 00                	add    %eax,(%eax)
    1bcf:	00 0b                	add    %cl,(%ebx)
    1bd1:	01 6c 08 00          	add    %ebp,0x0(%eax,%ecx,1)
    1bd5:	00 01                	add    %al,(%ecx)
    1bd7:	20 01                	and    %al,(%ecx)
    1bd9:	ba 01 00 00 74       	mov    $0x74000001,%edx
    1bde:	1c 00                	sbb    $0x0,%al
    1be0:	01 7e 1c             	add    %edi,0x1c(%esi)
    1be3:	00 01                	add    %al,(%ecx)
    1be5:	48                   	dec    %eax
    1be6:	23 00                	and    (%eax),%eax
    1be8:	00 ba 01 00 00 0c    	add    %bh,0xc000001(%edx)
    1bee:	26 08 00             	or     %al,%es:(%eax)
    1bf1:	00 01                	add    %al,(%ecx)
    1bf3:	20 c1                	and    %al,%cl
    1bf5:	01 00                	add    %eax,(%eax)
    1bf7:	00 02                	add    %al,(%edx)
    1bf9:	91                   	xchg   %eax,%ecx
    1bfa:	00 0c 5b             	add    %cl,(%ebx,%ebx,2)
    1bfd:	08 00                	or     %al,(%eax)
    1bff:	00 01                	add    %al,(%ecx)
    1c01:	20 ce                	and    %cl,%dh
    1c03:	01 00                	add    %eax,(%eax)
    1c05:	00 02                	add    %al,(%edx)
    1c07:	91                   	xchg   %eax,%ecx
    1c08:	04 00                	add    $0x0,%al
    1c0a:	0d 04 05 69 6e       	or     $0x6e690504,%eax
    1c0f:	74 00                	je     1c11 <thread_run-0xffe3ef>
    1c11:	07                   	pop    %es
    1c12:	04 c7                	add    $0xc7,%al
    1c14:	01 00                	add    %eax,(%eax)
    1c16:	00 05 01 06 24 05    	add    %al,0x5240601
    1c1c:	00 00                	add    %al,(%eax)
    1c1e:	07                   	pop    %es
    1c1f:	04 c1                	add    $0xc1,%al
    1c21:	01 00                	add    %eax,(%eax)
    1c23:	00 0e                	add    %cl,(%esi)
    1c25:	01 f4                	add    %esi,%esp
    1c27:	07                   	pop    %es
    1c28:	00 00                	add    %al,(%eax)
    1c2a:	01 25 01 7e 1c 00    	add    %esp,0x1c7e01
    1c30:	01 83 1c 00 01 80    	add    %eax,-0x7ffeffe4(%ebx)
    1c36:	23 00                	and    (%eax),%eax
    1c38:	00 fc                	add    %bh,%ah
    1c3a:	01 00                	add    %eax,(%eax)
    1c3c:	00 0c f8             	add    %cl,(%eax,%edi,8)
    1c3f:	07                   	pop    %es
    1c40:	00 00                	add    %al,(%eax)
    1c42:	01 25 ba 01 00 00    	add    %esp,0x1ba
    1c48:	02 91 00 00 0b 01    	add    0x10b0000(%ecx),%dl
    1c4e:	62 08                	bound  %ecx,(%eax)
    1c50:	00 00                	add    %al,(%eax)
    1c52:	01 37                	add    %esi,(%edi)
    1c54:	01 ba 01 00 00 83    	add    %edi,-0x7cffffff(%edx)
    1c5a:	1c 00                	sbb    $0x0,%al
    1c5c:	01 8d 1c 00 01 b8    	add    %ecx,-0x47feffe4(%ebp)
    1c62:	23 00                	and    (%eax),%eax
    1c64:	00 28                	add    %ch,(%eax)
    1c66:	02 00                	add    (%eax),%al
    1c68:	00 0c 3e             	add    %cl,(%esi,%edi,1)
    1c6b:	08 00                	or     %al,(%eax)
    1c6d:	00 01                	add    %al,(%ecx)
    1c6f:	37                   	aaa    
    1c70:	28 02                	sub    %al,(%edx)
    1c72:	00 00                	add    %al,(%eax)
    1c74:	02 91 00 00 07 04    	add    0x4070000(%ecx),%dl
    1c7a:	ba 01 00 00 0b       	mov    $0xb000001,%edx
    1c7f:	01 38                	add    %edi,(%eax)
    1c81:	08 00                	or     %al,(%eax)
    1c83:	00 01                	add    %al,(%ecx)
    1c85:	3c 01                	cmp    $0x1,%al
    1c87:	ba 01 00 00 8d       	mov    $0x8d000001,%edx
    1c8c:	1c 00                	sbb    $0x0,%al
    1c8e:	01 97 1c 00 01 f0    	add    %edx,-0xffeffe4(%edi)
    1c94:	23 00                	and    (%eax),%eax
    1c96:	00 5a 02             	add    %bl,0x2(%edx)
    1c99:	00 00                	add    %al,(%eax)
    1c9b:	0f 70 69 64 00       	pshufw $0x0,0x64(%ecx),%mm5
    1ca0:	01 3c ba             	add    %edi,(%edx,%edi,4)
    1ca3:	01 00                	add    %eax,(%eax)
    1ca5:	00 02                	add    %al,(%edx)
    1ca7:	91                   	xchg   %eax,%ecx
    1ca8:	00 00                	add    %al,(%eax)
    1caa:	0b 01                	or     (%ecx),%eax
    1cac:	50                   	push   %eax
    1cad:	08 00                	or     %al,(%eax)
    1caf:	00 01                	add    %al,(%ecx)
    1cb1:	41                   	inc    %ecx
    1cb2:	01 ba 01 00 00 97    	add    %edi,-0x68ffffff(%edx)
    1cb8:	1c 00                	sbb    $0x0,%al
    1cba:	01 a1 1c 00 01 28    	add    %esp,0x2801001c(%ecx)
    1cc0:	24 00                	and    $0x0,%al
    1cc2:	00 86 02 00 00 0c    	add    %al,0xc000002(%esi)
    1cc8:	67 08 00             	or     %al,(%bx,%si)
    1ccb:	00 01                	add    %al,(%ecx)
    1ccd:	41                   	inc    %ecx
    1cce:	28 02                	sub    %al,(%edx)
    1cd0:	00 00                	add    %al,(%eax)
    1cd2:	02 91 00 00 0b 01    	add    0x10b0000(%ecx),%dl
    1cd8:	b9 08 00 00 01       	mov    $0x1000008,%ecx
    1cdd:	46                   	inc    %esi
    1cde:	01 ba 01 00 00 a1    	add    %edi,-0x5effffff(%edx)
    1ce4:	1c 00                	sbb    $0x0,%al
    1ce6:	01 ab 1c 00 01 60    	add    %ebp,0x6001001c(%ebx)
    1cec:	24 00                	and    $0x0,%al
    1cee:	00 b2 02 00 00 0f    	add    %dh,0xf000002(%edx)
    1cf4:	70 69                	jo     1d5f <thread_run-0xffe2a1>
    1cf6:	64 00 01             	add    %al,%fs:(%ecx)
    1cf9:	46                   	inc    %esi
    1cfa:	ba 01 00 00 02       	mov    $0x2000001,%edx
    1cff:	91                   	xchg   %eax,%ecx
    1d00:	00 00                	add    %al,(%eax)
    1d02:	10 01                	adc    %al,(%ecx)
    1d04:	49                   	dec    %ecx
    1d05:	08 00                	or     %al,(%eax)
    1d07:	00 01                	add    %al,(%ecx)
    1d09:	4b                   	dec    %ebx
    1d0a:	01 ba 01 00 00 ab    	add    %edi,-0x54ffffff(%edx)
    1d10:	1c 00                	sbb    $0x0,%al
    1d12:	01 b5 1c 00 01 98    	add    %esi,-0x67feffe4(%ebp)
    1d18:	24 00                	and    $0x0,%al
    1d1a:	00 0b                	add    %cl,(%ebx)
    1d1c:	01 20                	add    %esp,(%eax)
    1d1e:	08 00                	or     %al,(%eax)
    1d20:	00 01                	add    %al,(%ecx)
    1d22:	57                   	push   %edi
    1d23:	01 ba 01 00 00 b5    	add    %edi,-0x4affffff(%edx)
    1d29:	1c 00                	sbb    $0x0,%al
    1d2b:	01 bf 1c 00 01 d0    	add    %edi,-0x2ffeffe4(%edi)
    1d31:	24 00                	and    $0x0,%al
    1d33:	00 21                	add    %ah,(%ecx)
    1d35:	03 00                	add    (%eax),%eax
    1d37:	00 0c 16             	add    %cl,(%esi,%edx,1)
    1d3a:	08 00                	or     %al,(%eax)
    1d3c:	00 01                	add    %al,(%ecx)
    1d3e:	57                   	push   %edi
    1d3f:	78 01                	js     1d42 <thread_run-0xffe2be>
    1d41:	00 00                	add    %al,(%eax)
    1d43:	02 91 00 0f 65 69    	add    0x69650f00(%ecx),%dl
    1d49:	70 00                	jo     1d4b <thread_run-0xffe2b5>
    1d4b:	01 57 56             	add    %edx,0x56(%edi)
    1d4e:	01 00                	add    %eax,(%eax)
    1d50:	00 02                	add    %al,(%edx)
    1d52:	91                   	xchg   %eax,%ecx
    1d53:	04 0f                	add    $0xf,%al
    1d55:	61                   	popa   
    1d56:	72 67                	jb     1dbf <thread_run-0xffe241>
    1d58:	00 01                	add    %al,(%ecx)
    1d5a:	57                   	push   %edi
    1d5b:	78 01                	js     1d5e <thread_run-0xffe2a2>
    1d5d:	00 00                	add    %al,(%eax)
    1d5f:	02 91 08 0c ff 07    	add    0x7ff0c08(%ecx),%dl
    1d65:	00 00                	add    %al,(%eax)
    1d67:	01 57 7a             	add    %edx,0x7a(%edi)
    1d6a:	01 00                	add    %eax,(%eax)
    1d6c:	00 02                	add    %al,(%edx)
    1d6e:	91                   	xchg   %eax,%ecx
    1d6f:	0c 00                	or     $0x0,%al
    1d71:	10 01                	adc    %al,(%ecx)
    1d73:	7b 08                	jnp    1d7d <thread_run-0xffe283>
    1d75:	00 00                	add    %al,(%eax)
    1d77:	01 5c 01 c7          	add    %ebx,-0x39(%ecx,%eax,1)
    1d7b:	01 00                	add    %eax,(%eax)
    1d7d:	00 bf 1c 00 01 c9    	add    %bh,-0x36feffe4(%edi)
    1d83:	1c 00                	sbb    $0x0,%al
    1d85:	01 08                	add    %ecx,(%eax)
    1d87:	25 00 00 0b 01       	and    $0x10b0000,%eax
    1d8c:	8f 03                	popl   (%ebx)
    1d8e:	00 00                	add    %al,(%eax)
    1d90:	01 61 01             	add    %esp,0x1(%ecx)
    1d93:	ba 01 00 00 c9       	mov    $0xc9000001,%edx
    1d98:	1c 00                	sbb    $0x0,%al
    1d9a:	01 d3                	add    %edx,%ebx
    1d9c:	1c 00                	sbb    $0x0,%al
    1d9e:	01 40 25             	add    %eax,0x25(%eax)
    1da1:	00 00                	add    %al,(%eax)
    1da3:	74 03                	je     1da8 <thread_run-0xffe258>
    1da5:	00 00                	add    %al,(%eax)
    1da7:	0c 31                	or     $0x31,%al
    1da9:	03 00                	add    (%eax),%eax
    1dab:	00 01                	add    %al,(%ecx)
    1dad:	61                   	popa   
    1dae:	ba 01 00 00 02       	mov    $0x2000001,%edx
    1db3:	91                   	xchg   %eax,%ecx
    1db4:	00 0f                	add    %cl,(%edi)
    1db6:	62 75 66             	bound  %esi,0x66(%ebp)
    1db9:	00 01                	add    %al,(%ecx)
    1dbb:	61                   	popa   
    1dbc:	c1 01 00             	roll   $0x0,(%ecx)
    1dbf:	00 02                	add    %al,(%edx)
    1dc1:	91                   	xchg   %eax,%ecx
    1dc2:	04 00                	add    $0x0,%al
    1dc4:	0b 01                	or     (%ecx),%eax
    1dc6:	9f                   	lahf   
    1dc7:	08 00                	or     %al,(%eax)
    1dc9:	00 01                	add    %al,(%ecx)
    1dcb:	66 01 ba 01 00 00 d3 	add    %di,-0x2cffffff(%edx)
    1dd2:	1c 00                	sbb    $0x0,%al
    1dd4:	01 dd                	add    %ebx,%ebp
    1dd6:	1c 00                	sbb    $0x0,%al
    1dd8:	01 78 25             	add    %edi,0x25(%eax)
    1ddb:	00 00                	add    %al,(%eax)
    1ddd:	ae                   	scas   %es:(%edi),%al
    1dde:	03 00                	add    (%eax),%eax
    1de0:	00 0c 31             	add    %cl,(%ecx,%esi,1)
    1de3:	03 00                	add    (%eax),%eax
    1de5:	00 01                	add    %al,(%ecx)
    1de7:	66 ba 01 00          	mov    $0x1,%dx
    1deb:	00 02                	add    %al,(%edx)
    1ded:	91                   	xchg   %eax,%ecx
    1dee:	00 0f                	add    %cl,(%edi)
    1df0:	62 75 66             	bound  %esi,0x66(%ebp)
    1df3:	00 01                	add    %al,(%ecx)
    1df5:	66 c1 01 00          	rolw   $0x0,(%ecx)
    1df9:	00 02                	add    %al,(%edx)
    1dfb:	91                   	xchg   %eax,%ecx
    1dfc:	04 00                	add    $0x0,%al
    1dfe:	0b 01                	or     (%ecx),%eax
    1e00:	c7                   	(bad)  
    1e01:	08 00                	or     %al,(%eax)
    1e03:	00 01                	add    %al,(%ecx)
    1e05:	6b 01 ba             	imul   $0xffffffba,(%ecx),%eax
    1e08:	01 00                	add    %eax,(%eax)
    1e0a:	00 dd                	add    %bl,%ch
    1e0c:	1c 00                	sbb    $0x0,%al
    1e0e:	01 e7                	add    %esp,%edi
    1e10:	1c 00                	sbb    $0x0,%al
    1e12:	01 b0 25 00 00 da    	add    %esi,-0x25ffffdb(%eax)
    1e18:	03 00                	add    (%eax),%eax
    1e1a:	00 0c d0             	add    %cl,(%eax,%edx,8)
    1e1d:	08 00                	or     %al,(%eax)
    1e1f:	00 01                	add    %al,(%ecx)
    1e21:	6b ba 01 00 00 02 91 	imul   $0xffffff91,0x2000001(%edx),%edi
    1e28:	00 00                	add    %al,(%eax)
    1e2a:	0b 01                	or     (%ecx),%eax
    1e2c:	07                   	pop    %es
    1e2d:	08 00                	or     %al,(%eax)
    1e2f:	00 01                	add    %al,(%ecx)
    1e31:	70 01                	jo     1e34 <thread_run-0xffe1cc>
    1e33:	ba 01 00 00 e7       	mov    $0xe7000001,%edx
    1e38:	1c 00                	sbb    $0x0,%al
    1e3a:	01 f1                	add    %esi,%ecx
    1e3c:	1c 00                	sbb    $0x0,%al
    1e3e:	01 e8                	add    %ebp,%eax
    1e40:	25 00 00 14 04       	and    $0x4140000,%eax
    1e45:	00 00                	add    %al,(%eax)
    1e47:	0f 72                	(bad)  
    1e49:	6f                   	outsl  %ds:(%esi),(%dx)
    1e4a:	77 00                	ja     1e4c <thread_run-0xffe1b4>
    1e4c:	01 70 28             	add    %esi,0x28(%eax)
    1e4f:	02 00                	add    (%eax),%al
    1e51:	00 02                	add    %al,(%edx)
    1e53:	91                   	xchg   %eax,%ecx
    1e54:	00 0f                	add    %cl,(%edi)
    1e56:	63 6f 6c             	arpl   %bp,0x6c(%edi)
    1e59:	00 01                	add    %al,(%ecx)
    1e5b:	70 28                	jo     1e85 <thread_run-0xffe17b>
    1e5d:	02 00                	add    (%eax),%al
    1e5f:	00 02                	add    %al,(%edx)
    1e61:	91                   	xchg   %eax,%ecx
    1e62:	04 00                	add    $0x0,%al
    1e64:	0b 01                	or     (%ecx),%eax
    1e66:	89 08                	mov    %ecx,(%eax)
    1e68:	00 00                	add    %al,(%eax)
    1e6a:	01 75 01             	add    %esi,0x1(%ebp)
    1e6d:	ba 01 00 00 f1       	mov    $0xf1000001,%edx
    1e72:	1c 00                	sbb    $0x0,%al
    1e74:	01 fb                	add    %edi,%ebx
    1e76:	1c 00                	sbb    $0x0,%al
    1e78:	01 20                	add    %esp,(%eax)
    1e7a:	26 00 00             	add    %al,%es:(%eax)
    1e7d:	4e                   	dec    %esi
    1e7e:	04 00                	add    $0x0,%al
    1e80:	00 0f                	add    %cl,(%edi)
    1e82:	72 6f                	jb     1ef3 <thread_run-0xffe10d>
    1e84:	77 00                	ja     1e86 <thread_run-0xffe17a>
    1e86:	01 75 ba             	add    %esi,-0x46(%ebp)
    1e89:	01 00                	add    %eax,(%eax)
    1e8b:	00 02                	add    %al,(%edx)
    1e8d:	91                   	xchg   %eax,%ecx
    1e8e:	00 0f                	add    %cl,(%edi)
    1e90:	63 6f 6c             	arpl   %bp,0x6c(%edi)
    1e93:	00 01                	add    %al,(%ecx)
    1e95:	75 ba                	jne    1e51 <thread_run-0xffe1af>
    1e97:	01 00                	add    %eax,(%eax)
    1e99:	00 02                	add    %al,(%edx)
    1e9b:	91                   	xchg   %eax,%ecx
    1e9c:	04 00                	add    $0x0,%al
    1e9e:	11 01                	adc    %eax,(%ecx)
    1ea0:	b3 03                	mov    $0x3,%bl
    1ea2:	00 00                	add    %al,(%eax)
    1ea4:	01 7a 01             	add    %edi,0x1(%edx)
    1ea7:	fb                   	sti    
    1ea8:	1c 00                	sbb    $0x0,%al
    1eaa:	01 00                	add    %eax,(%eax)
    1eac:	1d 00 01 58 26       	sbb    $0x26580100,%eax
    1eb1:	00 00                	add    %al,(%eax)
    1eb3:	0b 01                	or     (%ecx),%eax
    1eb5:	2f                   	das    
    1eb6:	08 00                	or     %al,(%eax)
    1eb8:	00 01                	add    %al,(%ecx)
    1eba:	80 01 ba             	addb   $0xba,(%ecx)
    1ebd:	01 00                	add    %eax,(%eax)
    1ebf:	00 00                	add    %al,(%eax)
    1ec1:	1d 00 01 0a 1d       	sbb    $0x1d0a0100,%eax
    1ec6:	00 01                	add    %al,(%ecx)
    1ec8:	84 26                	test   %ah,(%esi)
    1eca:	00 00                	add    %al,(%eax)
    1ecc:	b9 04 00 00 0c       	mov    $0xc000004,%ecx
    1ed1:	b0 08                	mov    $0x8,%al
    1ed3:	00 00                	add    %al,(%eax)
    1ed5:	01 80 c1 01 00 00    	add    %eax,0x1c1(%eax)
    1edb:	02 91 00 0f 62 75    	add    0x75620f00(%ecx),%dl
    1ee1:	66                   	data16
    1ee2:	00 01                	add    %al,(%ecx)
    1ee4:	80 c1 01             	add    $0x1,%cl
    1ee7:	00 00                	add    %al,(%eax)
    1ee9:	02 91 04 0c aa 08    	add    0x8aa0c04(%ecx),%dl
    1eef:	00 00                	add    %al,(%eax)
    1ef1:	01 80 ba 01 00 00    	add    %eax,0x1ba(%eax)
    1ef7:	02 91 08 0c c7 07    	add    0x7c70c08(%ecx),%dl
    1efd:	00 00                	add    %al,(%eax)
    1eff:	01 80 ba 01 00 00    	add    %eax,0x1ba(%eax)
    1f05:	02 91 0c 00 0e 01    	add    0x10e000c(%ecx),%dl
    1f0b:	e8 07 00 00 01       	call   1001f17 <__qdivrem+0x9f>
    1f10:	85 01                	test   %eax,(%ecx)
    1f12:	0a 1d 00 01 0f 1d    	or     0x1d0f0100,%bl
    1f18:	00 01                	add    %al,(%ecx)
    1f1a:	bc 26 00 00 e1       	mov    $0xe1000026,%esp
    1f1f:	04 00                	add    $0x0,%al
    1f21:	00 0c f8             	add    %cl,(%eax,%edi,8)
    1f24:	07                   	pop    %es
    1f25:	00 00                	add    %al,(%eax)
    1f27:	01 85 ba 01 00 00    	add    %eax,0x1ba(%ebp)
    1f2d:	02 91 00 00 0b 01    	add    0x10b0000(%ecx),%dl
    1f33:	e6 08                	out    %al,$0x8
    1f35:	00 00                	add    %al,(%eax)
    1f37:	01 94 01 ba 01 00 00 	add    %edx,0x1ba(%ecx,%eax,1)
    1f3e:	0f 1d 00             	nopl   (%eax)
    1f41:	01 19                	add    %ebx,(%ecx)
    1f43:	1d 00 01 e8 26       	sbb    $0x26e80100,%eax
    1f48:	00 00                	add    %al,(%eax)
    1f4a:	0d 05 00 00 0c       	or     $0xc000005,%eax
    1f4f:	9a 07 00 00 01 94 78 	lcall  $0x7894,$0x1000007
    1f56:	01 00                	add    %eax,(%eax)
    1f58:	00 02                	add    %al,(%edx)
    1f5a:	91                   	xchg   %eax,%ecx
    1f5b:	00 00                	add    %al,(%eax)
    1f5d:	12 01                	adc    (%ecx),%al
    1f5f:	71 08                	jno    1f69 <thread_run-0xffe097>
    1f61:	00 00                	add    %al,(%eax)
    1f63:	01 a0 01 19 1d 00    	add    %esp,0x1d1901(%eax)
    1f69:	01 1e                	add    %ebx,(%esi)
    1f6b:	1d 00 01 20 27       	sbb    $0x27200100,%eax
    1f70:	00 00                	add    %al,(%eax)
    1f72:	0c a5                	or     $0xa5,%al
    1f74:	08 00                	or     %al,(%eax)
    1f76:	00 01                	add    %al,(%ecx)
    1f78:	a0 ba 01 00 00       	mov    0x1ba,%al
    1f7d:	02 91 00 00 00 81    	add    -0x7f000000(%ecx),%dl
    1f83:	00 00                	add    %al,(%eax)
    1f85:	00 02                	add    %al,(%edx)
    1f87:	00 61 0d             	add    %ah,0xd(%ecx)
    1f8a:	00 00                	add    %al,(%eax)
    1f8c:	04 01                	add    $0x1,%al
    1f8e:	35 09 00 00 20       	xor    $0x20000009,%eax
    1f93:	1d 00 01 23 1d       	sbb    $0x1d230100,%eax
    1f98:	00 01                	add    %al,(%ecx)
    1f9a:	75 73                	jne    200f <thread_run-0xffdff1>
    1f9c:	65                   	gs
    1f9d:	72 2f                	jb     1fce <thread_run-0xffe032>
    1f9f:	6c                   	insb   (%dx),%es:(%edi)
    1fa0:	69 62 73 79 73 63 61 	imul   $0x61637379,0x73(%edx),%esp
    1fa7:	6c                   	insb   (%dx),%es:(%edi)
    1fa8:	6c                   	insb   (%dx),%es:(%edi)
    1fa9:	2f                   	das    
    1faa:	76 61                	jbe    200d <thread_run-0xffdff3>
    1fac:	6e                   	outsb  %ds:(%esi),(%dx)
    1fad:	69 73 68 2e 53 00 2f 	imul   $0x2f00532e,0x68(%ebx),%esi
    1fb4:	61                   	popa   
    1fb5:	66                   	data16
    1fb6:	73 2f                	jae    1fe7 <thread_run-0xffe019>
    1fb8:	61                   	popa   
    1fb9:	6e                   	outsb  %ds:(%esi),(%dx)
    1fba:	64                   	fs
    1fbb:	72 65                	jb     2022 <thread_run-0xffdfde>
    1fbd:	77 2e                	ja     1fed <thread_run-0xffe013>
    1fbf:	63 6d 75             	arpl   %bp,0x75(%ebp)
    1fc2:	2e                   	cs
    1fc3:	65                   	gs
    1fc4:	64                   	fs
    1fc5:	75 2f                	jne    1ff6 <thread_run-0xffe00a>
    1fc7:	75 73                	jne    203c <thread_run-0xffdfc4>
    1fc9:	72 32                	jb     1ffd <thread_run-0xffe003>
    1fcb:	33 2f                	xor    (%edi),%ebp
    1fcd:	61                   	popa   
    1fce:	6e                   	outsb  %ds:(%esi),(%dx)
    1fcf:	6b 75 72 73          	imul   $0x73,0x72(%ebp),%esi
    1fd3:	68 61 2f 44 65       	push   $0x65442f61
    1fd8:	73 6b                	jae    2045 <thread_run-0xffdfbb>
    1fda:	74 6f                	je     204b <thread_run-0xffdfb5>
    1fdc:	70 2f                	jo     200d <thread_run-0xffdff3>
    1fde:	73 74                	jae    2054 <thread_run-0xffdfac>
    1fe0:	75 64                	jne    2046 <thread_run-0xffdfba>
    1fe2:	69 65 73 2f 31 35 34 	imul   $0x3435312f,0x73(%ebp),%esp
    1fe9:	31 30                	xor    %esi,(%eax)
    1feb:	2f                   	das    
    1fec:	50                   	push   %eax
    1fed:	32 2f                	xor    (%edi),%ch
    1fef:	70 32                	jo     2023 <thread_run-0xffdfdd>
    1ff1:	00 47 4e             	add    %al,0x4e(%edi)
    1ff4:	55                   	push   %ebp
    1ff5:	20 41 53             	and    %al,0x53(%ecx)
    1ff8:	20 32                	and    %dh,(%edx)
    1ffa:	2e 32 30             	xor    %cs:(%eax),%dh
    1ffd:	2e                   	cs
    1ffe:	35 31 2e 30 2e       	xor    $0x2e302e31,%eax
    2003:	32 00                	xor    (%eax),%al
    2005:	01 80 84 00 00 00    	add    %eax,0x84(%eax)
    200b:	02 00                	add    (%eax),%al
    200d:	75 0d                	jne    201c <thread_run-0xffdfe4>
    200f:	00 00                	add    %al,(%eax)
    2011:	04 01                	add    $0x1,%al
    2013:	7c 09                	jl     201e <thread_run-0xffdfe2>
    2015:	00 00                	add    %al,(%eax)
    2017:	24 1d                	and    $0x1d,%al
    2019:	00 01                	add    %al,(%ecx)
    201b:	2e                   	cs
    201c:	1d 00 01 75 73       	sbb    $0x73750100,%eax
    2021:	65                   	gs
    2022:	72 2f                	jb     2053 <thread_run-0xffdfad>
    2024:	6c                   	insb   (%dx),%es:(%edi)
    2025:	69 62 73 79 73 63 61 	imul   $0x61637379,0x73(%edx),%esp
    202c:	6c                   	insb   (%dx),%es:(%edi)
    202d:	6c                   	insb   (%dx),%es:(%edi)
    202e:	2f                   	das    
    202f:	6e                   	outsb  %ds:(%esi),(%dx)
    2030:	65                   	gs
    2031:	77 5f                	ja     2092 <thread_run-0xffdf6e>
    2033:	70 61                	jo     2096 <thread_run-0xffdf6a>
    2035:	67                   	addr16
    2036:	65                   	gs
    2037:	73 2e                	jae    2067 <thread_run-0xffdf99>
    2039:	53                   	push   %ebx
    203a:	00 2f                	add    %ch,(%edi)
    203c:	61                   	popa   
    203d:	66                   	data16
    203e:	73 2f                	jae    206f <thread_run-0xffdf91>
    2040:	61                   	popa   
    2041:	6e                   	outsb  %ds:(%esi),(%dx)
    2042:	64                   	fs
    2043:	72 65                	jb     20aa <thread_run-0xffdf56>
    2045:	77 2e                	ja     2075 <thread_run-0xffdf8b>
    2047:	63 6d 75             	arpl   %bp,0x75(%ebp)
    204a:	2e                   	cs
    204b:	65                   	gs
    204c:	64                   	fs
    204d:	75 2f                	jne    207e <thread_run-0xffdf82>
    204f:	75 73                	jne    20c4 <thread_run-0xffdf3c>
    2051:	72 32                	jb     2085 <thread_run-0xffdf7b>
    2053:	33 2f                	xor    (%edi),%ebp
    2055:	61                   	popa   
    2056:	6e                   	outsb  %ds:(%esi),(%dx)
    2057:	6b 75 72 73          	imul   $0x73,0x72(%ebp),%esi
    205b:	68 61 2f 44 65       	push   $0x65442f61
    2060:	73 6b                	jae    20cd <thread_run-0xffdf33>
    2062:	74 6f                	je     20d3 <thread_run-0xffdf2d>
    2064:	70 2f                	jo     2095 <thread_run-0xffdf6b>
    2066:	73 74                	jae    20dc <thread_run-0xffdf24>
    2068:	75 64                	jne    20ce <thread_run-0xffdf32>
    206a:	69 65 73 2f 31 35 34 	imul   $0x3435312f,0x73(%ebp),%esp
    2071:	31 30                	xor    %esi,(%eax)
    2073:	2f                   	das    
    2074:	50                   	push   %eax
    2075:	32 2f                	xor    (%edi),%ch
    2077:	70 32                	jo     20ab <thread_run-0xffdf55>
    2079:	00 47 4e             	add    %al,0x4e(%edi)
    207c:	55                   	push   %ebp
    207d:	20 41 53             	and    %al,0x53(%ecx)
    2080:	20 32                	and    %dh,(%edx)
    2082:	2e 32 30             	xor    %cs:(%eax),%dh
    2085:	2e                   	cs
    2086:	35 31 2e 30 2e       	xor    $0x2e302e31,%eax
    208b:	32 00                	xor    (%eax),%al
    208d:	01 80 8d 00 00 00    	add    %eax,0x8d(%eax)
    2093:	02 00                	add    (%eax),%al
    2095:	89 0d 00 00 04 01    	mov    %ecx,0x1040000
    209b:	0d 00 00 00 01       	or     $0x1000000,%eax
    20a0:	f3 08 00             	repz or %al,(%eax)
    20a3:	00 47 00             	add    %al,0x0(%edi)
    20a6:	00 00                	add    %al,(%eax)
    20a8:	30 1d 00 01 78 1d    	xor    %bl,0x1d780100
    20ae:	00 01                	add    %al,(%ecx)
    20b0:	ca 09 00             	lret   $0x9
    20b3:	00 02                	add    %al,(%edx)
    20b5:	01 04 09             	add    %eax,(%ecx,%ecx,1)
    20b8:	00 00                	add    %al,(%eax)
    20ba:	01 0a                	add    %ecx,(%edx)
    20bc:	01 30                	add    %esi,(%eax)
    20be:	1d 00 01 78 1d       	sbb    $0x1d780100,%eax
    20c3:	00 01                	add    %al,(%ecx)
    20c5:	58                   	pop    %eax
    20c6:	27                   	daa    
    20c7:	00 00                	add    %al,(%eax)
    20c9:	6b 00 00             	imul   $0x0,(%eax),%eax
    20cc:	00 03                	add    %al,(%ebx)
    20ce:	b7 00                	mov    $0x0,%bh
    20d0:	00 00                	add    %al,(%eax)
    20d2:	01 0a                	add    %ecx,(%edx)
    20d4:	6b 00 00             	imul   $0x0,(%eax),%eax
    20d7:	00 02                	add    %al,(%edx)
    20d9:	91                   	xchg   %eax,%ecx
    20da:	00 03                	add    %al,(%ebx)
    20dc:	c7 00 00 00 01 0a    	movl   $0xa010000,(%eax)
    20e2:	6b 00 00             	imul   $0x0,(%eax),%eax
    20e5:	00 02                	add    %al,(%edx)
    20e7:	91                   	xchg   %eax,%ecx
    20e8:	04 04                	add    $0x4,%al
    20ea:	00 00                	add    %al,(%eax)
    20ec:	00 00                	add    %al,(%eax)
    20ee:	8b 00                	mov    (%eax),%eax
    20f0:	00 00                	add    %al,(%eax)
    20f2:	01 05 03 04 29 00    	add    %eax,0x290403
    20f8:	01 00                	add    %eax,(%eax)
    20fa:	05 04 06 84 00       	add    $0x840604,%eax
    20ff:	00 00                	add    %al,(%eax)
    2101:	7d 00                	jge    2103 <thread_run-0xffdefd>
    2103:	00 00                	add    %al,(%eax)
    2105:	07                   	pop    %es
    2106:	7d 00                	jge    2108 <thread_run-0xffdef8>
    2108:	00 00                	add    %al,(%eax)
    210a:	11 00                	adc    %eax,(%eax)
    210c:	08 04 07             	or     %al,(%edi,%eax,1)
    210f:	9e                   	sahf   
    2110:	05 00 00 08 01       	add    $0x1080000,%eax
    2115:	06                   	push   %es
    2116:	24 05                	and    $0x5,%al
    2118:	00 00                	add    %al,(%eax)
    211a:	09 6d 00             	or     %ebp,0x0(%ebp)
    211d:	00 00                	add    %al,(%eax)
    211f:	00 7f 00             	add    %bh,0x0(%edi)
    2122:	00 00                	add    %al,(%eax)
    2124:	02 00                	add    (%eax),%al
    2126:	fb                   	sti    
    2127:	0d 00 00 04 01       	or     $0x1040000,%eax
    212c:	10 0a                	adc    %cl,(%edx)
    212e:	00 00                	add    %al,(%eax)
    2130:	78 1d                	js     214f <thread_run-0xffdeb1>
    2132:	00 01                	add    %al,(%ecx)
    2134:	d5 1d                	aad    $0x1d
    2136:	00 01                	add    %al,(%ecx)
    2138:	34 31                	xor    $0x31,%al
    213a:	30 75 73             	xor    %dh,0x73(%ebp)
    213d:	65                   	gs
    213e:	72 2f                	jb     216f <thread_run-0xffde91>
    2140:	6c                   	insb   (%dx),%es:(%edi)
    2141:	69 62 78 38 36 2f 62 	imul   $0x622f3638,0x78(%edx),%esp
    2148:	63 6f 70             	arpl   %bp,0x70(%edi)
    214b:	79 2e                	jns    217b <thread_run-0xffde85>
    214d:	53                   	push   %ebx
    214e:	00 2f                	add    %ch,(%edi)
    2150:	61                   	popa   
    2151:	66                   	data16
    2152:	73 2f                	jae    2183 <thread_run-0xffde7d>
    2154:	61                   	popa   
    2155:	6e                   	outsb  %ds:(%esi),(%dx)
    2156:	64                   	fs
    2157:	72 65                	jb     21be <thread_run-0xffde42>
    2159:	77 2e                	ja     2189 <thread_run-0xffde77>
    215b:	63 6d 75             	arpl   %bp,0x75(%ebp)
    215e:	2e                   	cs
    215f:	65                   	gs
    2160:	64                   	fs
    2161:	75 2f                	jne    2192 <thread_run-0xffde6e>
    2163:	75 73                	jne    21d8 <thread_run-0xffde28>
    2165:	72 32                	jb     2199 <thread_run-0xffde67>
    2167:	33 2f                	xor    (%edi),%ebp
    2169:	61                   	popa   
    216a:	6e                   	outsb  %ds:(%esi),(%dx)
    216b:	6b 75 72 73          	imul   $0x73,0x72(%ebp),%esi
    216f:	68 61 2f 44 65       	push   $0x65442f61
    2174:	73 6b                	jae    21e1 <thread_run-0xffde1f>
    2176:	74 6f                	je     21e7 <thread_run-0xffde19>
    2178:	70 2f                	jo     21a9 <thread_run-0xffde57>
    217a:	73 74                	jae    21f0 <thread_run-0xffde10>
    217c:	75 64                	jne    21e2 <thread_run-0xffde1e>
    217e:	69 65 73 2f 31 35 34 	imul   $0x3435312f,0x73(%ebp),%esp
    2185:	31 30                	xor    %esi,(%eax)
    2187:	2f                   	das    
    2188:	50                   	push   %eax
    2189:	32 2f                	xor    (%edi),%ch
    218b:	70 32                	jo     21bf <thread_run-0xffde41>
    218d:	00 47 4e             	add    %al,0x4e(%edi)
    2190:	55                   	push   %ebp
    2191:	20 41 53             	and    %al,0x53(%ecx)
    2194:	20 32                	and    %dh,(%edx)
    2196:	2e 32 30             	xor    %cs:(%eax),%dh
    2199:	2e                   	cs
    219a:	35 31 2e 30 2e       	xor    $0x2e302e31,%eax
    219f:	32 00                	xor    (%eax),%al
    21a1:	01 80 7f 00 00 00    	add    %eax,0x7f(%eax)
    21a7:	02 00                	add    (%eax),%al
    21a9:	0f 0e                	femms  
    21ab:	00 00                	add    %al,(%eax)
    21ad:	04 01                	add    $0x1,%al
    21af:	88 0a                	mov    %cl,(%edx)
    21b1:	00 00                	add    %al,(%eax)
    21b3:	d8 1d 00 01 04 1e    	fcomps 0x1e040100
    21b9:	00 01                	add    %al,(%ecx)
    21bb:	34 31                	xor    $0x31,%al
    21bd:	30 75 73             	xor    %dh,0x73(%ebp)
    21c0:	65                   	gs
    21c1:	72 2f                	jb     21f2 <thread_run-0xffde0e>
    21c3:	6c                   	insb   (%dx),%es:(%edi)
    21c4:	69 62 78 38 36 2f 62 	imul   $0x622f3638,0x78(%edx),%esp
    21cb:	7a 65                	jp     2232 <thread_run-0xffddce>
    21cd:	72 6f                	jb     223e <thread_run-0xffddc2>
    21cf:	2e                   	cs
    21d0:	53                   	push   %ebx
    21d1:	00 2f                	add    %ch,(%edi)
    21d3:	61                   	popa   
    21d4:	66                   	data16
    21d5:	73 2f                	jae    2206 <thread_run-0xffddfa>
    21d7:	61                   	popa   
    21d8:	6e                   	outsb  %ds:(%esi),(%dx)
    21d9:	64                   	fs
    21da:	72 65                	jb     2241 <thread_run-0xffddbf>
    21dc:	77 2e                	ja     220c <thread_run-0xffddf4>
    21de:	63 6d 75             	arpl   %bp,0x75(%ebp)
    21e1:	2e                   	cs
    21e2:	65                   	gs
    21e3:	64                   	fs
    21e4:	75 2f                	jne    2215 <thread_run-0xffddeb>
    21e6:	75 73                	jne    225b <thread_run-0xffdda5>
    21e8:	72 32                	jb     221c <thread_run-0xffdde4>
    21ea:	33 2f                	xor    (%edi),%ebp
    21ec:	61                   	popa   
    21ed:	6e                   	outsb  %ds:(%esi),(%dx)
    21ee:	6b 75 72 73          	imul   $0x73,0x72(%ebp),%esi
    21f2:	68 61 2f 44 65       	push   $0x65442f61
    21f7:	73 6b                	jae    2264 <thread_run-0xffdd9c>
    21f9:	74 6f                	je     226a <thread_run-0xffdd96>
    21fb:	70 2f                	jo     222c <thread_run-0xffddd4>
    21fd:	73 74                	jae    2273 <thread_run-0xffdd8d>
    21ff:	75 64                	jne    2265 <thread_run-0xffdd9b>
    2201:	69 65 73 2f 31 35 34 	imul   $0x3435312f,0x73(%ebp),%esp
    2208:	31 30                	xor    %esi,(%eax)
    220a:	2f                   	das    
    220b:	50                   	push   %eax
    220c:	32 2f                	xor    (%edi),%ch
    220e:	70 32                	jo     2242 <thread_run-0xffddbe>
    2210:	00 47 4e             	add    %al,0x4e(%edi)
    2213:	55                   	push   %ebp
    2214:	20 41 53             	and    %al,0x53(%ecx)
    2217:	20 32                	and    %dh,(%edx)
    2219:	2e 32 30             	xor    %cs:(%eax),%dh
    221c:	2e                   	cs
    221d:	35 31 2e 30 2e       	xor    $0x2e302e31,%eax
    2222:	32 00                	xor    (%eax),%al
    2224:	01 80 9a 03 00 00    	add    %eax,0x39a(%eax)
    222a:	02 00                	add    (%eax),%al
    222c:	23 0e                	and    (%esi),%ecx
    222e:	00 00                	add    %al,(%eax)
    2230:	04 01                	add    $0x1,%al
    2232:	0d 00 00 00 01       	or     $0x1000000,%eax
    2237:	6e                   	outsb  %ds:(%esi),(%dx)
    2238:	09 00                	or     %eax,(%eax)
    223a:	00 47 00             	add    %al,0x0(%edi)
    223d:	00 00                	add    %al,(%eax)
    223f:	10 1e                	adc    %bl,(%esi)
    2241:	00 01                	add    %al,(%ecx)
    2243:	54                   	push   %esp
    2244:	23 00                	and    (%eax),%eax
    2246:	01 e4                	add    %esp,%esp
    2248:	0a 00                	or     (%eax),%al
    224a:	00 02                	add    %al,(%edx)
    224c:	68 09 00 00 01       	push   $0x1000009
    2251:	3a 30                	cmp    (%eax),%dh
    2253:	00 00                	add    %al,(%eax)
    2255:	00 03                	add    %al,(%ebx)
    2257:	04 07                	add    $0x7,%al
    2259:	9e                   	sahf   
    225a:	05 00 00 02 53       	add    $0x53020000,%eax
    225f:	09 00                	or     %eax,(%eax)
    2261:	00 01                	add    %al,(%ecx)
    2263:	3c 25                	cmp    $0x25,%al
    2265:	00 00                	add    %al,(%eax)
    2267:	00 02                	add    %al,(%edx)
    2269:	35 09 00 00 01       	xor    $0x1000009,%eax
    226e:	3d 4d 00 00 00       	cmp    $0x4d,%eax
    2273:	03 08                	add    (%eax),%ecx
    2275:	05 60 04 00 00       	add    $0x460,%eax
    227a:	02 33                	add    (%ebx),%dh
    227c:	09 00                	or     %eax,(%eax)
    227e:	00 01                	add    %al,(%ecx)
    2280:	3e                   	ds
    2281:	5f                   	pop    %edi
    2282:	00 00                	add    %al,(%eax)
    2284:	00 03                	add    %al,(%ebx)
    2286:	08 07                	or     %al,(%edi)
    2288:	94                   	xchg   %eax,%esp
    2289:	05 00 00 04 75       	add    $0x75040000,%eax
    228e:	75 00                	jne    2290 <thread_run-0xffdd70>
    2290:	08 01                	or     %al,(%ecx)
    2292:	44                   	inc    %esp
    2293:	99                   	cltd   
    2294:	00 00                	add    %al,(%eax)
    2296:	00 05 71 00 01 45    	add    %al,0x45010071
    229c:	42                   	inc    %edx
    229d:	00 00                	add    %al,(%eax)
    229f:	00 05 75 71 00 01    	add    %al,0x1007175
    22a5:	46                   	inc    %esi
    22a6:	54                   	push   %esp
    22a7:	00 00                	add    %al,(%eax)
    22a9:	00 05 73 6c 00 01    	add    %al,0x1006c73
    22af:	47                   	inc    %edi
    22b0:	99                   	cltd   
    22b1:	00 00                	add    %al,(%eax)
    22b3:	00 05 75 6c 00 01    	add    %al,0x1006c75
    22b9:	48                   	dec    %eax
    22ba:	b0 00                	mov    $0x0,%al
    22bc:	00 00                	add    %al,(%eax)
    22be:	00 06                	add    %al,(%esi)
    22c0:	a9 00 00 00 a9       	test   $0xa9000000,%eax
    22c5:	00 00                	add    %al,(%eax)
    22c7:	00 07                	add    %al,(%edi)
    22c9:	30 00                	xor    %al,(%eax)
    22cb:	00 00                	add    %al,(%eax)
    22cd:	01 00                	add    %eax,(%eax)
    22cf:	08 04 05 69 6e 74 00 	or     %al,0x746e69(,%eax,1)
    22d6:	06                   	push   %es
    22d7:	25 00 00 00 c0       	and    $0xc0000000,%eax
    22dc:	00 00                	add    %al,(%eax)
    22de:	00 07                	add    %al,(%edi)
    22e0:	30 00                	xor    %al,(%eax)
    22e2:	00 00                	add    %al,(%eax)
    22e4:	01 00                	add    %eax,(%eax)
    22e6:	09 73 68             	or     %esi,0x68(%ebx)
    22e9:	6c                   	insb   (%dx),%es:(%edi)
    22ea:	00 01                	add    %al,(%ecx)
    22ec:	23 01                	and    (%ecx),%eax
    22ee:	01 10                	add    %edx,(%eax)
    22f0:	1e                   	push   %ds
    22f1:	00 01                	add    %al,(%ecx)
    22f3:	78 1e                	js     2313 <thread_run-0xffdced>
    22f5:	00 01                	add    %al,(%ecx)
    22f7:	9c                   	pushf  
    22f8:	27                   	daa    
    22f9:	00 00                	add    %al,(%eax)
    22fb:	15 01 00 00 0a       	adc    $0xa000001,%eax
    2300:	70 00                	jo     2302 <thread_run-0xffdcfe>
    2302:	01 23                	add    %esp,(%ebx)
    2304:	01 15 01 00 00 d4    	add    %edx,0xd4000001
    230a:	27                   	daa    
    230b:	00 00                	add    %al,(%eax)
    230d:	0a 6c 65 6e          	or     0x6e(%ebp,%eiz,2),%ch
    2311:	00 01                	add    %al,(%ecx)
    2313:	23 01                	and    (%ecx),%eax
    2315:	a9 00 00 00 e7       	test   $0xe7000000,%eax
    231a:	27                   	daa    
    231b:	00 00                	add    %al,(%eax)
    231d:	0a 73 68             	or     0x68(%ebx),%dh
    2320:	00 01                	add    %al,(%ecx)
    2322:	23 01                	and    (%ecx),%eax
    2324:	a9 00 00 00 11       	test   $0x11000000,%eax
    2329:	28 00                	sub    %al,(%eax)
    232b:	00 0b                	add    %cl,(%ebx)
    232d:	69 00 01 25 01 a9    	imul   $0xa9012501,(%eax),%eax
    2333:	00 00                	add    %al,(%eax)
    2335:	00 2f                	add    %ch,(%edi)
    2337:	28 00                	sub    %al,(%eax)
    2339:	00 00                	add    %al,(%eax)
    233b:	0c 04                	or     $0x4,%al
    233d:	37                   	aaa    
    233e:	00 00                	add    %al,(%eax)
    2340:	00 0d 01 49 09 00    	add    %cl,0x94901
    2346:	00 01                	add    %al,(%ecx)
    2348:	5a                   	pop    %edx
    2349:	01 54 00 00          	add    %edx,0x0(%eax,%eax,1)
    234d:	00 78 1e             	add    %bh,0x1e(%eax)
    2350:	00 01                	add    %al,(%ecx)
    2352:	ec                   	in     (%dx),%al
    2353:	22 00                	and    (%eax),%al
    2355:	01 4e 28             	add    %ecx,0x28(%esi)
    2358:	00 00                	add    %al,(%eax)
    235a:	01 03                	add    %eax,(%ebx)
    235c:	00 00                	add    %al,(%eax)
    235e:	0e                   	push   %cs
    235f:	75 71                	jne    23d2 <thread_run-0xffdc2e>
    2361:	00 01                	add    %al,(%ecx)
    2363:	5a                   	pop    %edx
    2364:	54                   	push   %esp
    2365:	00 00                	add    %al,(%eax)
    2367:	00 02                	add    %al,(%edx)
    2369:	91                   	xchg   %eax,%ecx
    236a:	00 0e                	add    %cl,(%esi)
    236c:	76 71                	jbe    23df <thread_run-0xffdc21>
    236e:	00 01                	add    %al,(%ecx)
    2370:	5a                   	pop    %edx
    2371:	54                   	push   %esp
    2372:	00 00                	add    %al,(%eax)
    2374:	00 02                	add    %al,(%edx)
    2376:	91                   	xchg   %eax,%ecx
    2377:	08 0e                	or     %cl,(%esi)
    2379:	61                   	popa   
    237a:	72 71                	jb     23ed <thread_run-0xffdc13>
    237c:	00 01                	add    %al,(%ecx)
    237e:	5a                   	pop    %edx
    237f:	01 03                	add    %eax,(%ebx)
    2381:	00 00                	add    %al,(%eax)
    2383:	02 91 10 0f 74 6d    	add    0x6d740f10(%ecx),%dl
    2389:	70 00                	jo     238b <thread_run-0xffdc75>
    238b:	01 5c 66 00          	add    %ebx,0x0(%esi,%eiz,2)
    238f:	00 00                	add    %al,(%eax)
    2391:	10 75 00             	adc    %dh,0x0(%ebp)
    2394:	01 5d 15             	add    %ebx,0x15(%ebp)
    2397:	01 00                	add    %eax,(%eax)
    2399:	00 86 28 00 00 10    	add    %al,0x10000028(%esi)
    239f:	76 00                	jbe    23a1 <thread_run-0xffdc5f>
    23a1:	01 5d 15             	add    %ebx,0x15(%ebp)
    23a4:	01 00                	add    %eax,(%eax)
    23a6:	00 cb                	add    %cl,%bl
    23a8:	28 00                	sub    %al,(%eax)
    23aa:	00 10                	add    %dl,(%eax)
    23ac:	71 00                	jno    23ae <thread_run-0xffdc52>
    23ae:	01 5d 15             	add    %ebx,0x15(%ebp)
    23b1:	01 00                	add    %eax,(%eax)
    23b3:	00 fd                	add    %bh,%ch
    23b5:	28 00                	sub    %al,(%eax)
    23b7:	00 10                	add    %dl,(%eax)
    23b9:	76 31                	jbe    23ec <thread_run-0xffdc14>
    23bb:	00 01                	add    %al,(%ecx)
    23bd:	5e                   	pop    %esi
    23be:	37                   	aaa    
    23bf:	00 00                	add    %al,(%eax)
    23c1:	00 29                	add    %ch,(%ecx)
    23c3:	29 00                	sub    %eax,(%eax)
    23c5:	00 10                	add    %dl,(%eax)
    23c7:	76 32                	jbe    23fb <thread_run-0xffdc05>
    23c9:	00 01                	add    %al,(%ecx)
    23cb:	5e                   	pop    %esi
    23cc:	37                   	aaa    
    23cd:	00 00                	add    %al,(%eax)
    23cf:	00 3e                	add    %bh,(%esi)
    23d1:	29 00                	sub    %eax,(%eax)
    23d3:	00 11                	add    %dl,(%ecx)
    23d5:	20 09                	and    %cl,(%ecx)
    23d7:	00 00                	add    %al,(%eax)
    23d9:	01 5f 25             	add    %ebx,0x25(%edi)
    23dc:	00 00                	add    %al,(%eax)
    23de:	00 55 29             	add    %dl,0x29(%ebp)
    23e1:	00 00                	add    %al,(%eax)
    23e3:	11 59 09             	adc    %ebx,0x9(%ecx)
    23e6:	00 00                	add    %al,(%eax)
    23e8:	01 5f 25             	add    %ebx,0x25(%edi)
    23eb:	00 00                	add    %al,(%eax)
    23ed:	00 b9 29 00 00 10    	add    %bh,0x10000029(%ecx)
    23f3:	74 00                	je     23f5 <thread_run-0xffdc0b>
    23f5:	01 5f 25             	add    %ebx,0x25(%edi)
    23f8:	00 00                	add    %al,(%eax)
    23fa:	00 d7                	add    %dl,%bh
    23fc:	29 00                	sub    %eax,(%eax)
    23fe:	00 10                	add    %dl,(%eax)
    2400:	6d                   	insl   (%dx),%es:(%edi)
    2401:	00 01                	add    %al,(%ecx)
    2403:	60                   	pusha  
    2404:	a9 00 00 00 46       	test   $0x46000000,%eax
    2409:	2a 00                	sub    (%eax),%al
    240b:	00 10                	add    %dl,(%eax)
    240d:	6e                   	outsb  %ds:(%esi),(%dx)
    240e:	00 01                	add    %al,(%ecx)
    2410:	60                   	pusha  
    2411:	a9 00 00 00 64       	test   $0x64000000,%eax
    2416:	2a 00                	sub    (%eax),%al
    2418:	00 10                	add    %dl,(%eax)
    241a:	64 00 01             	add    %al,%fs:(%ecx)
    241d:	60                   	pusha  
    241e:	a9 00 00 00 a8       	test   $0xa8000000,%eax
    2423:	2a 00                	sub    (%eax),%al
    2425:	00 10                	add    %dl,(%eax)
    2427:	6a 00                	push   $0x0
    2429:	01 60 a9             	add    %esp,-0x57(%eax)
    242c:	00 00                	add    %al,(%eax)
    242e:	00 dd                	add    %bl,%ch
    2430:	2a 00                	sub    (%eax),%al
    2432:	00 10                	add    %dl,(%eax)
    2434:	69 00 01 60 a9 00    	imul   $0xa96001,(%eax),%eax
    243a:	00 00                	add    %al,(%eax)
    243c:	fd                   	std    
    243d:	2a 00                	sub    (%eax),%al
    243f:	00 12                	add    %dl,(%edx)
    2441:	25 09 00 00 01       	and    $0x1000009,%eax
    2446:	61                   	popa   
    2447:	07                   	pop    %es
    2448:	03 00                	add    (%eax),%eax
    244a:	00 03                	add    %al,(%ebx)
    244c:	74 d8                	je     2426 <thread_run-0xffdbda>
    244e:	00 12                	add    %dl,(%edx)
    2450:	87 09                	xchg   %ecx,(%ecx)
    2452:	00 00                	add    %al,(%eax)
    2454:	01 61 07             	add    %esp,0x7(%ecx)
    2457:	03 00                	add    (%eax),%eax
    2459:	00 03                	add    %al,(%ebx)
    245b:	74 c4                	je     2421 <thread_run-0xffdbdf>
    245d:	00 12                	add    %dl,(%edx)
    245f:	2c 09                	sub    $0x9,%al
    2461:	00 00                	add    %al,(%eax)
    2463:	01 61 07             	add    %esp,0x7(%ecx)
    2466:	03 00                	add    (%eax),%eax
    2468:	00 02                	add    %al,(%edx)
    246a:	74 30                	je     249c <thread_run-0xffdb64>
    246c:	13 3c 09             	adc    (%ecx,%ecx,1),%edi
    246f:	00 00                	add    %al,(%eax)
    2471:	01 e3                	add    %esp,%ebx
    2473:	4b                   	dec    %ebx
    2474:	21 00                	and    %eax,(%eax)
    2476:	01 14 96             	add    %edx,(%esi,%edx,4)
    2479:	1e                   	push   %ds
    247a:	00 01                	add    %al,(%ecx)
    247c:	ba 1e 00 01 70       	mov    $0x7001001e,%edx
    2481:	02 00                	add    (%eax),%al
    2483:	00 12                	add    %dl,(%edx)
    2485:	1b 08                	sbb    (%eax),%ecx
    2487:	00 00                	add    %al,(%eax)
    2489:	01 68 17             	add    %ebp,0x17(%eax)
    248c:	03 00                	add    (%eax),%eax
    248e:	00 05 03 18 39 00    	add    %al,0x391803
    2494:	01 00                	add    %eax,(%eax)
    2496:	14 91                	adc    $0x91,%al
    2498:	1f                   	pop    %ds
    2499:	00 01                	add    %al,(%ecx)
    249b:	38 20                	cmp    %ah,(%eax)
    249d:	00 01                	add    %al,(%ecx)
    249f:	b5 02                	mov    $0x2,%ch
    24a1:	00 00                	add    %al,(%eax)
    24a3:	10 72 62             	adc    %dh,0x62(%edx)
    24a6:	6a 00                	push   $0x0
    24a8:	01 92 25 00 00 00    	add    %edx,0x25(%edx)
    24ae:	86 2b                	xchg   %ch,(%ebx)
    24b0:	00 00                	add    %al,(%eax)
    24b2:	0f 71                	(bad)  
    24b4:	31 00                	xor    %eax,(%eax)
    24b6:	01 93 37 00 00 00    	add    %edx,0x37(%ebx)
    24bc:	0f 71                	(bad)  
    24be:	32 00                	xor    (%eax),%al
    24c0:	01 93 37 00 00 00    	add    %edx,0x37(%ebx)
    24c6:	0f 71                	(bad)  
    24c8:	33 00                	xor    (%eax),%eax
    24ca:	01 93 37 00 00 00    	add    %edx,0x37(%ebx)
    24d0:	0f 71                	(bad)  
    24d2:	34 00                	xor    $0x0,%al
    24d4:	01 93 37 00 00 00    	add    %edx,0x37(%ebx)
    24da:	00 15 30 00 00 00    	add    %dl,0x30
    24e0:	10 75 6a             	adc    %dh,0x6a(%ebp)
    24e3:	30 00                	xor    %al,(%eax)
    24e5:	01 cc                	add    %ecx,%esp
    24e7:	37                   	aaa    
    24e8:	00 00                	add    %al,(%eax)
    24ea:	00 c6                	add    %al,%dh
    24ec:	2b 00                	sub    (%eax),%eax
    24ee:	00 10                	add    %dl,(%eax)
    24f0:	75 6a                	jne    255c <thread_run-0xffdaa4>
    24f2:	31 00                	xor    %eax,(%eax)
    24f4:	01 cc                	add    %ecx,%esp
    24f6:	37                   	aaa    
    24f7:	00 00                	add    %al,(%eax)
    24f9:	00 e1                	add    %ah,%cl
    24fb:	2b 00                	sub    (%eax),%eax
    24fd:	00 10                	add    %dl,(%eax)
    24ff:	75 6a                	jne    256b <thread_run-0xffda95>
    2501:	32 00                	xor    (%eax),%al
    2503:	01 cc                	add    %ecx,%esp
    2505:	37                   	aaa    
    2506:	00 00                	add    %al,(%eax)
    2508:	00 fe                	add    %bh,%dh
    250a:	2b 00                	sub    (%eax),%eax
    250c:	00 16                	add    %dl,(%esi)
    250e:	34 21                	xor    $0x21,%al
    2510:	00 01                	add    %al,(%ecx)
    2512:	44                   	inc    %esp
    2513:	21 00                	and    %eax,(%eax)
    2515:	01 10                	add    %edx,(%eax)
    2517:	6e                   	outsb  %ds:(%esi),(%dx)
    2518:	6e                   	outsb  %ds:(%esi),(%dx)
    2519:	00 01                	add    %al,(%ecx)
    251b:	de 25 00 00 00 1b    	fisub  0x1b000000
    2521:	2c 00                	sub    $0x0,%al
    2523:	00 00                	add    %al,(%eax)
    2525:	00 00                	add    %al,(%eax)
    2527:	0c 04                	or     $0x4,%al
    2529:	54                   	push   %esp
    252a:	00 00                	add    %al,(%eax)
    252c:	00 06                	add    %al,(%esi)
    252e:	37                   	aaa    
    252f:	00 00                	add    %al,(%eax)
    2531:	00 17                	add    %dl,(%edi)
    2533:	03 00                	add    (%eax),%eax
    2535:	00 07                	add    %al,(%edi)
    2537:	30 00                	xor    %al,(%eax)
    2539:	00 00                	add    %al,(%eax)
    253b:	04 00                	add    $0x0,%al
    253d:	17                   	pop    %ss
    253e:	1c 03                	sbb    $0x3,%al
    2540:	00 00                	add    %al,(%eax)
    2542:	18 30                	sbb    %dh,(%eax)
    2544:	00 00                	add    %al,(%eax)
    2546:	00 19                	add    %bl,(%ecx)
    2548:	01 16                	add    %edx,(%esi)
    254a:	09 00                	or     %eax,(%eax)
    254c:	00 01                	add    %al,(%ecx)
    254e:	32 01                	xor    (%ecx),%al
    2550:	01 54 00 00          	add    %edx,0x0(%eax,%eax,1)
    2554:	00 ec                	add    %ch,%ah
    2556:	22 00                	and    (%eax),%al
    2558:	01 24 23             	add    %esp,(%ebx,%eiz,1)
    255b:	00 01                	add    %al,(%ecx)
    255d:	2e                   	cs
    255e:	2c 00                	sub    $0x0,%al
    2560:	00 68 03             	add    %ch,0x3(%eax)
    2563:	00 00                	add    %al,(%eax)
    2565:	1a 61 00             	sbb    0x0(%ecx),%ah
    2568:	01 32                	add    %esi,(%edx)
    256a:	01 54 00 00          	add    %edx,0x0(%eax,%eax,1)
    256e:	00 02                	add    %al,(%edx)
    2570:	91                   	xchg   %eax,%ecx
    2571:	00 1a                	add    %bl,(%edx)
    2573:	62 00                	bound  %eax,(%eax)
    2575:	01 32                	add    %esi,(%edx)
    2577:	01 54 00 00          	add    %edx,0x0(%eax,%eax,1)
    257b:	00 02                	add    %al,(%edx)
    257d:	91                   	xchg   %eax,%ecx
    257e:	08 0b                	or     %cl,(%ebx)
    2580:	72 00                	jb     2582 <thread_run-0xffda7e>
    2582:	01 34 01             	add    %esi,(%ecx,%eax,1)
    2585:	54                   	push   %esp
    2586:	00 00                	add    %al,(%eax)
    2588:	00 66 2c             	add    %ah,0x2c(%esi)
    258b:	00 00                	add    %al,(%eax)
    258d:	00 1b                	add    %bl,(%ebx)
    258f:	01 5e 09             	add    %ebx,0x9(%esi)
    2592:	00 00                	add    %al,(%eax)
    2594:	01 3e                	add    %edi,(%esi)
    2596:	01 01                	add    %eax,(%ecx)
    2598:	54                   	push   %esp
    2599:	00 00                	add    %al,(%eax)
    259b:	00 24 23             	add    %ah,(%ebx,%eiz,1)
    259e:	00 01                	add    %al,(%ecx)
    25a0:	54                   	push   %esp
    25a1:	23 00                	and    (%eax),%eax
    25a3:	01 7a 2c             	add    %edi,0x2c(%edx)
    25a6:	00 00                	add    %al,(%eax)
    25a8:	1a 61 00             	sbb    0x0(%ecx),%ah
    25ab:	01 3e                	add    %edi,(%esi)
    25ad:	01 54 00 00          	add    %edx,0x0(%eax,%eax,1)
    25b1:	00 02                	add    %al,(%edx)
    25b3:	91                   	xchg   %eax,%ecx
    25b4:	00 1a                	add    %bl,(%edx)
    25b6:	62 00                	bound  %eax,(%eax)
    25b8:	01 3e                	add    %edi,(%esi)
    25ba:	01 54 00 00          	add    %edx,0x0(%eax,%eax,1)
    25be:	00 02                	add    %al,(%edx)
    25c0:	91                   	xchg   %eax,%ecx
    25c1:	08 00                	or     %al,(%eax)
	...

Disassembly of section .debug_abbrev:

00000000 <.debug_abbrev>:
   0:	01 11                	add    %edx,(%ecx)
   2:	01 25 0e 13 0b 03    	add    %esp,0x30b130e
   8:	0e                   	push   %cs
   9:	1b 0e                	sbb    (%esi),%ecx
   b:	11 01                	adc    %eax,(%ecx)
   d:	12 01                	adc    (%ecx),%al
   f:	10 06                	adc    %al,(%esi)
  11:	00 00                	add    %al,(%eax)
  13:	02 24 00             	add    (%eax,%eax,1),%ah
  16:	0b 0b                	or     (%ebx),%ecx
  18:	3e 0b 03             	or     %ds:(%ebx),%eax
  1b:	0e                   	push   %cs
  1c:	00 00                	add    %al,(%eax)
  1e:	03 0f                	add    (%edi),%ecx
  20:	00 0b                	add    %cl,(%ebx)
  22:	0b 00                	or     (%eax),%eax
  24:	00 04 2e             	add    %al,(%esi,%ebp,1)
  27:	01 3f                	add    %edi,(%edi)
  29:	0c 03                	or     $0x3,%al
  2b:	0e                   	push   %cs
  2c:	3a 0b                	cmp    (%ebx),%cl
  2e:	3b 0b                	cmp    (%ebx),%ecx
  30:	27                   	daa    
  31:	0c 49                	or     $0x49,%al
  33:	13 11                	adc    (%ecx),%edx
  35:	01 12                	add    %edx,(%edx)
  37:	01 40 06             	add    %eax,0x6(%eax)
  3a:	01 13                	add    %edx,(%ebx)
  3c:	00 00                	add    %al,(%eax)
  3e:	05 05 00 03 0e       	add    $0xe030005,%eax
  43:	3a 0b                	cmp    (%ebx),%cl
  45:	3b 0b                	cmp    (%ebx),%ecx
  47:	49                   	dec    %ecx
  48:	13 02                	adc    (%edx),%eax
  4a:	0a 00                	or     (%eax),%al
  4c:	00 06                	add    %al,(%esi)
  4e:	34 00                	xor    $0x0,%al
  50:	03 0e                	add    (%esi),%ecx
  52:	3a 0b                	cmp    (%ebx),%cl
  54:	3b 0b                	cmp    (%ebx),%ecx
  56:	49                   	dec    %ecx
  57:	13 02                	adc    (%edx),%eax
  59:	06                   	push   %es
  5a:	00 00                	add    %al,(%eax)
  5c:	07                   	pop    %es
  5d:	24 00                	and    $0x0,%al
  5f:	0b 0b                	or     (%ebx),%ecx
  61:	3e 0b 03             	or     %ds:(%ebx),%eax
  64:	08 00                	or     %al,(%eax)
  66:	00 08                	add    %cl,(%eax)
  68:	2e 01 3f             	add    %edi,%cs:(%edi)
  6b:	0c 03                	or     $0x3,%al
  6d:	0e                   	push   %cs
  6e:	3a 0b                	cmp    (%ebx),%cl
  70:	3b 0b                	cmp    (%ebx),%ecx
  72:	49                   	dec    %ecx
  73:	13 11                	adc    (%ecx),%edx
  75:	01 12                	add    %edx,(%edx)
  77:	01 40 06             	add    %eax,0x6(%eax)
  7a:	01 13                	add    %edx,(%ebx)
  7c:	00 00                	add    %al,(%eax)
  7e:	09 34 00             	or     %esi,(%eax,%eax,1)
  81:	03 08                	add    (%eax),%ecx
  83:	3a 0b                	cmp    (%ebx),%cl
  85:	3b 0b                	cmp    (%ebx),%ecx
  87:	49                   	dec    %ecx
  88:	13 02                	adc    (%edx),%eax
  8a:	06                   	push   %es
  8b:	00 00                	add    %al,(%eax)
  8d:	0a 34 00             	or     (%eax,%eax,1),%dh
  90:	03 0e                	add    (%esi),%ecx
  92:	3a 0b                	cmp    (%ebx),%cl
  94:	3b 0b                	cmp    (%ebx),%ecx
  96:	49                   	dec    %ecx
  97:	13 02                	adc    (%edx),%eax
  99:	0a 00                	or     (%eax),%al
  9b:	00 0b                	add    %cl,(%ebx)
  9d:	34 00                	xor    $0x0,%al
  9f:	03 0e                	add    (%esi),%ecx
  a1:	49                   	dec    %ecx
  a2:	13 34 0c             	adc    (%esp,%ecx,1),%esi
  a5:	02 0a                	add    (%edx),%cl
  a7:	00 00                	add    %al,(%eax)
  a9:	0c 01                	or     $0x1,%al
  ab:	01 49 13             	add    %ecx,0x13(%ecx)
  ae:	01 13                	add    %edx,(%ebx)
  b0:	00 00                	add    %al,(%eax)
  b2:	0d 21 00 49 13       	or     $0x13490021,%eax
  b7:	2f                   	das    
  b8:	0b 00                	or     (%eax),%eax
  ba:	00 0e                	add    %cl,(%esi)
  bc:	26 00 49 13          	add    %cl,%es:0x13(%ecx)
  c0:	00 00                	add    %al,(%eax)
  c2:	00 01                	add    %al,(%ecx)
  c4:	11 01                	adc    %eax,(%ecx)
  c6:	25 0e 13 0b 03       	and    $0x30b130e,%eax
  cb:	0e                   	push   %cs
  cc:	1b 0e                	sbb    (%esi),%ecx
  ce:	11 01                	adc    %eax,(%ecx)
  d0:	12 01                	adc    (%ecx),%al
  d2:	10 06                	adc    %al,(%esi)
  d4:	00 00                	add    %al,(%eax)
  d6:	02 24 00             	add    (%eax,%eax,1),%ah
  d9:	0b 0b                	or     (%ebx),%ecx
  db:	3e 0b 03             	or     %ds:(%ebx),%eax
  de:	0e                   	push   %cs
  df:	00 00                	add    %al,(%eax)
  e1:	03 0f                	add    (%edi),%ecx
  e3:	00 0b                	add    %cl,(%ebx)
  e5:	0b 00                	or     (%eax),%eax
  e7:	00 04 2e             	add    %al,(%esi,%ebp,1)
  ea:	01 3f                	add    %edi,(%edi)
  ec:	0c 03                	or     $0x3,%al
  ee:	0e                   	push   %cs
  ef:	3a 0b                	cmp    (%ebx),%cl
  f1:	3b 0b                	cmp    (%ebx),%ecx
  f3:	27                   	daa    
  f4:	0c 11                	or     $0x11,%al
  f6:	01 12                	add    %edx,(%edx)
  f8:	01 40 06             	add    %eax,0x6(%eax)
  fb:	01 13                	add    %edx,(%ebx)
  fd:	00 00                	add    %al,(%eax)
  ff:	05 05 00 03 0e       	add    $0xe030005,%eax
 104:	3a 0b                	cmp    (%ebx),%cl
 106:	3b 0b                	cmp    (%ebx),%ecx
 108:	49                   	dec    %ecx
 109:	13 02                	adc    (%edx),%eax
 10b:	0a 00                	or     (%eax),%al
 10d:	00 06                	add    %al,(%esi)
 10f:	24 00                	and    $0x0,%al
 111:	0b 0b                	or     (%ebx),%ecx
 113:	3e 0b 03             	or     %ds:(%ebx),%eax
 116:	08 00                	or     %al,(%eax)
 118:	00 07                	add    %al,(%edi)
 11a:	0f 00 0b             	str    (%ebx)
 11d:	0b 49 13             	or     0x13(%ecx),%ecx
 120:	00 00                	add    %al,(%eax)
 122:	00 01                	add    %al,(%ecx)
 124:	11 01                	adc    %eax,(%ecx)
 126:	25 0e 13 0b 03       	and    $0x30b130e,%eax
 12b:	0e                   	push   %cs
 12c:	1b 0e                	sbb    (%esi),%ecx
 12e:	11 01                	adc    %eax,(%ecx)
 130:	12 01                	adc    (%ecx),%al
 132:	10 06                	adc    %al,(%esi)
 134:	00 00                	add    %al,(%eax)
 136:	02 24 00             	add    (%eax,%eax,1),%ah
 139:	0b 0b                	or     (%ebx),%ecx
 13b:	3e 0b 03             	or     %ds:(%ebx),%eax
 13e:	0e                   	push   %cs
 13f:	00 00                	add    %al,(%eax)
 141:	03 0f                	add    (%edi),%ecx
 143:	00 0b                	add    %cl,(%ebx)
 145:	0b 00                	or     (%eax),%eax
 147:	00 04 16             	add    %al,(%esi,%edx,1)
 14a:	00 03                	add    %al,(%ebx)
 14c:	0e                   	push   %cs
 14d:	3a 0b                	cmp    (%ebx),%cl
 14f:	3b 0b                	cmp    (%ebx),%ecx
 151:	49                   	dec    %ecx
 152:	13 00                	adc    (%eax),%eax
 154:	00 05 13 01 03 0e    	add    %al,0xe030113
 15a:	0b 0b                	or     (%ebx),%ecx
 15c:	3a 0b                	cmp    (%ebx),%cl
 15e:	3b 0b                	cmp    (%ebx),%ecx
 160:	01 13                	add    %edx,(%ebx)
 162:	00 00                	add    %al,(%eax)
 164:	06                   	push   %es
 165:	0d 00 03 0e 3a       	or     $0x3a0e0300,%eax
 16a:	0b 3b                	or     (%ebx),%edi
 16c:	0b 49 13             	or     0x13(%ecx),%ecx
 16f:	38 0a                	cmp    %cl,(%edx)
 171:	00 00                	add    %al,(%eax)
 173:	07                   	pop    %es
 174:	0f 00 0b             	str    (%ebx)
 177:	0b 49 13             	or     0x13(%ecx),%ecx
 17a:	00 00                	add    %al,(%eax)
 17c:	08 0d 00 03 08 3a    	or     %cl,0x3a080300
 182:	0b 3b                	or     (%ebx),%edi
 184:	0b 49 13             	or     0x13(%ecx),%ecx
 187:	38 0a                	cmp    %cl,(%edx)
 189:	00 00                	add    %al,(%eax)
 18b:	09 2e                	or     %ebp,(%esi)
 18d:	00 3f                	add    %bh,(%edi)
 18f:	0c 03                	or     $0x3,%al
 191:	0e                   	push   %cs
 192:	3a 0b                	cmp    (%ebx),%cl
 194:	3b 0b                	cmp    (%ebx),%ecx
 196:	49                   	dec    %ecx
 197:	13 20                	adc    (%eax),%esp
 199:	0b 00                	or     (%eax),%eax
 19b:	00 0a                	add    %cl,(%edx)
 19d:	2e 01 3f             	add    %edi,%cs:(%edi)
 1a0:	0c 03                	or     $0x3,%al
 1a2:	0e                   	push   %cs
 1a3:	3a 0b                	cmp    (%ebx),%cl
 1a5:	3b 0b                	cmp    (%ebx),%ecx
 1a7:	27                   	daa    
 1a8:	0c 11                	or     $0x11,%al
 1aa:	01 12                	add    %edx,(%edx)
 1ac:	01 40 06             	add    %eax,0x6(%eax)
 1af:	01 13                	add    %edx,(%ebx)
 1b1:	00 00                	add    %al,(%eax)
 1b3:	0b 05 00 03 0e 3a    	or     0x3a0e0300,%eax
 1b9:	0b 3b                	or     (%ebx),%edi
 1bb:	0b 49 13             	or     0x13(%ecx),%ecx
 1be:	02 0a                	add    (%edx),%cl
 1c0:	00 00                	add    %al,(%eax)
 1c2:	0c 2e                	or     $0x2e,%al
 1c4:	00 31                	add    %dh,(%ecx)
 1c6:	13 11                	adc    (%ecx),%edx
 1c8:	01 12                	add    %edx,(%edx)
 1ca:	01 40 06             	add    %eax,0x6(%eax)
 1cd:	00 00                	add    %al,(%eax)
 1cf:	0d 2e 01 3f 0c       	or     $0xc3f012e,%eax
 1d4:	03 0e                	add    (%esi),%ecx
 1d6:	3a 0b                	cmp    (%ebx),%cl
 1d8:	3b 05 27 0c 11 01    	cmp    0x1110c27,%eax
 1de:	12 01                	adc    (%ecx),%al
 1e0:	40                   	inc    %eax
 1e1:	06                   	push   %es
 1e2:	01 13                	add    %edx,(%ebx)
 1e4:	00 00                	add    %al,(%eax)
 1e6:	0e                   	push   %cs
 1e7:	05 00 03 0e 3a       	add    $0x3a0e0300,%eax
 1ec:	0b 3b                	or     (%ebx),%edi
 1ee:	05 49 13 02 0a       	add    $0xa021349,%eax
 1f3:	00 00                	add    %al,(%eax)
 1f5:	0f 2e 01             	ucomiss (%ecx),%xmm0
 1f8:	3f                   	aas    
 1f9:	0c 03                	or     $0x3,%al
 1fb:	0e                   	push   %cs
 1fc:	3a 0b                	cmp    (%ebx),%cl
 1fe:	3b 05 27 0c 49 13    	cmp    0x13490c27,%eax
 204:	11 01                	adc    %eax,(%ecx)
 206:	12 01                	adc    (%ecx),%al
 208:	40                   	inc    %eax
 209:	06                   	push   %es
 20a:	01 13                	add    %edx,(%ebx)
 20c:	00 00                	add    %al,(%eax)
 20e:	10 05 00 03 08 3a    	adc    %al,0x3a080300
 214:	0b 3b                	or     (%ebx),%edi
 216:	05 49 13 02 0a       	add    $0xa021349,%eax
 21b:	00 00                	add    %al,(%eax)
 21d:	11 34 00             	adc    %esi,(%eax,%eax,1)
 220:	03 08                	add    (%eax),%ecx
 222:	3a 0b                	cmp    (%ebx),%cl
 224:	3b 05 49 13 1c 0b    	cmp    0xb1c1349,%eax
 22a:	00 00                	add    %al,(%eax)
 22c:	12 24 00             	adc    (%eax,%eax,1),%ah
 22f:	0b 0b                	or     (%ebx),%ecx
 231:	3e 0b 03             	or     %ds:(%ebx),%eax
 234:	08 00                	or     %al,(%eax)
 236:	00 13                	add    %dl,(%ebx)
 238:	2e 01 3f             	add    %edi,%cs:(%edi)
 23b:	0c 03                	or     $0x3,%al
 23d:	0e                   	push   %cs
 23e:	3a 0b                	cmp    (%ebx),%cl
 240:	3b 05 49 13 11 01    	cmp    0x1111349,%eax
 246:	12 01                	adc    (%ecx),%al
 248:	40                   	inc    %eax
 249:	06                   	push   %es
 24a:	01 13                	add    %edx,(%ebx)
 24c:	00 00                	add    %al,(%eax)
 24e:	14 34                	adc    $0x34,%al
 250:	00 03                	add    %al,(%ebx)
 252:	0e                   	push   %cs
 253:	3a 0b                	cmp    (%ebx),%cl
 255:	3b 05 49 13 1c 0b    	cmp    0xb1c1349,%eax
 25b:	00 00                	add    %al,(%eax)
 25d:	15 34 00 03 0e       	adc    $0xe030034,%eax
 262:	3a 0b                	cmp    (%ebx),%cl
 264:	3b 05 49 13 02 06    	cmp    0x6021349,%eax
 26a:	00 00                	add    %al,(%eax)
 26c:	16                   	push   %ss
 26d:	15 01 27 0c 49       	adc    $0x490c2701,%eax
 272:	13 01                	adc    (%ecx),%eax
 274:	13 00                	adc    (%eax),%eax
 276:	00 17                	add    %dl,(%edi)
 278:	05 00 49 13 00       	add    $0x134900,%eax
 27d:	00 18                	add    %bl,(%eax)
 27f:	2e 01 3f             	add    %edi,%cs:(%edi)
 282:	0c 03                	or     $0x3,%al
 284:	0e                   	push   %cs
 285:	3a 0b                	cmp    (%ebx),%cl
 287:	3b 0b                	cmp    (%ebx),%ecx
 289:	27                   	daa    
 28a:	0c 49                	or     $0x49,%al
 28c:	13 11                	adc    (%ecx),%edx
 28e:	01 12                	add    %edx,(%edx)
 290:	01 40 06             	add    %eax,0x6(%eax)
 293:	01 13                	add    %edx,(%ebx)
 295:	00 00                	add    %al,(%eax)
 297:	19 34 00             	sbb    %esi,(%eax,%eax,1)
 29a:	03 08                	add    (%eax),%ecx
 29c:	3a 0b                	cmp    (%ebx),%cl
 29e:	3b 0b                	cmp    (%ebx),%ecx
 2a0:	49                   	dec    %ecx
 2a1:	13 02                	adc    (%edx),%eax
 2a3:	06                   	push   %es
 2a4:	00 00                	add    %al,(%eax)
 2a6:	1a 34 00             	sbb    (%eax,%eax,1),%dh
 2a9:	03 0e                	add    (%esi),%ecx
 2ab:	3a 0b                	cmp    (%ebx),%cl
 2ad:	3b 0b                	cmp    (%ebx),%ecx
 2af:	49                   	dec    %ecx
 2b0:	13 02                	adc    (%edx),%eax
 2b2:	06                   	push   %es
 2b3:	00 00                	add    %al,(%eax)
 2b5:	1b 34 00             	sbb    (%eax,%eax,1),%esi
 2b8:	03 0e                	add    (%esi),%ecx
 2ba:	49                   	dec    %ecx
 2bb:	13 34 0c             	adc    (%esp,%ecx,1),%esi
 2be:	02 0a                	add    (%edx),%cl
 2c0:	00 00                	add    %al,(%eax)
 2c2:	1c 1d                	sbb    $0x1d,%al
 2c4:	00 31                	add    %dh,(%ecx)
 2c6:	13 11                	adc    (%ecx),%edx
 2c8:	01 12                	add    %edx,(%edx)
 2ca:	01 58 0b             	add    %ebx,0xb(%eax)
 2cd:	59                   	pop    %ecx
 2ce:	0b 00                	or     (%eax),%eax
 2d0:	00 1d 01 01 49 13    	add    %bl,0x13490101
 2d6:	01 13                	add    %edx,(%ebx)
 2d8:	00 00                	add    %al,(%eax)
 2da:	1e                   	push   %ds
 2db:	21 00                	and    %eax,(%eax)
 2dd:	49                   	dec    %ecx
 2de:	13 2f                	adc    (%edi),%ebp
 2e0:	0b 00                	or     (%eax),%eax
 2e2:	00 1f                	add    %bl,(%edi)
 2e4:	26 00 49 13          	add    %cl,%es:0x13(%ecx)
 2e8:	00 00                	add    %al,(%eax)
 2ea:	20 05 00 03 08 3a    	and    %al,0x3a080300
 2f0:	0b 3b                	or     (%ebx),%edi
 2f2:	0b 49 13             	or     0x13(%ecx),%ecx
 2f5:	02 0a                	add    (%edx),%cl
 2f7:	00 00                	add    %al,(%eax)
 2f9:	21 34 00             	and    %esi,(%eax,%eax,1)
 2fc:	03 0e                	add    (%esi),%ecx
 2fe:	3a 0b                	cmp    (%ebx),%cl
 300:	3b 0b                	cmp    (%ebx),%ecx
 302:	49                   	dec    %ecx
 303:	13 02                	adc    (%edx),%eax
 305:	0a 00                	or     (%eax),%al
 307:	00 00                	add    %al,(%eax)
 309:	01 11                	add    %edx,(%ecx)
 30b:	00 10                	add    %dl,(%eax)
 30d:	06                   	push   %es
 30e:	11 01                	adc    %eax,(%ecx)
 310:	12 01                	adc    (%ecx),%al
 312:	03 08                	add    (%eax),%ecx
 314:	1b 08                	sbb    (%eax),%ecx
 316:	25 08 13 05 00       	and    $0x51308,%eax
 31b:	00 00                	add    %al,(%eax)
 31d:	01 11                	add    %edx,(%ecx)
 31f:	01 25 0e 13 0b 03    	add    %esp,0x30b130e
 325:	0e                   	push   %cs
 326:	1b 0e                	sbb    (%esi),%ecx
 328:	11 01                	adc    %eax,(%ecx)
 32a:	12 01                	adc    (%ecx),%al
 32c:	10 06                	adc    %al,(%esi)
 32e:	00 00                	add    %al,(%eax)
 330:	02 16                	add    (%esi),%dl
 332:	00 03                	add    %al,(%ebx)
 334:	0e                   	push   %cs
 335:	3a 0b                	cmp    (%ebx),%cl
 337:	3b 0b                	cmp    (%ebx),%ecx
 339:	49                   	dec    %ecx
 33a:	13 00                	adc    (%eax),%eax
 33c:	00 03                	add    %al,(%ebx)
 33e:	24 00                	and    $0x0,%al
 340:	0b 0b                	or     (%ebx),%ecx
 342:	3e 0b 03             	or     %ds:(%ebx),%eax
 345:	0e                   	push   %cs
 346:	00 00                	add    %al,(%eax)
 348:	04 2e                	add    $0x2e,%al
 34a:	01 3f                	add    %edi,(%edi)
 34c:	0c 03                	or     $0x3,%al
 34e:	0e                   	push   %cs
 34f:	3a 0b                	cmp    (%ebx),%cl
 351:	3b 0b                	cmp    (%ebx),%ecx
 353:	27                   	daa    
 354:	0c 11                	or     $0x11,%al
 356:	01 12                	add    %edx,(%edx)
 358:	01 40 06             	add    %eax,0x6(%eax)
 35b:	01 13                	add    %edx,(%ebx)
 35d:	00 00                	add    %al,(%eax)
 35f:	05 05 00 03 0e       	add    $0xe030005,%eax
 364:	3a 0b                	cmp    (%ebx),%cl
 366:	3b 0b                	cmp    (%ebx),%ecx
 368:	49                   	dec    %ecx
 369:	13 02                	adc    (%edx),%eax
 36b:	0a 00                	or     (%eax),%al
 36d:	00 06                	add    %al,(%esi)
 36f:	0f 00 0b             	str    (%ebx)
 372:	0b 00                	or     (%eax),%eax
 374:	00 07                	add    %al,(%edi)
 376:	2e 01 3f             	add    %edi,%cs:(%edi)
 379:	0c 03                	or     $0x3,%al
 37b:	0e                   	push   %cs
 37c:	3a 0b                	cmp    (%ebx),%cl
 37e:	3b 0b                	cmp    (%ebx),%ecx
 380:	27                   	daa    
 381:	0c 49                	or     $0x49,%al
 383:	13 11                	adc    (%ecx),%edx
 385:	01 12                	add    %edx,(%edx)
 387:	01 40 06             	add    %eax,0x6(%eax)
 38a:	01 13                	add    %edx,(%ebx)
 38c:	00 00                	add    %al,(%eax)
 38e:	08 34 00             	or     %dh,(%eax,%eax,1)
 391:	03 08                	add    (%eax),%ecx
 393:	3a 0b                	cmp    (%ebx),%cl
 395:	3b 0b                	cmp    (%ebx),%ecx
 397:	49                   	dec    %ecx
 398:	13 02                	adc    (%edx),%eax
 39a:	06                   	push   %es
 39b:	00 00                	add    %al,(%eax)
 39d:	09 2e                	or     %ebp,(%esi)
 39f:	01 3f                	add    %edi,(%edi)
 3a1:	0c 03                	or     $0x3,%al
 3a3:	0e                   	push   %cs
 3a4:	3a 0b                	cmp    (%ebx),%cl
 3a6:	3b 0b                	cmp    (%ebx),%ecx
 3a8:	27                   	daa    
 3a9:	0c 49                	or     $0x49,%al
 3ab:	13 11                	adc    (%ecx),%edx
 3ad:	01 12                	add    %edx,(%edx)
 3af:	01 40 06             	add    %eax,0x6(%eax)
 3b2:	00 00                	add    %al,(%eax)
 3b4:	00 01                	add    %al,(%ecx)
 3b6:	11 01                	adc    %eax,(%ecx)
 3b8:	25 0e 13 0b 03       	and    $0x30b130e,%eax
 3bd:	0e                   	push   %cs
 3be:	1b 0e                	sbb    (%esi),%ecx
 3c0:	11 01                	adc    %eax,(%ecx)
 3c2:	12 01                	adc    (%ecx),%al
 3c4:	10 06                	adc    %al,(%esi)
 3c6:	00 00                	add    %al,(%eax)
 3c8:	02 16                	add    (%esi),%dl
 3ca:	00 03                	add    %al,(%ebx)
 3cc:	0e                   	push   %cs
 3cd:	3a 0b                	cmp    (%ebx),%cl
 3cf:	3b 0b                	cmp    (%ebx),%ecx
 3d1:	49                   	dec    %ecx
 3d2:	13 00                	adc    (%eax),%eax
 3d4:	00 03                	add    %al,(%ebx)
 3d6:	0f 00 0b             	str    (%ebx)
 3d9:	0b 03                	or     (%ebx),%eax
 3db:	0e                   	push   %cs
 3dc:	49                   	dec    %ecx
 3dd:	13 00                	adc    (%eax),%eax
 3df:	00 04 24             	add    %al,(%esp)
 3e2:	00 0b                	add    %cl,(%ebx)
 3e4:	0b 3e                	or     (%esi),%edi
 3e6:	0b 03                	or     (%ebx),%eax
 3e8:	0e                   	push   %cs
 3e9:	00 00                	add    %al,(%eax)
 3eb:	05 2e 00 3f 0c       	add    $0xc3f002e,%eax
 3f0:	03 0e                	add    (%esi),%ecx
 3f2:	3a 0b                	cmp    (%ebx),%cl
 3f4:	3b 0b                	cmp    (%ebx),%ecx
 3f6:	27                   	daa    
 3f7:	0c 11                	or     $0x11,%al
 3f9:	01 12                	add    %edx,(%edx)
 3fb:	01 40 06             	add    %eax,0x6(%eax)
 3fe:	00 00                	add    %al,(%eax)
 400:	06                   	push   %es
 401:	2e 01 3f             	add    %edi,%cs:(%edi)
 404:	0c 03                	or     $0x3,%al
 406:	0e                   	push   %cs
 407:	3a 0b                	cmp    (%ebx),%cl
 409:	3b 0b                	cmp    (%ebx),%ecx
 40b:	27                   	daa    
 40c:	0c 11                	or     $0x11,%al
 40e:	01 12                	add    %edx,(%edx)
 410:	01 40 06             	add    %eax,0x6(%eax)
 413:	01 13                	add    %edx,(%ebx)
 415:	00 00                	add    %al,(%eax)
 417:	07                   	pop    %es
 418:	05 00 03 08 3a       	add    $0x3a080300,%eax
 41d:	0b 3b                	or     (%ebx),%edi
 41f:	0b 49 13             	or     0x13(%ecx),%ecx
 422:	02 0a                	add    (%edx),%cl
 424:	00 00                	add    %al,(%eax)
 426:	08 24 00             	or     %ah,(%eax,%eax,1)
 429:	0b 0b                	or     (%ebx),%ecx
 42b:	3e 0b 03             	or     %ds:(%ebx),%eax
 42e:	08 00                	or     %al,(%eax)
 430:	00 09                	add    %cl,(%ecx)
 432:	0f 00 0b             	str    (%ebx)
 435:	0b 49 13             	or     0x13(%ecx),%ecx
 438:	00 00                	add    %al,(%eax)
 43a:	0a 26                	or     (%esi),%ah
 43c:	00 49 13             	add    %cl,0x13(%ecx)
 43f:	00 00                	add    %al,(%eax)
 441:	0b 2e                	or     (%esi),%ebp
 443:	00 3f                	add    %bh,(%edi)
 445:	0c 03                	or     $0x3,%al
 447:	0e                   	push   %cs
 448:	3a 0b                	cmp    (%ebx),%cl
 44a:	3b 0b                	cmp    (%ebx),%ecx
 44c:	27                   	daa    
 44d:	0c 49                	or     $0x49,%al
 44f:	13 11                	adc    (%ecx),%edx
 451:	01 12                	add    %edx,(%edx)
 453:	01 40 06             	add    %eax,0x6(%eax)
 456:	00 00                	add    %al,(%eax)
 458:	0c 2e                	or     $0x2e,%al
 45a:	01 3f                	add    %edi,(%edi)
 45c:	0c 03                	or     $0x3,%al
 45e:	0e                   	push   %cs
 45f:	3a 0b                	cmp    (%ebx),%cl
 461:	3b 0b                	cmp    (%ebx),%ecx
 463:	27                   	daa    
 464:	0c 49                	or     $0x49,%al
 466:	13 11                	adc    (%ecx),%edx
 468:	01 12                	add    %edx,(%edx)
 46a:	01 40 06             	add    %eax,0x6(%eax)
 46d:	01 13                	add    %edx,(%ebx)
 46f:	00 00                	add    %al,(%eax)
 471:	0d 05 00 03 0e       	or     $0xe030005,%eax
 476:	3a 0b                	cmp    (%ebx),%cl
 478:	3b 0b                	cmp    (%ebx),%ecx
 47a:	49                   	dec    %ecx
 47b:	13 02                	adc    (%edx),%eax
 47d:	0a 00                	or     (%eax),%al
 47f:	00 0e                	add    %cl,(%esi)
 481:	18 00                	sbb    %al,(%eax)
 483:	00 00                	add    %al,(%eax)
 485:	0f 34                	sysenter 
 487:	00 03                	add    %al,(%ebx)
 489:	08 3a                	or     %bh,(%edx)
 48b:	0b 3b                	or     (%ebx),%edi
 48d:	0b 49 13             	or     0x13(%ecx),%ecx
 490:	02 0a                	add    (%edx),%cl
 492:	00 00                	add    %al,(%eax)
 494:	10 34 00             	adc    %dh,(%eax,%eax,1)
 497:	03 08                	add    (%eax),%ecx
 499:	3a 0b                	cmp    (%ebx),%cl
 49b:	3b 0b                	cmp    (%ebx),%ecx
 49d:	49                   	dec    %ecx
 49e:	13 02                	adc    (%edx),%eax
 4a0:	06                   	push   %es
 4a1:	00 00                	add    %al,(%eax)
 4a3:	11 01                	adc    %eax,(%ecx)
 4a5:	01 49 13             	add    %ecx,0x13(%ecx)
 4a8:	00 00                	add    %al,(%eax)
 4aa:	12 21                	adc    (%ecx),%ah
 4ac:	00 49 13             	add    %cl,0x13(%ecx)
 4af:	2f                   	das    
 4b0:	0b 00                	or     (%eax),%eax
 4b2:	00 00                	add    %al,(%eax)
 4b4:	01 11                	add    %edx,(%ecx)
 4b6:	00 10                	add    %dl,(%eax)
 4b8:	06                   	push   %es
 4b9:	11 01                	adc    %eax,(%ecx)
 4bb:	12 01                	adc    (%ecx),%al
 4bd:	03 08                	add    (%eax),%ecx
 4bf:	1b 08                	sbb    (%eax),%ecx
 4c1:	25 08 13 05 00       	and    $0x51308,%eax
 4c6:	00 00                	add    %al,(%eax)
 4c8:	01 11                	add    %edx,(%ecx)
 4ca:	01 25 0e 13 0b 03    	add    %esp,0x30b130e
 4d0:	0e                   	push   %cs
 4d1:	1b 0e                	sbb    (%esi),%ecx
 4d3:	11 01                	adc    %eax,(%ecx)
 4d5:	12 01                	adc    (%ecx),%al
 4d7:	10 06                	adc    %al,(%esi)
 4d9:	00 00                	add    %al,(%eax)
 4db:	02 16                	add    (%esi),%dl
 4dd:	00 03                	add    %al,(%ebx)
 4df:	0e                   	push   %cs
 4e0:	3a 0b                	cmp    (%ebx),%cl
 4e2:	3b 0b                	cmp    (%ebx),%ecx
 4e4:	49                   	dec    %ecx
 4e5:	13 00                	adc    (%eax),%eax
 4e7:	00 03                	add    %al,(%ebx)
 4e9:	0f 00 0b             	str    (%ebx)
 4ec:	0b 03                	or     (%ebx),%eax
 4ee:	0e                   	push   %cs
 4ef:	49                   	dec    %ecx
 4f0:	13 00                	adc    (%eax),%eax
 4f2:	00 04 24             	add    %al,(%esp)
 4f5:	00 0b                	add    %cl,(%ebx)
 4f7:	0b 3e                	or     (%esi),%edi
 4f9:	0b 03                	or     (%ebx),%eax
 4fb:	0e                   	push   %cs
 4fc:	00 00                	add    %al,(%eax)
 4fe:	05 13 01 03 0e       	add    $0xe030113,%eax
 503:	0b 0b                	or     (%ebx),%ecx
 505:	3a 0b                	cmp    (%ebx),%cl
 507:	3b 0b                	cmp    (%ebx),%ecx
 509:	01 13                	add    %edx,(%ebx)
 50b:	00 00                	add    %al,(%eax)
 50d:	06                   	push   %es
 50e:	0d 00 03 08 3a       	or     $0x3a080300,%eax
 513:	0b 3b                	or     (%ebx),%edi
 515:	0b 49 13             	or     0x13(%ecx),%ecx
 518:	38 0a                	cmp    %cl,(%edx)
 51a:	00 00                	add    %al,(%eax)
 51c:	07                   	pop    %es
 51d:	0f 00 0b             	str    (%ebx)
 520:	0b 49 13             	or     0x13(%ecx),%ecx
 523:	00 00                	add    %al,(%eax)
 525:	08 2e                	or     %ch,(%esi)
 527:	01 03                	add    %eax,(%ebx)
 529:	0e                   	push   %cs
 52a:	3a 0b                	cmp    (%ebx),%cl
 52c:	3b 0b                	cmp    (%ebx),%ecx
 52e:	27                   	daa    
 52f:	0c 11                	or     $0x11,%al
 531:	01 12                	add    %edx,(%edx)
 533:	01 40 06             	add    %eax,0x6(%eax)
 536:	01 13                	add    %edx,(%ebx)
 538:	00 00                	add    %al,(%eax)
 53a:	09 05 00 03 08 3a    	or     %eax,0x3a080300
 540:	0b 3b                	or     (%ebx),%edi
 542:	0b 49 13             	or     0x13(%ecx),%ecx
 545:	02 0a                	add    (%edx),%cl
 547:	00 00                	add    %al,(%eax)
 549:	0a 34 00             	or     (%eax,%eax,1),%dh
 54c:	03 0e                	add    (%esi),%ecx
 54e:	3a 0b                	cmp    (%ebx),%cl
 550:	3b 0b                	cmp    (%ebx),%ecx
 552:	49                   	dec    %ecx
 553:	13 02                	adc    (%edx),%eax
 555:	0a 00                	or     (%eax),%al
 557:	00 0b                	add    %cl,(%ebx)
 559:	24 00                	and    $0x0,%al
 55b:	0b 0b                	or     (%ebx),%ecx
 55d:	3e 0b 03             	or     %ds:(%ebx),%eax
 560:	08 00                	or     %al,(%eax)
 562:	00 0c 2e             	add    %cl,(%esi,%ebp,1)
 565:	01 3f                	add    %edi,(%edi)
 567:	0c 03                	or     $0x3,%al
 569:	0e                   	push   %cs
 56a:	3a 0b                	cmp    (%ebx),%cl
 56c:	3b 0b                	cmp    (%ebx),%ecx
 56e:	27                   	daa    
 56f:	0c 49                	or     $0x49,%al
 571:	13 11                	adc    (%ecx),%edx
 573:	01 12                	add    %edx,(%edx)
 575:	01 40 06             	add    %eax,0x6(%eax)
 578:	01 13                	add    %edx,(%ebx)
 57a:	00 00                	add    %al,(%eax)
 57c:	0d 05 00 03 0e       	or     $0xe030005,%eax
 581:	3a 0b                	cmp    (%ebx),%cl
 583:	3b 0b                	cmp    (%ebx),%ecx
 585:	49                   	dec    %ecx
 586:	13 02                	adc    (%edx),%eax
 588:	0a 00                	or     (%eax),%al
 58a:	00 0e                	add    %cl,(%esi)
 58c:	26 00 49 13          	add    %cl,%es:0x13(%ecx)
 590:	00 00                	add    %al,(%eax)
 592:	0f 18 00             	prefetchnta (%eax)
 595:	00 00                	add    %al,(%eax)
 597:	10 34 00             	adc    %dh,(%eax,%eax,1)
 59a:	03 0e                	add    (%esi),%ecx
 59c:	3a 0b                	cmp    (%ebx),%cl
 59e:	3b 0b                	cmp    (%ebx),%ecx
 5a0:	49                   	dec    %ecx
 5a1:	13 02                	adc    (%edx),%eax
 5a3:	06                   	push   %es
 5a4:	00 00                	add    %al,(%eax)
 5a6:	11 34 00             	adc    %esi,(%eax,%eax,1)
 5a9:	03 08                	add    (%eax),%ecx
 5ab:	3a 0b                	cmp    (%ebx),%cl
 5ad:	3b 0b                	cmp    (%ebx),%ecx
 5af:	49                   	dec    %ecx
 5b0:	13 02                	adc    (%edx),%eax
 5b2:	0a 00                	or     (%eax),%al
 5b4:	00 12                	add    %dl,(%edx)
 5b6:	2e 01 3f             	add    %edi,%cs:(%edi)
 5b9:	0c 03                	or     $0x3,%al
 5bb:	0e                   	push   %cs
 5bc:	3a 0b                	cmp    (%ebx),%cl
 5be:	3b 0b                	cmp    (%ebx),%ecx
 5c0:	27                   	daa    
 5c1:	0c 49                	or     $0x49,%al
 5c3:	13 11                	adc    (%ecx),%edx
 5c5:	01 12                	add    %edx,(%edx)
 5c7:	01 40 06             	add    %eax,0x6(%eax)
 5ca:	00 00                	add    %al,(%eax)
 5cc:	00 01                	add    %al,(%ecx)
 5ce:	11 01                	adc    %eax,(%ecx)
 5d0:	25 0e 13 0b 03       	and    $0x30b130e,%eax
 5d5:	0e                   	push   %cs
 5d6:	1b 0e                	sbb    (%esi),%ecx
 5d8:	11 01                	adc    %eax,(%ecx)
 5da:	12 01                	adc    (%ecx),%al
 5dc:	10 06                	adc    %al,(%esi)
 5de:	00 00                	add    %al,(%eax)
 5e0:	02 16                	add    (%esi),%dl
 5e2:	00 03                	add    %al,(%ebx)
 5e4:	0e                   	push   %cs
 5e5:	3a 0b                	cmp    (%ebx),%cl
 5e7:	3b 0b                	cmp    (%ebx),%ecx
 5e9:	49                   	dec    %ecx
 5ea:	13 00                	adc    (%eax),%eax
 5ec:	00 03                	add    %al,(%ebx)
 5ee:	0f 00 0b             	str    (%ebx)
 5f1:	0b 03                	or     (%ebx),%eax
 5f3:	0e                   	push   %cs
 5f4:	49                   	dec    %ecx
 5f5:	13 00                	adc    (%eax),%eax
 5f7:	00 04 24             	add    %al,(%esp)
 5fa:	00 0b                	add    %cl,(%ebx)
 5fc:	0b 3e                	or     (%esi),%edi
 5fe:	0b 03                	or     (%ebx),%eax
 600:	0e                   	push   %cs
 601:	00 00                	add    %al,(%eax)
 603:	05 04 01 0b 0b       	add    $0xb0b0104,%eax
 608:	3a 0b                	cmp    (%ebx),%cl
 60a:	3b 0b                	cmp    (%ebx),%ecx
 60c:	01 13                	add    %edx,(%ebx)
 60e:	00 00                	add    %al,(%eax)
 610:	06                   	push   %es
 611:	28 00                	sub    %al,(%eax)
 613:	03 0e                	add    (%esi),%ecx
 615:	1c 0d                	sbb    $0xd,%al
 617:	00 00                	add    %al,(%eax)
 619:	07                   	pop    %es
 61a:	2e 01 03             	add    %eax,%cs:(%ebx)
 61d:	0e                   	push   %cs
 61e:	3a 0b                	cmp    (%ebx),%cl
 620:	3b 0b                	cmp    (%ebx),%ecx
 622:	11 01                	adc    %eax,(%ecx)
 624:	12 01                	adc    (%ecx),%al
 626:	40                   	inc    %eax
 627:	06                   	push   %es
 628:	01 13                	add    %edx,(%ebx)
 62a:	00 00                	add    %al,(%eax)
 62c:	08 05 00 03 08 3a    	or     %al,0x3a080300
 632:	0b 3b                	or     (%ebx),%edi
 634:	0b 49 13             	or     0x13(%ecx),%ecx
 637:	02 06                	add    (%esi),%al
 639:	00 00                	add    %al,(%eax)
 63b:	09 05 00 03 0e 3a    	or     %eax,0x3a0e0300
 641:	0b 3b                	or     (%ebx),%edi
 643:	0b 49 13             	or     0x13(%ecx),%ecx
 646:	02 06                	add    (%esi),%al
 648:	00 00                	add    %al,(%eax)
 64a:	0a 05 00 03 0e 3a    	or     0x3a0e0300,%al
 650:	0b 3b                	or     (%ebx),%edi
 652:	0b 49 13             	or     0x13(%ecx),%ecx
 655:	02 0a                	add    (%edx),%cl
 657:	00 00                	add    %al,(%eax)
 659:	0b 34 00             	or     (%eax,%eax,1),%esi
 65c:	03 08                	add    (%eax),%ecx
 65e:	3a 0b                	cmp    (%ebx),%cl
 660:	3b 0b                	cmp    (%ebx),%ecx
 662:	49                   	dec    %ecx
 663:	13 02                	adc    (%edx),%eax
 665:	0a 00                	or     (%eax),%al
 667:	00 0c 34             	add    %cl,(%esp,%esi,1)
 66a:	00 03                	add    %al,(%ebx)
 66c:	08 3a                	or     %bh,(%edx)
 66e:	0b 3b                	or     (%ebx),%edi
 670:	0b 49 13             	or     0x13(%ecx),%ecx
 673:	02 06                	add    (%esi),%al
 675:	00 00                	add    %al,(%eax)
 677:	0d 24 00 0b 0b       	or     $0xb0b0024,%eax
 67c:	3e 0b 03             	or     %ds:(%ebx),%eax
 67f:	08 00                	or     %al,(%eax)
 681:	00 0e                	add    %cl,(%esi)
 683:	15 01 01 13 00       	adc    $0x130101,%eax
 688:	00 0f                	add    %cl,(%edi)
 68a:	18 00                	sbb    %al,(%eax)
 68c:	00 00                	add    %al,(%eax)
 68e:	10 0f                	adc    %cl,(%edi)
 690:	00 0b                	add    %cl,(%ebx)
 692:	0b 49 13             	or     0x13(%ecx),%ecx
 695:	00 00                	add    %al,(%eax)
 697:	11 01                	adc    %eax,(%ecx)
 699:	01 49 13             	add    %ecx,0x13(%ecx)
 69c:	01 13                	add    %edx,(%ebx)
 69e:	00 00                	add    %al,(%eax)
 6a0:	12 21                	adc    (%ecx),%ah
 6a2:	00 49 13             	add    %cl,0x13(%ecx)
 6a5:	2f                   	das    
 6a6:	0b 00                	or     (%eax),%eax
 6a8:	00 13                	add    %dl,(%ebx)
 6aa:	2e 01 3f             	add    %edi,%cs:(%edi)
 6ad:	0c 03                	or     $0x3,%al
 6af:	0e                   	push   %cs
 6b0:	3a 0b                	cmp    (%ebx),%cl
 6b2:	3b 0b                	cmp    (%ebx),%ecx
 6b4:	27                   	daa    
 6b5:	0c 11                	or     $0x11,%al
 6b7:	01 12                	add    %edx,(%edx)
 6b9:	01 40 06             	add    %eax,0x6(%eax)
 6bc:	01 13                	add    %edx,(%ebx)
 6be:	00 00                	add    %al,(%eax)
 6c0:	14 34                	adc    $0x34,%al
 6c2:	00 03                	add    %al,(%ebx)
 6c4:	0e                   	push   %cs
 6c5:	3a 0b                	cmp    (%ebx),%cl
 6c7:	3b 0b                	cmp    (%ebx),%ecx
 6c9:	49                   	dec    %ecx
 6ca:	13 02                	adc    (%edx),%eax
 6cc:	06                   	push   %es
 6cd:	00 00                	add    %al,(%eax)
 6cf:	15 0a 00 03 0e       	adc    $0xe03000a,%eax
 6d4:	3a 0b                	cmp    (%ebx),%cl
 6d6:	3b 05 11 01 00 00    	cmp    0x111,%eax
 6dc:	16                   	push   %ss
 6dd:	0b 01                	or     (%ecx),%eax
 6df:	55                   	push   %ebp
 6e0:	06                   	push   %es
 6e1:	01 13                	add    %edx,(%ebx)
 6e3:	00 00                	add    %al,(%eax)
 6e5:	17                   	pop    %ss
 6e6:	34 00                	xor    $0x0,%al
 6e8:	03 08                	add    (%eax),%ecx
 6ea:	3a 0b                	cmp    (%ebx),%cl
 6ec:	3b 05 49 13 02 0a    	cmp    0xa021349,%eax
 6f2:	00 00                	add    %al,(%eax)
 6f4:	18 34 00             	sbb    %dh,(%eax,%eax,1)
 6f7:	03 08                	add    (%eax),%ecx
 6f9:	3a 0b                	cmp    (%ebx),%cl
 6fb:	3b 05 49 13 02 06    	cmp    0x6021349,%eax
 701:	00 00                	add    %al,(%eax)
 703:	19 34 00             	sbb    %esi,(%eax,%eax,1)
 706:	03 0e                	add    (%esi),%ecx
 708:	3a 0b                	cmp    (%ebx),%cl
 70a:	3b 05 49 13 02 0a    	cmp    0xa021349,%eax
 710:	00 00                	add    %al,(%eax)
 712:	1a 34 00             	sbb    (%eax,%eax,1),%dh
 715:	03 0e                	add    (%esi),%ecx
 717:	3a 0b                	cmp    (%ebx),%cl
 719:	3b 05 49 13 02 06    	cmp    0x6021349,%eax
 71f:	00 00                	add    %al,(%eax)
 721:	1b 0b                	sbb    (%ebx),%ecx
 723:	01 11                	add    %edx,(%ecx)
 725:	01 12                	add    %edx,(%edx)
 727:	01 01                	add    %eax,(%ecx)
 729:	13 00                	adc    (%eax),%eax
 72b:	00 1c 0b             	add    %bl,(%ebx,%ecx,1)
 72e:	01 11                	add    %edx,(%ecx)
 730:	01 12                	add    %edx,(%edx)
 732:	01 00                	add    %eax,(%eax)
 734:	00 1d 13 01 0b 0b    	add    %bl,0xb0b0113
 73a:	3a 0b                	cmp    (%ebx),%cl
 73c:	3b 05 01 13 00 00    	cmp    0x1301,%eax
 742:	1e                   	push   %ds
 743:	0d 00 03 0e 3a       	or     $0x3a0e0300,%eax
 748:	0b 3b                	or     (%ebx),%edi
 74a:	05 49 13 0b 0b       	add    $0xb0b1349,%eax
 74f:	0d 0b 0c 0b 38       	or     $0x380b0c0b,%eax
 754:	0a 00                	or     (%eax),%al
 756:	00 1f                	add    %bl,(%edi)
 758:	16                   	push   %ss
 759:	00 03                	add    %al,(%ebx)
 75b:	0e                   	push   %cs
 75c:	3a 0b                	cmp    (%ebx),%cl
 75e:	3b 05 49 13 00 00    	cmp    0x1349,%eax
 764:	20 0d 00 03 0e 3a    	and    %cl,0x3a0e0300
 76a:	0b 3b                	or     (%ebx),%edi
 76c:	05 49 13 38 0a       	add    $0xa381349,%eax
 771:	00 00                	add    %al,(%eax)
 773:	21 0d 00 03 08 3a    	and    %ecx,0x3a080300
 779:	0b 3b                	or     (%ebx),%edi
 77b:	05 49 13 38 0a       	add    $0xa381349,%eax
 780:	00 00                	add    %al,(%eax)
 782:	22 17                	and    (%edi),%dl
 784:	01 03                	add    %eax,(%ebx)
 786:	0e                   	push   %cs
 787:	0b 0b                	or     (%ebx),%ecx
 789:	3a 0b                	cmp    (%ebx),%cl
 78b:	3b 05 01 13 00 00    	cmp    0x1301,%eax
 791:	23 0d 00 03 08 3a    	and    0x3a080300,%ecx
 797:	0b 3b                	or     (%ebx),%edi
 799:	05 49 13 00 00       	add    $0x1349,%eax
 79e:	24 34                	and    $0x34,%al
 7a0:	00 03                	add    %al,(%ebx)
 7a2:	08 3a                	or     %bh,(%edx)
 7a4:	0b 3b                	or     (%ebx),%edi
 7a6:	05 49 13 00 00       	add    $0x1349,%eax
 7ab:	25 26 00 49 13       	and    $0x13490026,%eax
 7b0:	00 00                	add    %al,(%eax)
 7b2:	26                   	es
 7b3:	34 00                	xor    $0x0,%al
 7b5:	03 0e                	add    (%esi),%ecx
 7b7:	3a 0b                	cmp    (%ebx),%cl
 7b9:	3b 0b                	cmp    (%ebx),%ecx
 7bb:	49                   	dec    %ecx
 7bc:	13 02                	adc    (%edx),%eax
 7be:	0a 00                	or     (%eax),%al
 7c0:	00 27                	add    %ah,(%edi)
 7c2:	34 00                	xor    $0x0,%al
 7c4:	03 0e                	add    (%esi),%ecx
 7c6:	3a 0b                	cmp    (%ebx),%cl
 7c8:	3b 0b                	cmp    (%ebx),%ecx
 7ca:	49                   	dec    %ecx
 7cb:	13 3f                	adc    (%edi),%edi
 7cd:	0c 3c                	or     $0x3c,%al
 7cf:	0c 00                	or     $0x0,%al
 7d1:	00 28                	add    %ch,(%eax)
 7d3:	34 00                	xor    $0x0,%al
 7d5:	03 0e                	add    (%esi),%ecx
 7d7:	3a 0b                	cmp    (%ebx),%cl
 7d9:	3b 0b                	cmp    (%ebx),%ecx
 7db:	49                   	dec    %ecx
 7dc:	13 3f                	adc    (%edi),%edi
 7de:	0c 02                	or     $0x2,%al
 7e0:	0a 00                	or     (%eax),%al
 7e2:	00 00                	add    %al,(%eax)
 7e4:	01 11                	add    %edx,(%ecx)
 7e6:	01 25 0e 13 0b 03    	add    %esp,0x30b130e
 7ec:	0e                   	push   %cs
 7ed:	1b 0e                	sbb    (%esi),%ecx
 7ef:	11 01                	adc    %eax,(%ecx)
 7f1:	12 01                	adc    (%ecx),%al
 7f3:	10 06                	adc    %al,(%esi)
 7f5:	00 00                	add    %al,(%eax)
 7f7:	02 24 00             	add    (%eax,%eax,1),%ah
 7fa:	0b 0b                	or     (%ebx),%ecx
 7fc:	3e 0b 03             	or     %ds:(%ebx),%eax
 7ff:	0e                   	push   %cs
 800:	00 00                	add    %al,(%eax)
 802:	03 2e                	add    (%esi),%ebp
 804:	01 3f                	add    %edi,(%edi)
 806:	0c 03                	or     $0x3,%al
 808:	0e                   	push   %cs
 809:	3a 0b                	cmp    (%ebx),%cl
 80b:	3b 0b                	cmp    (%ebx),%ecx
 80d:	27                   	daa    
 80e:	0c 11                	or     $0x11,%al
 810:	01 12                	add    %edx,(%edx)
 812:	01 40 06             	add    %eax,0x6(%eax)
 815:	01 13                	add    %edx,(%ebx)
 817:	00 00                	add    %al,(%eax)
 819:	04 05                	add    $0x5,%al
 81b:	00 03                	add    %al,(%ebx)
 81d:	0e                   	push   %cs
 81e:	3a 0b                	cmp    (%ebx),%cl
 820:	3b 0b                	cmp    (%ebx),%ecx
 822:	49                   	dec    %ecx
 823:	13 02                	adc    (%edx),%eax
 825:	0a 00                	or     (%eax),%al
 827:	00 05 24 00 0b 0b    	add    %al,0xb0b0024
 82d:	3e 0b 03             	or     %ds:(%ebx),%eax
 830:	08 00                	or     %al,(%eax)
 832:	00 00                	add    %al,(%eax)
 834:	01 11                	add    %edx,(%ecx)
 836:	01 25 0e 13 0b 03    	add    %esp,0x30b130e
 83c:	0e                   	push   %cs
 83d:	1b 0e                	sbb    (%esi),%ecx
 83f:	11 01                	adc    %eax,(%ecx)
 841:	12 01                	adc    (%ecx),%al
 843:	10 06                	adc    %al,(%esi)
 845:	00 00                	add    %al,(%eax)
 847:	02 16                	add    (%esi),%dl
 849:	00 03                	add    %al,(%ebx)
 84b:	0e                   	push   %cs
 84c:	3a 0b                	cmp    (%ebx),%cl
 84e:	3b 0b                	cmp    (%ebx),%ecx
 850:	49                   	dec    %ecx
 851:	13 00                	adc    (%eax),%eax
 853:	00 03                	add    %al,(%ebx)
 855:	24 00                	and    $0x0,%al
 857:	0b 0b                	or     (%ebx),%ecx
 859:	3e 0b 03             	or     %ds:(%ebx),%eax
 85c:	0e                   	push   %cs
 85d:	00 00                	add    %al,(%eax)
 85f:	04 2e                	add    $0x2e,%al
 861:	01 3f                	add    %edi,(%edi)
 863:	0c 03                	or     $0x3,%al
 865:	0e                   	push   %cs
 866:	3a 0b                	cmp    (%ebx),%cl
 868:	3b 0b                	cmp    (%ebx),%ecx
 86a:	27                   	daa    
 86b:	0c 49                	or     $0x49,%al
 86d:	13 11                	adc    (%ecx),%edx
 86f:	01 12                	add    %edx,(%edx)
 871:	01 40 06             	add    %eax,0x6(%eax)
 874:	01 13                	add    %edx,(%ebx)
 876:	00 00                	add    %al,(%eax)
 878:	05 05 00 03 08       	add    $0x8030005,%eax
 87d:	3a 0b                	cmp    (%ebx),%cl
 87f:	3b 0b                	cmp    (%ebx),%ecx
 881:	49                   	dec    %ecx
 882:	13 02                	adc    (%edx),%eax
 884:	0a 00                	or     (%eax),%al
 886:	00 06                	add    %al,(%esi)
 888:	05 00 03 08 3a       	add    $0x3a080300,%eax
 88d:	0b 3b                	or     (%ebx),%edi
 88f:	0b 49 13             	or     0x13(%ecx),%ecx
 892:	02 06                	add    (%esi),%al
 894:	00 00                	add    %al,(%eax)
 896:	07                   	pop    %es
 897:	34 00                	xor    $0x0,%al
 899:	03 08                	add    (%eax),%ecx
 89b:	3a 0b                	cmp    (%ebx),%cl
 89d:	3b 0b                	cmp    (%ebx),%ecx
 89f:	49                   	dec    %ecx
 8a0:	13 02                	adc    (%edx),%eax
 8a2:	06                   	push   %es
 8a3:	00 00                	add    %al,(%eax)
 8a5:	08 0f                	or     %cl,(%edi)
 8a7:	00 0b                	add    %cl,(%ebx)
 8a9:	0b 00                	or     (%eax),%eax
 8ab:	00 09                	add    %cl,(%ecx)
 8ad:	24 00                	and    $0x0,%al
 8af:	0b 0b                	or     (%ebx),%ecx
 8b1:	3e 0b 03             	or     %ds:(%ebx),%eax
 8b4:	08 00                	or     %al,(%eax)
 8b6:	00 0a                	add    %cl,(%edx)
 8b8:	0f 00 0b             	str    (%ebx)
 8bb:	0b 49 13             	or     0x13(%ecx),%ecx
 8be:	00 00                	add    %al,(%eax)
 8c0:	00 01                	add    %al,(%ecx)
 8c2:	11 01                	adc    %eax,(%ecx)
 8c4:	25 0e 13 0b 03       	and    $0x30b130e,%eax
 8c9:	0e                   	push   %cs
 8ca:	1b 0e                	sbb    (%esi),%ecx
 8cc:	11 01                	adc    %eax,(%ecx)
 8ce:	12 01                	adc    (%ecx),%al
 8d0:	10 06                	adc    %al,(%esi)
 8d2:	00 00                	add    %al,(%eax)
 8d4:	02 2e                	add    (%esi),%ch
 8d6:	01 3f                	add    %edi,(%edi)
 8d8:	0c 03                	or     $0x3,%al
 8da:	0e                   	push   %cs
 8db:	3a 0b                	cmp    (%ebx),%cl
 8dd:	3b 0b                	cmp    (%ebx),%ecx
 8df:	49                   	dec    %ecx
 8e0:	13 11                	adc    (%ecx),%edx
 8e2:	01 12                	add    %edx,(%edx)
 8e4:	01 40 06             	add    %eax,0x6(%eax)
 8e7:	01 13                	add    %edx,(%ebx)
 8e9:	00 00                	add    %al,(%eax)
 8eb:	03 05 00 03 0e 3a    	add    0x3a0e0300,%eax
 8f1:	0b 3b                	or     (%ebx),%edi
 8f3:	0b 49 13             	or     0x13(%ecx),%ecx
 8f6:	02 06                	add    (%esi),%al
 8f8:	00 00                	add    %al,(%eax)
 8fa:	04 34                	add    $0x34,%al
 8fc:	00 03                	add    %al,(%ebx)
 8fe:	08 3a                	or     %bh,(%edx)
 900:	0b 3b                	or     (%ebx),%edi
 902:	0b 49 13             	or     0x13(%ecx),%ecx
 905:	02 0a                	add    (%edx),%cl
 907:	00 00                	add    %al,(%eax)
 909:	05 24 00 0b 0b       	add    $0xb0b0024,%eax
 90e:	3e 0b 03             	or     %ds:(%ebx),%eax
 911:	08 00                	or     %al,(%eax)
 913:	00 06                	add    %al,(%esi)
 915:	0f 00 0b             	str    (%ebx)
 918:	0b 49 13             	or     0x13(%ecx),%ecx
 91b:	00 00                	add    %al,(%eax)
 91d:	07                   	pop    %es
 91e:	24 00                	and    $0x0,%al
 920:	0b 0b                	or     (%ebx),%ecx
 922:	3e 0b 03             	or     %ds:(%ebx),%eax
 925:	0e                   	push   %cs
 926:	00 00                	add    %al,(%eax)
 928:	00 01                	add    %al,(%ecx)
 92a:	11 01                	adc    %eax,(%ecx)
 92c:	25 0e 13 0b 03       	and    $0x30b130e,%eax
 931:	0e                   	push   %cs
 932:	1b 0e                	sbb    (%esi),%ecx
 934:	11 01                	adc    %eax,(%ecx)
 936:	12 01                	adc    (%ecx),%al
 938:	10 06                	adc    %al,(%esi)
 93a:	00 00                	add    %al,(%eax)
 93c:	02 16                	add    (%esi),%dl
 93e:	00 03                	add    %al,(%ebx)
 940:	0e                   	push   %cs
 941:	3a 0b                	cmp    (%ebx),%cl
 943:	3b 0b                	cmp    (%ebx),%ecx
 945:	49                   	dec    %ecx
 946:	13 00                	adc    (%eax),%eax
 948:	00 03                	add    %al,(%ebx)
 94a:	24 00                	and    $0x0,%al
 94c:	0b 0b                	or     (%ebx),%ecx
 94e:	3e 0b 03             	or     %ds:(%ebx),%eax
 951:	0e                   	push   %cs
 952:	00 00                	add    %al,(%eax)
 954:	04 2e                	add    $0x2e,%al
 956:	01 3f                	add    %edi,(%edi)
 958:	0c 03                	or     $0x3,%al
 95a:	0e                   	push   %cs
 95b:	3a 0b                	cmp    (%ebx),%cl
 95d:	3b 0b                	cmp    (%ebx),%ecx
 95f:	27                   	daa    
 960:	0c 11                	or     $0x11,%al
 962:	01 12                	add    %edx,(%edx)
 964:	01 40 06             	add    %eax,0x6(%eax)
 967:	01 13                	add    %edx,(%ebx)
 969:	00 00                	add    %al,(%eax)
 96b:	05 05 00 03 0e       	add    $0xe030005,%eax
 970:	3a 0b                	cmp    (%ebx),%cl
 972:	3b 0b                	cmp    (%ebx),%ecx
 974:	49                   	dec    %ecx
 975:	13 02                	adc    (%edx),%eax
 977:	0a 00                	or     (%eax),%al
 979:	00 06                	add    %al,(%esi)
 97b:	0f 00 0b             	str    (%ebx)
 97e:	0b 00                	or     (%eax),%eax
 980:	00 07                	add    %al,(%edi)
 982:	2e 01 3f             	add    %edi,%cs:(%edi)
 985:	0c 03                	or     $0x3,%al
 987:	0e                   	push   %cs
 988:	3a 0b                	cmp    (%ebx),%cl
 98a:	3b 0b                	cmp    (%ebx),%ecx
 98c:	27                   	daa    
 98d:	0c 49                	or     $0x49,%al
 98f:	13 11                	adc    (%ecx),%edx
 991:	01 12                	add    %edx,(%edx)
 993:	01 40 06             	add    %eax,0x6(%eax)
 996:	01 13                	add    %edx,(%ebx)
 998:	00 00                	add    %al,(%eax)
 99a:	08 34 00             	or     %dh,(%eax,%eax,1)
 99d:	03 08                	add    (%eax),%ecx
 99f:	3a 0b                	cmp    (%ebx),%cl
 9a1:	3b 0b                	cmp    (%ebx),%ecx
 9a3:	49                   	dec    %ecx
 9a4:	13 02                	adc    (%edx),%eax
 9a6:	06                   	push   %es
 9a7:	00 00                	add    %al,(%eax)
 9a9:	09 34 00             	or     %esi,(%eax,%eax,1)
 9ac:	03 0e                	add    (%esi),%ecx
 9ae:	3a 0b                	cmp    (%ebx),%cl
 9b0:	3b 0b                	cmp    (%ebx),%ecx
 9b2:	49                   	dec    %ecx
 9b3:	13 02                	adc    (%edx),%eax
 9b5:	0a 00                	or     (%eax),%al
 9b7:	00 00                	add    %al,(%eax)
 9b9:	01 11                	add    %edx,(%ecx)
 9bb:	01 25 0e 13 0b 03    	add    %esp,0x30b130e
 9c1:	0e                   	push   %cs
 9c2:	1b 0e                	sbb    (%esi),%ecx
 9c4:	11 01                	adc    %eax,(%ecx)
 9c6:	12 01                	adc    (%ecx),%al
 9c8:	10 06                	adc    %al,(%esi)
 9ca:	00 00                	add    %al,(%eax)
 9cc:	02 24 00             	add    (%eax,%eax,1),%ah
 9cf:	0b 0b                	or     (%ebx),%ecx
 9d1:	3e 0b 03             	or     %ds:(%ebx),%eax
 9d4:	0e                   	push   %cs
 9d5:	00 00                	add    %al,(%eax)
 9d7:	03 2e                	add    (%esi),%ebp
 9d9:	01 03                	add    %eax,(%ebx)
 9db:	08 3a                	or     %bh,(%edx)
 9dd:	0b 3b                	or     (%ebx),%edi
 9df:	0b 27                	or     (%edi),%esp
 9e1:	0c 49                	or     $0x49,%al
 9e3:	13 20                	adc    (%eax),%esp
 9e5:	0b 01                	or     (%ecx),%eax
 9e7:	13 00                	adc    (%eax),%eax
 9e9:	00 04 05 00 03 08 3a 	add    %al,0x3a080300(,%eax,1)
 9f0:	0b 3b                	or     (%ebx),%edi
 9f2:	0b 49 13             	or     0x13(%ecx),%ecx
 9f5:	00 00                	add    %al,(%eax)
 9f7:	05 2e 01 03 0e       	add    $0xe03012e,%eax
 9fc:	3a 0b                	cmp    (%ebx),%cl
 9fe:	3b 0b                	cmp    (%ebx),%ecx
 a00:	27                   	daa    
 a01:	0c 11                	or     $0x11,%al
 a03:	01 12                	add    %edx,(%edx)
 a05:	01 40 06             	add    %eax,0x6(%eax)
 a08:	01 13                	add    %edx,(%ebx)
 a0a:	00 00                	add    %al,(%eax)
 a0c:	06                   	push   %es
 a0d:	05 00 03 08 3a       	add    $0x3a080300,%eax
 a12:	0b 3b                	or     (%ebx),%edi
 a14:	0b 49 13             	or     0x13(%ecx),%ecx
 a17:	02 06                	add    (%esi),%al
 a19:	00 00                	add    %al,(%eax)
 a1b:	07                   	pop    %es
 a1c:	05 00 03 0e 3a       	add    $0x3a0e0300,%eax
 a21:	0b 3b                	or     (%ebx),%edi
 a23:	0b 49 13             	or     0x13(%ecx),%ecx
 a26:	02 06                	add    (%esi),%al
 a28:	00 00                	add    %al,(%eax)
 a2a:	08 34 00             	or     %dh,(%eax,%eax,1)
 a2d:	03 0e                	add    (%esi),%ecx
 a2f:	3a 0b                	cmp    (%ebx),%cl
 a31:	3b 0b                	cmp    (%ebx),%ecx
 a33:	49                   	dec    %ecx
 a34:	13 02                	adc    (%edx),%eax
 a36:	06                   	push   %es
 a37:	00 00                	add    %al,(%eax)
 a39:	09 0f                	or     %ecx,(%edi)
 a3b:	00 0b                	add    %cl,(%ebx)
 a3d:	0b 00                	or     (%eax),%eax
 a3f:	00 0a                	add    %cl,(%edx)
 a41:	24 00                	and    $0x0,%al
 a43:	0b 0b                	or     (%ebx),%ecx
 a45:	3e 0b 03             	or     %ds:(%ebx),%eax
 a48:	08 00                	or     %al,(%eax)
 a4a:	00 0b                	add    %cl,(%ebx)
 a4c:	2e 01 03             	add    %eax,%cs:(%ebx)
 a4f:	0e                   	push   %cs
 a50:	3a 0b                	cmp    (%ebx),%cl
 a52:	3b 05 27 0c 49 13    	cmp    0x13490c27,%eax
 a58:	11 01                	adc    %eax,(%ecx)
 a5a:	12 01                	adc    (%ecx),%al
 a5c:	40                   	inc    %eax
 a5d:	06                   	push   %es
 a5e:	01 13                	add    %edx,(%ebx)
 a60:	00 00                	add    %al,(%eax)
 a62:	0c 05                	or     $0x5,%al
 a64:	00 03                	add    %al,(%ebx)
 a66:	08 3a                	or     %bh,(%edx)
 a68:	0b 3b                	or     (%ebx),%edi
 a6a:	05 49 13 02 06       	add    $0x6021349,%eax
 a6f:	00 00                	add    %al,(%eax)
 a71:	0d 34 00 03 0e       	or     $0xe030034,%eax
 a76:	3a 0b                	cmp    (%ebx),%cl
 a78:	3b 05 49 13 02 06    	cmp    0x6021349,%eax
 a7e:	00 00                	add    %al,(%eax)
 a80:	0e                   	push   %cs
 a81:	2e 01 3f             	add    %edi,%cs:(%edi)
 a84:	0c 03                	or     $0x3,%al
 a86:	0e                   	push   %cs
 a87:	3a 0b                	cmp    (%ebx),%cl
 a89:	3b 0b                	cmp    (%ebx),%ecx
 a8b:	27                   	daa    
 a8c:	0c 11                	or     $0x11,%al
 a8e:	01 12                	add    %edx,(%edx)
 a90:	01 40 06             	add    %eax,0x6(%eax)
 a93:	01 13                	add    %edx,(%ebx)
 a95:	00 00                	add    %al,(%eax)
 a97:	0f 05                	syscall 
 a99:	00 03                	add    %al,(%ebx)
 a9b:	08 3a                	or     %bh,(%edx)
 a9d:	0b 3b                	or     (%ebx),%edi
 a9f:	0b 49 13             	or     0x13(%ecx),%ecx
 aa2:	02 0a                	add    (%edx),%cl
 aa4:	00 00                	add    %al,(%eax)
 aa6:	10 0b                	adc    %cl,(%ebx)
 aa8:	01 11                	add    %edx,(%ecx)
 aaa:	01 12                	add    %edx,(%edx)
 aac:	01 00                	add    %eax,(%eax)
 aae:	00 11                	add    %dl,(%ecx)
 ab0:	2e 01 03             	add    %eax,%cs:(%ebx)
 ab3:	0e                   	push   %cs
 ab4:	3a 0b                	cmp    (%ebx),%cl
 ab6:	3b 05 27 0c 11 01    	cmp    0x1110c27,%eax
 abc:	12 01                	adc    (%ecx),%al
 abe:	40                   	inc    %eax
 abf:	06                   	push   %es
 ac0:	01 13                	add    %edx,(%ebx)
 ac2:	00 00                	add    %al,(%eax)
 ac4:	12 05 00 03 0e 3a    	adc    0x3a0e0300,%al
 aca:	0b 3b                	or     (%ebx),%edi
 acc:	0b 49 13             	or     0x13(%ecx),%ecx
 acf:	02 0a                	add    (%edx),%cl
 ad1:	00 00                	add    %al,(%eax)
 ad3:	13 34 00             	adc    (%eax,%eax,1),%esi
 ad6:	03 08                	add    (%eax),%ecx
 ad8:	3a 0b                	cmp    (%ebx),%cl
 ada:	3b 0b                	cmp    (%ebx),%ecx
 adc:	49                   	dec    %ecx
 add:	13 02                	adc    (%edx),%eax
 adf:	06                   	push   %es
 ae0:	00 00                	add    %al,(%eax)
 ae2:	14 0f                	adc    $0xf,%al
 ae4:	00 0b                	add    %cl,(%ebx)
 ae6:	0b 49 13             	or     0x13(%ecx),%ecx
 ae9:	00 00                	add    %al,(%eax)
 aeb:	15 2e 01 03 0e       	adc    $0xe03012e,%eax
 af0:	3a 0b                	cmp    (%ebx),%cl
 af2:	3b 0b                	cmp    (%ebx),%ecx
 af4:	27                   	daa    
 af5:	0c 49                	or     $0x49,%al
 af7:	13 11                	adc    (%ecx),%edx
 af9:	01 12                	add    %edx,(%edx)
 afb:	01 40 06             	add    %eax,0x6(%eax)
 afe:	01 13                	add    %edx,(%ebx)
 b00:	00 00                	add    %al,(%eax)
 b02:	16                   	push   %ss
 b03:	2e 01 03             	add    %eax,%cs:(%ebx)
 b06:	0e                   	push   %cs
 b07:	3a 0b                	cmp    (%ebx),%cl
 b09:	3b 0b                	cmp    (%ebx),%ecx
 b0b:	27                   	daa    
 b0c:	0c 49                	or     $0x49,%al
 b0e:	13 20                	adc    (%eax),%esp
 b10:	0b 01                	or     (%ecx),%eax
 b12:	13 00                	adc    (%eax),%eax
 b14:	00 17                	add    %dl,(%edi)
 b16:	05 00 03 0e 3a       	add    $0x3a0e0300,%eax
 b1b:	0b 3b                	or     (%ebx),%edi
 b1d:	0b 49 13             	or     0x13(%ecx),%ecx
 b20:	00 00                	add    %al,(%eax)
 b22:	18 34 00             	sbb    %dh,(%eax,%eax,1)
 b25:	03 08                	add    (%eax),%ecx
 b27:	3a 0b                	cmp    (%ebx),%cl
 b29:	3b 0b                	cmp    (%ebx),%ecx
 b2b:	49                   	dec    %ecx
 b2c:	13 00                	adc    (%eax),%eax
 b2e:	00 19                	add    %bl,(%ecx)
 b30:	2e 01 3f             	add    %edi,%cs:(%edi)
 b33:	0c 03                	or     $0x3,%al
 b35:	0e                   	push   %cs
 b36:	3a 0b                	cmp    (%ebx),%cl
 b38:	3b 0b                	cmp    (%ebx),%ecx
 b3a:	27                   	daa    
 b3b:	0c 49                	or     $0x49,%al
 b3d:	13 11                	adc    (%ecx),%edx
 b3f:	01 12                	add    %edx,(%edx)
 b41:	01 40 06             	add    %eax,0x6(%eax)
 b44:	01 13                	add    %edx,(%ebx)
 b46:	00 00                	add    %al,(%eax)
 b48:	1a 34 00             	sbb    (%eax,%eax,1),%dh
 b4b:	03 0e                	add    (%esi),%ecx
 b4d:	3a 0b                	cmp    (%ebx),%cl
 b4f:	3b 0b                	cmp    (%ebx),%ecx
 b51:	49                   	dec    %ecx
 b52:	13 00                	adc    (%eax),%eax
 b54:	00 1b                	add    %bl,(%ebx)
 b56:	1d 01 31 13 11       	sbb    $0x11133101,%eax
 b5b:	01 12                	add    %edx,(%edx)
 b5d:	01 58 0b             	add    %ebx,0xb(%eax)
 b60:	59                   	pop    %ecx
 b61:	0b 00                	or     (%eax),%eax
 b63:	00 1c 05 00 31 13 02 	add    %bl,0x2133100(,%eax,1)
 b6a:	06                   	push   %es
 b6b:	00 00                	add    %al,(%eax)
 b6d:	1d 34 00 31 13       	sbb    $0x13310034,%eax
 b72:	02 06                	add    (%esi),%al
 b74:	00 00                	add    %al,(%eax)
 b76:	1e                   	push   %ds
 b77:	2e 00 3f             	add    %bh,%cs:(%edi)
 b7a:	0c 03                	or     $0x3,%al
 b7c:	0e                   	push   %cs
 b7d:	3a 0b                	cmp    (%ebx),%cl
 b7f:	3b 0b                	cmp    (%ebx),%ecx
 b81:	27                   	daa    
 b82:	0c 49                	or     $0x49,%al
 b84:	13 11                	adc    (%ecx),%edx
 b86:	01 12                	add    %edx,(%edx)
 b88:	01 40 06             	add    %eax,0x6(%eax)
 b8b:	00 00                	add    %al,(%eax)
 b8d:	1f                   	pop    %ds
 b8e:	34 00                	xor    $0x0,%al
 b90:	03 0e                	add    (%esi),%ecx
 b92:	3a 0b                	cmp    (%ebx),%cl
 b94:	3b 0b                	cmp    (%ebx),%ecx
 b96:	49                   	dec    %ecx
 b97:	13 02                	adc    (%edx),%eax
 b99:	0a 00                	or     (%eax),%al
 b9b:	00 00                	add    %al,(%eax)
 b9d:	01 11                	add    %edx,(%ecx)
 b9f:	01 25 0e 13 0b 03    	add    %esp,0x30b130e
 ba5:	0e                   	push   %cs
 ba6:	1b 0e                	sbb    (%esi),%ecx
 ba8:	11 01                	adc    %eax,(%ecx)
 baa:	12 01                	adc    (%ecx),%al
 bac:	10 06                	adc    %al,(%esi)
 bae:	00 00                	add    %al,(%eax)
 bb0:	02 24 00             	add    (%eax,%eax,1),%ah
 bb3:	0b 0b                	or     (%ebx),%ecx
 bb5:	3e 0b 03             	or     %ds:(%ebx),%eax
 bb8:	0e                   	push   %cs
 bb9:	00 00                	add    %al,(%eax)
 bbb:	03 0f                	add    (%edi),%ecx
 bbd:	00 0b                	add    %cl,(%ebx)
 bbf:	0b 00                	or     (%eax),%eax
 bc1:	00 04 2e             	add    %al,(%esi,%ebp,1)
 bc4:	01 3f                	add    %edi,(%edi)
 bc6:	0c 03                	or     $0x3,%al
 bc8:	0e                   	push   %cs
 bc9:	3a 0b                	cmp    (%ebx),%cl
 bcb:	3b 0b                	cmp    (%ebx),%ecx
 bcd:	27                   	daa    
 bce:	0c 49                	or     $0x49,%al
 bd0:	13 11                	adc    (%ecx),%edx
 bd2:	01 12                	add    %edx,(%edx)
 bd4:	01 40 06             	add    %eax,0x6(%eax)
 bd7:	01 13                	add    %edx,(%ebx)
 bd9:	00 00                	add    %al,(%eax)
 bdb:	05 05 00 03 0e       	add    $0xe030005,%eax
 be0:	3a 0b                	cmp    (%ebx),%cl
 be2:	3b 0b                	cmp    (%ebx),%ecx
 be4:	49                   	dec    %ecx
 be5:	13 02                	adc    (%edx),%eax
 be7:	0a 00                	or     (%eax),%al
 be9:	00 06                	add    %al,(%esi)
 beb:	34 00                	xor    $0x0,%al
 bed:	03 0e                	add    (%esi),%ecx
 bef:	3a 0b                	cmp    (%ebx),%cl
 bf1:	3b 0b                	cmp    (%ebx),%ecx
 bf3:	49                   	dec    %ecx
 bf4:	13 02                	adc    (%edx),%eax
 bf6:	06                   	push   %es
 bf7:	00 00                	add    %al,(%eax)
 bf9:	07                   	pop    %es
 bfa:	0b 01                	or     (%ecx),%eax
 bfc:	11 01                	adc    %eax,(%ecx)
 bfe:	12 01                	adc    (%ecx),%al
 c00:	00 00                	add    %al,(%eax)
 c02:	08 24 00             	or     %ah,(%eax,%eax,1)
 c05:	0b 0b                	or     (%ebx),%ecx
 c07:	3e 0b 03             	or     %ds:(%ebx),%eax
 c0a:	08 00                	or     %al,(%eax)
 c0c:	00 09                	add    %cl,(%ecx)
 c0e:	0f 00 0b             	str    (%ebx)
 c11:	0b 49 13             	or     0x13(%ecx),%ecx
 c14:	00 00                	add    %al,(%eax)
 c16:	0a 2e                	or     (%esi),%ch
 c18:	01 3f                	add    %edi,(%edi)
 c1a:	0c 03                	or     $0x3,%al
 c1c:	0e                   	push   %cs
 c1d:	3a 0b                	cmp    (%ebx),%cl
 c1f:	3b 0b                	cmp    (%ebx),%ecx
 c21:	27                   	daa    
 c22:	0c 11                	or     $0x11,%al
 c24:	01 12                	add    %edx,(%edx)
 c26:	01 40 06             	add    %eax,0x6(%eax)
 c29:	01 13                	add    %edx,(%ebx)
 c2b:	00 00                	add    %al,(%eax)
 c2d:	0b 34 00             	or     (%eax,%eax,1),%esi
 c30:	03 0e                	add    (%esi),%ecx
 c32:	3a 0b                	cmp    (%ebx),%cl
 c34:	3b 0b                	cmp    (%ebx),%ecx
 c36:	49                   	dec    %ecx
 c37:	13 02                	adc    (%edx),%eax
 c39:	0a 00                	or     (%eax),%al
 c3b:	00 0c 34             	add    %cl,(%esp,%esi,1)
 c3e:	00 03                	add    %al,(%ebx)
 c40:	0e                   	push   %cs
 c41:	3a 0b                	cmp    (%ebx),%cl
 c43:	3b 0b                	cmp    (%ebx),%ecx
 c45:	49                   	dec    %ecx
 c46:	13 3f                	adc    (%edi),%edi
 c48:	0c 3c                	or     $0x3c,%al
 c4a:	0c 00                	or     $0x0,%al
 c4c:	00 00                	add    %al,(%eax)
 c4e:	01 11                	add    %edx,(%ecx)
 c50:	01 25 0e 13 0b 03    	add    %esp,0x30b130e
 c56:	0e                   	push   %cs
 c57:	1b 0e                	sbb    (%esi),%ecx
 c59:	11 01                	adc    %eax,(%ecx)
 c5b:	12 01                	adc    (%ecx),%al
 c5d:	10 06                	adc    %al,(%esi)
 c5f:	00 00                	add    %al,(%eax)
 c61:	02 13                	add    (%ebx),%dl
 c63:	01 03                	add    %eax,(%ebx)
 c65:	0e                   	push   %cs
 c66:	0b 0b                	or     (%ebx),%ecx
 c68:	3a 0b                	cmp    (%ebx),%cl
 c6a:	3b 0b                	cmp    (%ebx),%ecx
 c6c:	01 13                	add    %edx,(%ebx)
 c6e:	00 00                	add    %al,(%eax)
 c70:	03 0d 00 03 0e 3a    	add    0x3a0e0300,%ecx
 c76:	0b 3b                	or     (%ebx),%edi
 c78:	0b 49 13             	or     0x13(%ecx),%ecx
 c7b:	38 0a                	cmp    %cl,(%edx)
 c7d:	00 00                	add    %al,(%eax)
 c7f:	04 0d                	add    $0xd,%al
 c81:	00 03                	add    %al,(%ebx)
 c83:	08 3a                	or     %bh,(%edx)
 c85:	0b 3b                	or     (%ebx),%edi
 c87:	0b 49 13             	or     0x13(%ecx),%ecx
 c8a:	38 0a                	cmp    %cl,(%edx)
 c8c:	00 00                	add    %al,(%eax)
 c8e:	05 24 00 0b 0b       	add    $0xb0b0024,%eax
 c93:	3e 0b 03             	or     %ds:(%ebx),%eax
 c96:	0e                   	push   %cs
 c97:	00 00                	add    %al,(%eax)
 c99:	06                   	push   %es
 c9a:	16                   	push   %ss
 c9b:	00 03                	add    %al,(%ebx)
 c9d:	0e                   	push   %cs
 c9e:	3a 0b                	cmp    (%ebx),%cl
 ca0:	3b 0b                	cmp    (%ebx),%ecx
 ca2:	49                   	dec    %ecx
 ca3:	13 00                	adc    (%eax),%eax
 ca5:	00 07                	add    %al,(%edi)
 ca7:	0f 00 0b             	str    (%ebx)
 caa:	0b 49 13             	or     0x13(%ecx),%ecx
 cad:	00 00                	add    %al,(%eax)
 caf:	08 15 01 27 0c 01    	or     %dl,0x10c2701
 cb5:	13 00                	adc    (%eax),%eax
 cb7:	00 09                	add    %cl,(%ecx)
 cb9:	05 00 49 13 00       	add    $0x134900,%eax
 cbe:	00 0a                	add    %cl,(%edx)
 cc0:	0f 00 0b             	str    (%ebx)
 cc3:	0b 00                	or     (%eax),%eax
 cc5:	00 0b                	add    %cl,(%ebx)
 cc7:	2e 01 3f             	add    %edi,%cs:(%edi)
 cca:	0c 03                	or     $0x3,%al
 ccc:	0e                   	push   %cs
 ccd:	3a 0b                	cmp    (%ebx),%cl
 ccf:	3b 0b                	cmp    (%ebx),%ecx
 cd1:	27                   	daa    
 cd2:	0c 49                	or     $0x49,%al
 cd4:	13 11                	adc    (%ecx),%edx
 cd6:	01 12                	add    %edx,(%edx)
 cd8:	01 40 06             	add    %eax,0x6(%eax)
 cdb:	01 13                	add    %edx,(%ebx)
 cdd:	00 00                	add    %al,(%eax)
 cdf:	0c 05                	or     $0x5,%al
 ce1:	00 03                	add    %al,(%ebx)
 ce3:	0e                   	push   %cs
 ce4:	3a 0b                	cmp    (%ebx),%cl
 ce6:	3b 0b                	cmp    (%ebx),%ecx
 ce8:	49                   	dec    %ecx
 ce9:	13 02                	adc    (%edx),%eax
 ceb:	0a 00                	or     (%eax),%al
 ced:	00 0d 24 00 0b 0b    	add    %cl,0xb0b0024
 cf3:	3e 0b 03             	or     %ds:(%ebx),%eax
 cf6:	08 00                	or     %al,(%eax)
 cf8:	00 0e                	add    %cl,(%esi)
 cfa:	2e 01 3f             	add    %edi,%cs:(%edi)
 cfd:	0c 03                	or     $0x3,%al
 cff:	0e                   	push   %cs
 d00:	3a 0b                	cmp    (%ebx),%cl
 d02:	3b 0b                	cmp    (%ebx),%ecx
 d04:	27                   	daa    
 d05:	0c 11                	or     $0x11,%al
 d07:	01 12                	add    %edx,(%edx)
 d09:	01 40 06             	add    %eax,0x6(%eax)
 d0c:	01 13                	add    %edx,(%ebx)
 d0e:	00 00                	add    %al,(%eax)
 d10:	0f 05                	syscall 
 d12:	00 03                	add    %al,(%ebx)
 d14:	08 3a                	or     %bh,(%edx)
 d16:	0b 3b                	or     (%ebx),%edi
 d18:	0b 49 13             	or     0x13(%ecx),%ecx
 d1b:	02 0a                	add    (%edx),%cl
 d1d:	00 00                	add    %al,(%eax)
 d1f:	10 2e                	adc    %ch,(%esi)
 d21:	00 3f                	add    %bh,(%edi)
 d23:	0c 03                	or     $0x3,%al
 d25:	0e                   	push   %cs
 d26:	3a 0b                	cmp    (%ebx),%cl
 d28:	3b 0b                	cmp    (%ebx),%ecx
 d2a:	27                   	daa    
 d2b:	0c 49                	or     $0x49,%al
 d2d:	13 11                	adc    (%ecx),%edx
 d2f:	01 12                	add    %edx,(%edx)
 d31:	01 40 06             	add    %eax,0x6(%eax)
 d34:	00 00                	add    %al,(%eax)
 d36:	11 2e                	adc    %ebp,(%esi)
 d38:	00 3f                	add    %bh,(%edi)
 d3a:	0c 03                	or     $0x3,%al
 d3c:	0e                   	push   %cs
 d3d:	3a 0b                	cmp    (%ebx),%cl
 d3f:	3b 0b                	cmp    (%ebx),%ecx
 d41:	27                   	daa    
 d42:	0c 11                	or     $0x11,%al
 d44:	01 12                	add    %edx,(%edx)
 d46:	01 40 06             	add    %eax,0x6(%eax)
 d49:	00 00                	add    %al,(%eax)
 d4b:	12 2e                	adc    (%esi),%ch
 d4d:	01 3f                	add    %edi,(%edi)
 d4f:	0c 03                	or     $0x3,%al
 d51:	0e                   	push   %cs
 d52:	3a 0b                	cmp    (%ebx),%cl
 d54:	3b 0b                	cmp    (%ebx),%ecx
 d56:	27                   	daa    
 d57:	0c 11                	or     $0x11,%al
 d59:	01 12                	add    %edx,(%edx)
 d5b:	01 40 06             	add    %eax,0x6(%eax)
 d5e:	00 00                	add    %al,(%eax)
 d60:	00 01                	add    %al,(%ecx)
 d62:	11 00                	adc    %eax,(%eax)
 d64:	10 06                	adc    %al,(%esi)
 d66:	11 01                	adc    %eax,(%ecx)
 d68:	12 01                	adc    (%ecx),%al
 d6a:	03 08                	add    (%eax),%ecx
 d6c:	1b 08                	sbb    (%eax),%ecx
 d6e:	25 08 13 05 00       	and    $0x51308,%eax
 d73:	00 00                	add    %al,(%eax)
 d75:	01 11                	add    %edx,(%ecx)
 d77:	00 10                	add    %dl,(%eax)
 d79:	06                   	push   %es
 d7a:	11 01                	adc    %eax,(%ecx)
 d7c:	12 01                	adc    (%ecx),%al
 d7e:	03 08                	add    (%eax),%ecx
 d80:	1b 08                	sbb    (%eax),%ecx
 d82:	25 08 13 05 00       	and    $0x51308,%eax
 d87:	00 00                	add    %al,(%eax)
 d89:	01 11                	add    %edx,(%ecx)
 d8b:	01 25 0e 13 0b 03    	add    %esp,0x30b130e
 d91:	0e                   	push   %cs
 d92:	1b 0e                	sbb    (%esi),%ecx
 d94:	11 01                	adc    %eax,(%ecx)
 d96:	12 01                	adc    (%ecx),%al
 d98:	10 06                	adc    %al,(%esi)
 d9a:	00 00                	add    %al,(%eax)
 d9c:	02 2e                	add    (%esi),%ch
 d9e:	01 3f                	add    %edi,(%edi)
 da0:	0c 03                	or     $0x3,%al
 da2:	0e                   	push   %cs
 da3:	3a 0b                	cmp    (%ebx),%cl
 da5:	3b 0b                	cmp    (%ebx),%ecx
 da7:	27                   	daa    
 da8:	0c 11                	or     $0x11,%al
 daa:	01 12                	add    %edx,(%edx)
 dac:	01 40 06             	add    %eax,0x6(%eax)
 daf:	01 13                	add    %edx,(%ebx)
 db1:	00 00                	add    %al,(%eax)
 db3:	03 05 00 03 0e 3a    	add    0x3a0e0300,%eax
 db9:	0b 3b                	or     (%ebx),%edi
 dbb:	0b 49 13             	or     0x13(%ecx),%ecx
 dbe:	02 0a                	add    (%edx),%cl
 dc0:	00 00                	add    %al,(%eax)
 dc2:	04 34                	add    $0x34,%al
 dc4:	00 03                	add    %al,(%ebx)
 dc6:	0e                   	push   %cs
 dc7:	49                   	dec    %ecx
 dc8:	13 34 0c             	adc    (%esp,%ecx,1),%esi
 dcb:	02 0a                	add    (%edx),%cl
 dcd:	00 00                	add    %al,(%eax)
 dcf:	05 0f 00 0b 0b       	add    $0xb0b000f,%eax
 dd4:	00 00                	add    %al,(%eax)
 dd6:	06                   	push   %es
 dd7:	01 01                	add    %eax,(%ecx)
 dd9:	49                   	dec    %ecx
 dda:	13 01                	adc    (%ecx),%eax
 ddc:	13 00                	adc    (%eax),%eax
 dde:	00 07                	add    %al,(%edi)
 de0:	21 00                	and    %eax,(%eax)
 de2:	49                   	dec    %ecx
 de3:	13 2f                	adc    (%edi),%ebp
 de5:	0b 00                	or     (%eax),%eax
 de7:	00 08                	add    %cl,(%eax)
 de9:	24 00                	and    $0x0,%al
 deb:	0b 0b                	or     (%ebx),%ecx
 ded:	3e 0b 03             	or     %ds:(%ebx),%eax
 df0:	0e                   	push   %cs
 df1:	00 00                	add    %al,(%eax)
 df3:	09 26                	or     %esp,(%esi)
 df5:	00 49 13             	add    %cl,0x13(%ecx)
 df8:	00 00                	add    %al,(%eax)
 dfa:	00 01                	add    %al,(%ecx)
 dfc:	11 00                	adc    %eax,(%eax)
 dfe:	10 06                	adc    %al,(%esi)
 e00:	11 01                	adc    %eax,(%ecx)
 e02:	12 01                	adc    (%ecx),%al
 e04:	03 08                	add    (%eax),%ecx
 e06:	1b 08                	sbb    (%eax),%ecx
 e08:	25 08 13 05 00       	and    $0x51308,%eax
 e0d:	00 00                	add    %al,(%eax)
 e0f:	01 11                	add    %edx,(%ecx)
 e11:	00 10                	add    %dl,(%eax)
 e13:	06                   	push   %es
 e14:	11 01                	adc    %eax,(%ecx)
 e16:	12 01                	adc    (%ecx),%al
 e18:	03 08                	add    (%eax),%ecx
 e1a:	1b 08                	sbb    (%eax),%ecx
 e1c:	25 08 13 05 00       	and    $0x51308,%eax
 e21:	00 00                	add    %al,(%eax)
 e23:	01 11                	add    %edx,(%ecx)
 e25:	01 25 0e 13 0b 03    	add    %esp,0x30b130e
 e2b:	0e                   	push   %cs
 e2c:	1b 0e                	sbb    (%esi),%ecx
 e2e:	11 01                	adc    %eax,(%ecx)
 e30:	12 01                	adc    (%ecx),%al
 e32:	10 06                	adc    %al,(%esi)
 e34:	00 00                	add    %al,(%eax)
 e36:	02 16                	add    (%esi),%dl
 e38:	00 03                	add    %al,(%ebx)
 e3a:	0e                   	push   %cs
 e3b:	3a 0b                	cmp    (%ebx),%cl
 e3d:	3b 0b                	cmp    (%ebx),%ecx
 e3f:	49                   	dec    %ecx
 e40:	13 00                	adc    (%eax),%eax
 e42:	00 03                	add    %al,(%ebx)
 e44:	24 00                	and    $0x0,%al
 e46:	0b 0b                	or     (%ebx),%ecx
 e48:	3e 0b 03             	or     %ds:(%ebx),%eax
 e4b:	0e                   	push   %cs
 e4c:	00 00                	add    %al,(%eax)
 e4e:	04 17                	add    $0x17,%al
 e50:	01 03                	add    %eax,(%ebx)
 e52:	08 0b                	or     %cl,(%ebx)
 e54:	0b 3a                	or     (%edx),%edi
 e56:	0b 3b                	or     (%ebx),%edi
 e58:	0b 01                	or     (%ecx),%eax
 e5a:	13 00                	adc    (%eax),%eax
 e5c:	00 05 0d 00 03 08    	add    %al,0x803000d
 e62:	3a 0b                	cmp    (%ebx),%cl
 e64:	3b 0b                	cmp    (%ebx),%ecx
 e66:	49                   	dec    %ecx
 e67:	13 00                	adc    (%eax),%eax
 e69:	00 06                	add    %al,(%esi)
 e6b:	01 01                	add    %eax,(%ecx)
 e6d:	49                   	dec    %ecx
 e6e:	13 01                	adc    (%ecx),%eax
 e70:	13 00                	adc    (%eax),%eax
 e72:	00 07                	add    %al,(%edi)
 e74:	21 00                	and    %eax,(%eax)
 e76:	49                   	dec    %ecx
 e77:	13 2f                	adc    (%edi),%ebp
 e79:	0b 00                	or     (%eax),%eax
 e7b:	00 08                	add    %cl,(%eax)
 e7d:	24 00                	and    $0x0,%al
 e7f:	0b 0b                	or     (%ebx),%ecx
 e81:	3e 0b 03             	or     %ds:(%ebx),%eax
 e84:	08 00                	or     %al,(%eax)
 e86:	00 09                	add    %cl,(%ecx)
 e88:	2e 01 03             	add    %eax,%cs:(%ebx)
 e8b:	08 3a                	or     %bh,(%edx)
 e8d:	0b 3b                	or     (%ebx),%edi
 e8f:	05 27 0c 11 01       	add    $0x1110c27,%eax
 e94:	12 01                	adc    (%ecx),%al
 e96:	40                   	inc    %eax
 e97:	06                   	push   %es
 e98:	01 13                	add    %edx,(%ebx)
 e9a:	00 00                	add    %al,(%eax)
 e9c:	0a 05 00 03 08 3a    	or     0x3a080300,%al
 ea2:	0b 3b                	or     (%ebx),%edi
 ea4:	05 49 13 02 06       	add    $0x6021349,%eax
 ea9:	00 00                	add    %al,(%eax)
 eab:	0b 34 00             	or     (%eax,%eax,1),%esi
 eae:	03 08                	add    (%eax),%ecx
 eb0:	3a 0b                	cmp    (%ebx),%cl
 eb2:	3b 05 49 13 02 06    	cmp    0x6021349,%eax
 eb8:	00 00                	add    %al,(%eax)
 eba:	0c 0f                	or     $0xf,%al
 ebc:	00 0b                	add    %cl,(%ebx)
 ebe:	0b 49 13             	or     0x13(%ecx),%ecx
 ec1:	00 00                	add    %al,(%eax)
 ec3:	0d 2e 01 3f 0c       	or     $0xc3f012e,%eax
 ec8:	03 0e                	add    (%esi),%ecx
 eca:	3a 0b                	cmp    (%ebx),%cl
 ecc:	3b 0b                	cmp    (%ebx),%ecx
 ece:	27                   	daa    
 ecf:	0c 49                	or     $0x49,%al
 ed1:	13 11                	adc    (%ecx),%edx
 ed3:	01 12                	add    %edx,(%edx)
 ed5:	01 40 06             	add    %eax,0x6(%eax)
 ed8:	01 13                	add    %edx,(%ebx)
 eda:	00 00                	add    %al,(%eax)
 edc:	0e                   	push   %cs
 edd:	05 00 03 08 3a       	add    $0x3a080300,%eax
 ee2:	0b 3b                	or     (%ebx),%edi
 ee4:	0b 49 13             	or     0x13(%ecx),%ecx
 ee7:	02 0a                	add    (%edx),%cl
 ee9:	00 00                	add    %al,(%eax)
 eeb:	0f 34                	sysenter 
 eed:	00 03                	add    %al,(%ebx)
 eef:	08 3a                	or     %bh,(%edx)
 ef1:	0b 3b                	or     (%ebx),%edi
 ef3:	0b 49 13             	or     0x13(%ecx),%ecx
 ef6:	00 00                	add    %al,(%eax)
 ef8:	10 34 00             	adc    %dh,(%eax,%eax,1)
 efb:	03 08                	add    (%eax),%ecx
 efd:	3a 0b                	cmp    (%ebx),%cl
 eff:	3b 0b                	cmp    (%ebx),%ecx
 f01:	49                   	dec    %ecx
 f02:	13 02                	adc    (%edx),%eax
 f04:	06                   	push   %es
 f05:	00 00                	add    %al,(%eax)
 f07:	11 34 00             	adc    %esi,(%eax,%eax,1)
 f0a:	03 0e                	add    (%esi),%ecx
 f0c:	3a 0b                	cmp    (%ebx),%cl
 f0e:	3b 0b                	cmp    (%ebx),%ecx
 f10:	49                   	dec    %ecx
 f11:	13 02                	adc    (%edx),%eax
 f13:	06                   	push   %es
 f14:	00 00                	add    %al,(%eax)
 f16:	12 34 00             	adc    (%eax,%eax,1),%dh
 f19:	03 0e                	add    (%esi),%ecx
 f1b:	3a 0b                	cmp    (%ebx),%cl
 f1d:	3b 0b                	cmp    (%ebx),%ecx
 f1f:	49                   	dec    %ecx
 f20:	13 02                	adc    (%edx),%eax
 f22:	0a 00                	or     (%eax),%al
 f24:	00 13                	add    %dl,(%ebx)
 f26:	0a 00                	or     (%eax),%al
 f28:	03 0e                	add    (%esi),%ecx
 f2a:	3a 0b                	cmp    (%ebx),%cl
 f2c:	3b 0b                	cmp    (%ebx),%ecx
 f2e:	11 01                	adc    %eax,(%ecx)
 f30:	00 00                	add    %al,(%eax)
 f32:	14 0b                	adc    $0xb,%al
 f34:	01 11                	add    %edx,(%ecx)
 f36:	01 12                	add    %edx,(%edx)
 f38:	01 01                	add    %eax,(%ecx)
 f3a:	13 00                	adc    (%eax),%eax
 f3c:	00 15 0b 01 55 06    	add    %dl,0x655010b
 f42:	00 00                	add    %al,(%eax)
 f44:	16                   	push   %ss
 f45:	0b 01                	or     (%ecx),%eax
 f47:	11 01                	adc    %eax,(%ecx)
 f49:	12 01                	adc    (%ecx),%al
 f4b:	00 00                	add    %al,(%eax)
 f4d:	17                   	pop    %ss
 f4e:	26 00 49 13          	add    %cl,%es:0x13(%ecx)
 f52:	00 00                	add    %al,(%eax)
 f54:	18 35 00 49 13 00    	sbb    %dh,0x134900
 f5a:	00 19                	add    %bl,(%ecx)
 f5c:	2e 01 3f             	add    %edi,%cs:(%edi)
 f5f:	0c 03                	or     $0x3,%al
 f61:	0e                   	push   %cs
 f62:	3a 0b                	cmp    (%ebx),%cl
 f64:	3b 05 27 0c 49 13    	cmp    0x13490c27,%eax
 f6a:	11 01                	adc    %eax,(%ecx)
 f6c:	12 01                	adc    (%ecx),%al
 f6e:	40                   	inc    %eax
 f6f:	06                   	push   %es
 f70:	01 13                	add    %edx,(%ebx)
 f72:	00 00                	add    %al,(%eax)
 f74:	1a 05 00 03 08 3a    	sbb    0x3a080300,%al
 f7a:	0b 3b                	or     (%ebx),%edi
 f7c:	05 49 13 02 0a       	add    $0xa021349,%eax
 f81:	00 00                	add    %al,(%eax)
 f83:	1b 2e                	sbb    (%esi),%ebp
 f85:	01 3f                	add    %edi,(%edi)
 f87:	0c 03                	or     $0x3,%al
 f89:	0e                   	push   %cs
 f8a:	3a 0b                	cmp    (%ebx),%cl
 f8c:	3b 05 27 0c 49 13    	cmp    0x13490c27,%eax
 f92:	11 01                	adc    %eax,(%ecx)
 f94:	12 01                	adc    (%ecx),%al
 f96:	40                   	inc    %eax
 f97:	06                   	push   %es
 f98:	00 00                	add    %al,(%eax)
	...

Disassembly of section .debug_line:

00000000 <.debug_line>:
   0:	48                   	dec    %eax
   1:	00 00                	add    %al,(%eax)
   3:	00 02                	add    %al,(%edx)
   5:	00 29                	add    %ch,(%ecx)
   7:	00 00                	add    %al,(%eax)
   9:	00 01                	add    %al,(%ecx)
   b:	01 fb                	add    %edi,%ebx
   d:	0e                   	push   %cs
   e:	0d 00 01 01 01       	or     $0x1010100,%eax
  13:	01 00                	add    %eax,(%eax)
  15:	00 00                	add    %al,(%eax)
  17:	01 00                	add    %eax,(%eax)
  19:	00 01                	add    %al,(%ecx)
  1b:	75 73                	jne    90 <thread_run-0xffff70>
  1d:	65                   	gs
  1e:	72 2f                	jb     4f <thread_run-0xffffb1>
  20:	70 72                	jo     94 <thread_run-0xffff6c>
  22:	6f                   	outsl  %ds:(%esi),(%dx)
  23:	67 73 00             	addr16 jae 26 <thread_run-0xffffda>
  26:	00 74 65 73          	add    %dh,0x73(%ebp,%eiz,2)
  2a:	74 31                	je     5d <thread_run-0xffffa3>
  2c:	2e 63 00             	arpl   %ax,%cs:(%eax)
  2f:	01 00                	add    %eax,(%eax)
  31:	00 00                	add    %al,(%eax)
  33:	00 05 02 00 00 00    	add    %al,0x2
  39:	01 19                	add    %ebx,(%ecx)
  3b:	6b 03 0a             	imul   $0xa,(%ebx),%eax
  3e:	08 66 69             	or     %ah,0x69(%esi)
  41:	76 bc                	jbe    ffffffff <_end+0xfeffc6b3>
  43:	08 e6                	or     %ah,%dh
  45:	08 30                	or     %dh,(%eax)
  47:	02 1a                	add    (%edx),%bl
  49:	00 01                	add    %al,(%ecx)
  4b:	01 3d 00 00 00 02    	add    %edi,0x2000000
  51:	00 25 00 00 00 01    	add    %ah,0x1000000
  57:	01 fb                	add    %edi,%ebx
  59:	0e                   	push   %cs
  5a:	0d 00 01 01 01       	or     $0x1010100,%eax
  5f:	01 00                	add    %eax,(%eax)
  61:	00 00                	add    %al,(%eax)
  63:	01 00                	add    %eax,(%eax)
  65:	00 01                	add    %al,(%ecx)
  67:	34 31                	xor    $0x31,%al
  69:	30 75 73             	xor    %dh,0x73(%ebp)
  6c:	65                   	gs
  6d:	72 00                	jb     6f <thread_run-0xffff91>
  6f:	00 63 72             	add    %ah,0x72(%ebx)
  72:	74 30                	je     a4 <thread_run-0xffff5c>
  74:	2e 63 00             	arpl   %ax,%cs:(%eax)
  77:	01 00                	add    %eax,(%eax)
  79:	00 00                	add    %al,(%eax)
  7b:	00 05 02 84 00 00    	add    %al,0x8402
  81:	01 03                	add    %eax,(%ebx)
  83:	0f 01 67 08          	smsw   0x8(%edi)
  87:	21 02                	and    %eax,(%edx)
  89:	1a 00                	sbb    (%eax),%al
  8b:	01 01                	add    %eax,(%ecx)
  8d:	e9 00 00 00 02       	jmp    2000092 <_end+0xffc746>
  92:	00 41 00             	add    %al,0x0(%ecx)
  95:	00 00                	add    %al,(%eax)
  97:	01 01                	add    %eax,(%ecx)
  99:	fb                   	sti    
  9a:	0e                   	push   %cs
  9b:	0d 00 01 01 01       	or     $0x1010100,%eax
  a0:	01 00                	add    %eax,(%eax)
  a2:	00 00                	add    %al,(%eax)
  a4:	01 00                	add    %eax,(%eax)
  a6:	00 01                	add    %al,(%ecx)
  a8:	75 73                	jne    11d <thread_run-0xfffee3>
  aa:	65                   	gs
  ab:	72 2f                	jb     dc <thread_run-0xffff24>
  ad:	6c                   	insb   (%dx),%es:(%edi)
  ae:	69 62 74 68 72 65 61 	imul   $0x61657268,0x74(%edx),%esp
  b5:	64 00 00             	add    %al,%fs:(%eax)
  b8:	74 68                	je     122 <thread_run-0xfffede>
  ba:	72 65                	jb     121 <thread_run-0xfffedf>
  bc:	61                   	popa   
  bd:	64 2e 63 00          	fs arpl %ax,%cs:%fs:(%eax)
  c1:	01 00                	add    %eax,(%eax)
  c3:	00 74 68 72          	add    %dh,0x72(%eax,%ebp,2)
  c7:	5f                   	pop    %edi
  c8:	69 6e 74 65 72 6e 61 	imul   $0x616e7265,0x74(%esi),%ebp
  cf:	6c                   	insb   (%dx),%es:(%edi)
  d0:	73 2e                	jae    100 <thread_run-0xffff00>
  d2:	68 00 01 00 00       	push   $0x100
  d7:	00 00                	add    %al,(%eax)
  d9:	05 02 b8 00 00       	add    $0xb802,%eax
  de:	01 03                	add    %eax,(%ebx)
  e0:	b3 01                	mov    $0x1,%bl
  e2:	01 3d 84 32 3d 84    	add    %edi,0x843d3284
  e8:	32 3e                	xor    (%esi),%bh
  ea:	78 3e                	js     12a <thread_run-0xfffed6>
  ec:	03 cb                	add    %ebx,%ecx
  ee:	00 74 03 0a          	add    %dh,0xa(%ebx,%eax,1)
  f2:	3c 03                	cmp    $0x3,%al
  f4:	db 00                	fildl  (%eax)
  f6:	2e                   	cs
  f7:	3f                   	aas    
  f8:	78 43                	js     13d <thread_run-0xfffec3>
  fa:	78 41                	js     13d <thread_run-0xfffec3>
  fc:	03 53 2e             	add    0x2e(%ebx),%edx
  ff:	86 75 d7             	xchg   %dh,-0x29(%ebp)
 102:	08 79 75             	or     %bh,0x75(%ecx)
 105:	59                   	pop    %ecx
 106:	67 67 69 03 9d 7d 90 	addr32 imul $0x8907d9d,(%bp,%di),%eax
 10d:	08 
 10e:	28 03                	sub    %al,(%ebx)
 110:	a8 01                	test   $0x1,%al
 112:	08 3c 5e             	or     %bh,(%esi,%ebx,2)
 115:	03 dd                	add    %ebp,%ebx
 117:	7e 66                	jle    17f <thread_run-0xfffe81>
 119:	86 08                	xchg   %cl,(%eax)
 11b:	f6 5b 03             	negb   0x3(%ebx)
 11e:	09 08                	or     %ecx,(%eax)
 120:	ac                   	lods   %ds:(%esi),%al
 121:	73 08                	jae    12b <thread_run-0xfffed5>
 123:	69 68 08 78 69 76 67 	imul   $0x67766978,0x8(%eax),%ebp
 12a:	5a                   	pop    %edx
 12b:	08 f7                	or     %dh,%bh
 12d:	03 d4                	add    %esp,%edx
 12f:	01 c8                	add    %ecx,%eax
 131:	03 0f                	add    (%edi),%ecx
 133:	e4 51                	in     $0x51,%al
 135:	2f                   	das    
 136:	08 76 84             	or     %dh,-0x7c(%esi)
 139:	03 1d 4a 94 03 f4    	add    0xf403944a,%ebx
 13f:	7e 9e                	jle    df <thread_run-0xffff21>
 141:	7a 5c                	jp     19f <thread_run-0xfffe61>
 143:	d8 7b 3f             	fdivrs 0x3f(%ebx)
 146:	67 03 1a             	add    (%bp,%si),%ebx
 149:	74 08                	je     153 <thread_run-0xfffead>
 14b:	75 e6                	jne    133 <thread_run-0xfffecd>
 14d:	4e                   	dec    %esi
 14e:	08 c0                	or     %al,%al
 150:	03 c2                	add    %edx,%eax
 152:	7e 82                	jle    d6 <thread_run-0xffff2a>
 154:	ec                   	in     (%dx),%al
 155:	08 41 be             	or     %al,-0x42(%ecx)
 158:	02 27                	add    (%edi),%ah
 15a:	14 5b                	adc    $0x5b,%al
 15c:	6b a0 50 08 84 5b 4c 	imul   $0x4c,0x5b840850(%eax),%esp
 163:	08 e6                	or     %ah,%dh
 165:	08 ae 51 08 84 31    	or     %ch,0x31840851(%esi)
 16b:	41                   	inc    %ecx
 16c:	84 4f 08             	test   %cl,0x8(%edi)
 16f:	bd 03 09 2e 89       	mov    $0x892e0903,%ebp
 174:	2f                   	das    
 175:	02 0d 00 01 01 55    	add    0x55010100,%cl
 17b:	00 00                	add    %al,(%eax)
 17d:	00 02                	add    %al,(%edx)
 17f:	00 36                	add    %dh,(%esi)
 181:	00 00                	add    %al,(%eax)
 183:	00 01                	add    %al,(%ecx)
 185:	01 fb                	add    %edi,%ebx
 187:	0e                   	push   %cs
 188:	0d 00 01 01 01       	or     $0x1010100,%eax
 18d:	01 00                	add    %eax,(%eax)
 18f:	00 00                	add    %al,(%eax)
 191:	01 00                	add    %eax,(%eax)
 193:	00 01                	add    %al,(%ecx)
 195:	75 73                	jne    20a <thread_run-0xfffdf6>
 197:	65                   	gs
 198:	72 2f                	jb     1c9 <thread_run-0xfffe37>
 19a:	6c                   	insb   (%dx),%es:(%edi)
 19b:	69 62 74 68 72 65 61 	imul   $0x61657268,0x74(%edx),%esp
 1a2:	64 00 00             	add    %al,%fs:(%eax)
 1a5:	74 68                	je     20f <thread_run-0xfffdf1>
 1a7:	72 65                	jb     20e <thread_run-0xfffdf2>
 1a9:	61                   	popa   
 1aa:	64                   	fs
 1ab:	5f                   	pop    %edi
 1ac:	75 74                	jne    222 <thread_run-0xfffdde>
 1ae:	69 6c 69 74 79 2e 53 	imul   $0x532e79,0x74(%ecx,%ebp,2),%ebp
 1b5:	00 
 1b6:	01 00                	add    %eax,(%eax)
 1b8:	00 00                	add    %al,(%eax)
 1ba:	00 05 02 5c 04 00    	add    %al,0x45c02
 1c0:	01 1a                	add    %ebx,(%edx)
 1c2:	21 4b 4b             	and    %ecx,0x4b(%ebx)
 1c5:	2f                   	das    
 1c6:	2f                   	das    
 1c7:	59                   	pop    %ecx
 1c8:	2f                   	das    
 1c9:	2f                   	das    
 1ca:	3d 2f 2f 22 02       	cmp    $0x2222f2f,%eax
 1cf:	01 00                	add    %eax,(%eax)
 1d1:	01 01                	add    %eax,(%ecx)
 1d3:	6d                   	insl   (%dx),%es:(%edi)
 1d4:	00 00                	add    %al,(%eax)
 1d6:	00 02                	add    %al,(%edx)
 1d8:	00 45 00             	add    %al,0x0(%ebp)
 1db:	00 00                	add    %al,(%eax)
 1dd:	01 01                	add    %eax,(%ecx)
 1df:	fb                   	sti    
 1e0:	0e                   	push   %cs
 1e1:	0d 00 01 01 01       	or     $0x1010100,%eax
 1e6:	01 00                	add    %eax,(%eax)
 1e8:	00 00                	add    %al,(%eax)
 1ea:	01 00                	add    %eax,(%eax)
 1ec:	00 01                	add    %al,(%ecx)
 1ee:	75 73                	jne    263 <thread_run-0xfffd9d>
 1f0:	65                   	gs
 1f1:	72 2f                	jb     222 <thread_run-0xfffdde>
 1f3:	6c                   	insb   (%dx),%es:(%edi)
 1f4:	69 62 74 68 72 65 61 	imul   $0x61657268,0x74(%edx),%esp
 1fb:	64 00 34 31          	add    %dh,%fs:(%ecx,%esi,1)
 1ff:	30 75 73             	xor    %dh,0x73(%ebp)
 202:	65                   	gs
 203:	72 2f                	jb     234 <thread_run-0xfffdcc>
 205:	69 6e 63 00 00 6d 61 	imul   $0x616d0000,0x63(%esi),%ebp
 20c:	6c                   	insb   (%dx),%es:(%edi)
 20d:	6c                   	insb   (%dx),%es:(%edi)
 20e:	6f                   	outsl  %ds:(%esi),(%dx)
 20f:	63 2e                	arpl   %bp,(%esi)
 211:	63 00                	arpl   %ax,(%eax)
 213:	01 00                	add    %eax,(%eax)
 215:	00 74 79 70          	add    %dh,0x70(%ecx,%edi,2)
 219:	65                   	gs
 21a:	73 2e                	jae    24a <thread_run-0xfffdb6>
 21c:	68 00 02 00 00       	push   $0x200
 221:	00 00                	add    %al,(%eax)
 223:	05 02 7c 04 00       	add    $0x47c02,%eax
 228:	01 03                	add    %eax,(%ebx)
 22a:	28 01                	sub    %al,(%ecx)
 22c:	67 ae                	scas   %es:(%di),%al
 22e:	03 74 2e 69          	add    0x69(%esi,%ebp,1),%esi
 232:	08 23                	or     %ah,(%ebx)
 234:	03 71 2e             	add    0x2e(%ecx),%esi
 237:	69 08 23 03 71 2e    	imul   $0x2e710323,(%eax),%ecx
 23d:	69 af 02 02 00 01 01 	imul   $0x9601,0x1000202(%edi),%ebp
 244:	96 00 00 
 247:	00 02                	add    %al,(%edx)
 249:	00 4b 00             	add    %cl,0x0(%ebx)
 24c:	00 00                	add    %al,(%eax)
 24e:	01 01                	add    %eax,(%ecx)
 250:	fb                   	sti    
 251:	0e                   	push   %cs
 252:	0d 00 01 01 01       	or     $0x1010100,%eax
 257:	01 00                	add    %eax,(%eax)
 259:	00 00                	add    %al,(%eax)
 25b:	01 00                	add    %eax,(%eax)
 25d:	00 01                	add    %al,(%ecx)
 25f:	34 31                	xor    $0x31,%al
 261:	30 75 73             	xor    %dh,0x73(%ebp)
 264:	65                   	gs
 265:	72 2f                	jb     296 <thread_run-0xfffd6a>
 267:	6c                   	insb   (%dx),%es:(%edi)
 268:	69 62 73 69 6d 69 63 	imul   $0x63696d69,0x73(%edx),%esp
 26f:	73 00                	jae    271 <thread_run-0xfffd8f>
 271:	34 31                	xor    $0x31,%al
 273:	30 75 73             	xor    %dh,0x73(%ebp)
 276:	65                   	gs
 277:	72 2f                	jb     2a8 <thread_run-0xfffd58>
 279:	69 6e 63 00 00 73 69 	imul   $0x69730000,0x63(%esi),%ebp
 280:	6d                   	insl   (%dx),%es:(%edi)
 281:	69 63 73 5f 63 2e 63 	imul   $0x632e635f,0x73(%ebx),%esp
 288:	00 01                	add    %al,(%ecx)
 28a:	00 00                	add    %al,(%eax)
 28c:	73 74                	jae    302 <thread_run-0xfffcfe>
 28e:	64                   	fs
 28f:	61                   	popa   
 290:	72 67                	jb     2f9 <thread_run-0xfffd07>
 292:	2e                   	cs
 293:	68 00 02 00 00       	push   $0x200
 298:	00 00                	add    %al,(%eax)
 29a:	05 02 d8 04 00       	add    $0x4d802,%eax
 29f:	01 03                	add    %eax,(%ebx)
 2a1:	21 01                	and    %eax,(%ecx)
 2a3:	67 bb 03 7a 2e 67    	addr16 mov $0x672e7a03,%ebx
 2a9:	08 2f                	or     %ch,(%edi)
 2ab:	03 7a 2e             	add    0x2e(%edx),%edi
 2ae:	67 bb 03 7a 2e 67    	addr16 mov $0x672e7a03,%ebx
 2b4:	bb 03 7a 2e 67       	mov    $0x672e7a03,%ebx
 2b9:	bb 03 7a 2e 67       	mov    $0x672e7a03,%ebx
 2be:	08 2f                	or     %ch,(%edi)
 2c0:	03 7a 2e             	add    0x2e(%edx),%edi
 2c3:	67 bb 03 7a 2e 67    	addr16 mov $0x672e7a03,%ebx
 2c9:	bb 03 29 2e 67       	mov    $0x672e2903,%ebx
 2ce:	bb 08 21 03 72       	mov    $0x72032108,%ebx
 2d3:	2e                   	cs
 2d4:	9e                   	sahf   
 2d5:	41                   	inc    %ecx
 2d6:	08 f5                	or     %dh,%ch
 2d8:	83 02 09             	addl   $0x9,(%edx)
 2db:	00 01                	add    %al,(%ecx)
 2dd:	01 4b 00             	add    %ecx,0x0(%ebx)
 2e0:	00 00                	add    %al,(%eax)
 2e2:	02 00                	add    (%eax),%al
 2e4:	31 00                	xor    %eax,(%eax)
 2e6:	00 00                	add    %al,(%eax)
 2e8:	01 01                	add    %eax,(%ecx)
 2ea:	fb                   	sti    
 2eb:	0e                   	push   %cs
 2ec:	0d 00 01 01 01       	or     $0x1010100,%eax
 2f1:	01 00                	add    %eax,(%eax)
 2f3:	00 00                	add    %al,(%eax)
 2f5:	01 00                	add    %eax,(%eax)
 2f7:	00 01                	add    %al,(%ecx)
 2f9:	34 31                	xor    $0x31,%al
 2fb:	30 75 73             	xor    %dh,0x73(%ebp)
 2fe:	65                   	gs
 2ff:	72 2f                	jb     330 <thread_run-0xfffcd0>
 301:	6c                   	insb   (%dx),%es:(%edi)
 302:	69 62 73 69 6d 69 63 	imul   $0x63696d69,0x73(%edx),%esp
 309:	73 00                	jae    30b <thread_run-0xfffcf5>
 30b:	00 73 69             	add    %dh,0x69(%ebx)
 30e:	6d                   	insl   (%dx),%es:(%edi)
 30f:	69 63 73 2e 53 00 01 	imul   $0x100532e,0x73(%ebx),%esp
 316:	00 00                	add    %al,(%eax)
 318:	00 00                	add    %al,(%eax)
 31a:	05 02 ec 05 00       	add    $0x5ec02,%eax
 31f:	01 17                	add    %edx,(%edi)
 321:	21 4b 4b             	and    %ecx,0x4b(%ebx)
 324:	4b                   	dec    %ebx
 325:	59                   	pop    %ecx
 326:	2f                   	das    
 327:	21 02                	and    %eax,(%edx)
 329:	01 00                	add    %eax,(%eax)
 32b:	01 01                	add    %eax,(%ecx)
 32d:	89 00                	mov    %eax,(%eax)
 32f:	00 00                	add    %al,(%eax)
 331:	02 00                	add    (%eax),%al
 333:	49                   	dec    %ecx
 334:	00 00                	add    %al,(%eax)
 336:	00 01                	add    %al,(%ecx)
 338:	01 fb                	add    %edi,%ebx
 33a:	0e                   	push   %cs
 33b:	0d 00 01 01 01       	or     $0x1010100,%eax
 340:	01 00                	add    %eax,(%eax)
 342:	00 00                	add    %al,(%eax)
 344:	01 00                	add    %eax,(%eax)
 346:	00 01                	add    %al,(%ecx)
 348:	34 31                	xor    $0x31,%al
 34a:	30 75 73             	xor    %dh,0x73(%ebp)
 34d:	65                   	gs
 34e:	72 2f                	jb     37f <thread_run-0xfffc81>
 350:	6c                   	insb   (%dx),%es:(%edi)
 351:	69 62 73 74 64 69 6f 	imul   $0x6f696474,0x73(%edx),%esp
 358:	00 34 31             	add    %dh,(%ecx,%esi,1)
 35b:	30 75 73             	xor    %dh,0x73(%ebp)
 35e:	65                   	gs
 35f:	72 2f                	jb     390 <thread_run-0xfffc70>
 361:	69 6e 63 00 00 73 70 	imul   $0x70730000,0x63(%esi),%ebp
 368:	72 69                	jb     3d3 <thread_run-0xfffc2d>
 36a:	6e                   	outsb  %ds:(%esi),(%dx)
 36b:	74 66                	je     3d3 <thread_run-0xfffc2d>
 36d:	2e 63 00             	arpl   %ax,%cs:(%eax)
 370:	01 00                	add    %eax,(%eax)
 372:	00 73 74             	add    %dh,0x74(%ebx)
 375:	64                   	fs
 376:	61                   	popa   
 377:	72 67                	jb     3e0 <thread_run-0xfffc20>
 379:	2e                   	cs
 37a:	68 00 02 00 00       	push   $0x200
 37f:	00 00                	add    %al,(%eax)
 381:	05 02 04 06 00       	add    $0x60402,%eax
 386:	01 03                	add    %eax,(%ebx)
 388:	26 01 3d 3e 84 5c 4b 	add    %edi,%es:0x4b5c843e
 38f:	75 3d                	jne    3ce <thread_run-0xfffc32>
 391:	03 10                	add    (%eax),%edx
 393:	2e                   	cs
 394:	68 91 75 68 02       	push   $0x2687591
 399:	29 13                	sub    %edx,(%ebx)
 39b:	69 03 0f 58 65 42    	imul   $0x4265580f,(%ebx),%eax
 3a1:	08 be 03 51 2e 68    	or     %bh,0x682e5103(%esi)
 3a7:	75 75                	jne    41e <thread_run-0xfffbe2>
 3a9:	68 02 29 13 69       	push   $0x69132902
 3ae:	03 10                	add    (%eax),%edx
 3b0:	58                   	pop    %eax
 3b1:	65                   	gs
 3b2:	42                   	inc    %edx
 3b3:	08 5c 02 02          	or     %bl,0x2(%edx,%eax,1)
 3b7:	00 01                	add    %al,(%ecx)
 3b9:	01 19                	add    %ebx,(%ecx)
 3bb:	02 00                	add    (%eax),%al
 3bd:	00 02                	add    %al,(%edx)
 3bf:	00 53 00             	add    %dl,0x0(%ebx)
 3c2:	00 00                	add    %al,(%eax)
 3c4:	01 01                	add    %eax,(%ecx)
 3c6:	fb                   	sti    
 3c7:	0e                   	push   %cs
 3c8:	0d 00 01 01 01       	or     $0x1010100,%eax
 3cd:	01 00                	add    %eax,(%eax)
 3cf:	00 00                	add    %al,(%eax)
 3d1:	01 00                	add    %eax,(%eax)
 3d3:	00 01                	add    %al,(%ecx)
 3d5:	34 31                	xor    $0x31,%al
 3d7:	30 75 73             	xor    %dh,0x73(%ebp)
 3da:	65                   	gs
 3db:	72 2f                	jb     40c <thread_run-0xfffbf4>
 3dd:	6c                   	insb   (%dx),%es:(%edi)
 3de:	69 62 73 74 64 69 6f 	imul   $0x6f696474,0x73(%edx),%esp
 3e5:	00 34 31             	add    %dh,(%ecx,%esi,1)
 3e8:	30 75 73             	xor    %dh,0x73(%ebp)
 3eb:	65                   	gs
 3ec:	72 2f                	jb     41d <thread_run-0xfffbe3>
 3ee:	69 6e 63 00 00 64 6f 	imul   $0x6f640000,0x63(%esi),%ebp
 3f5:	70 72                	jo     469 <thread_run-0xfffb97>
 3f7:	6e                   	outsb  %ds:(%esi),(%dx)
 3f8:	74 2e                	je     428 <thread_run-0xfffbd8>
 3fa:	63 00                	arpl   %ax,(%eax)
 3fc:	01 00                	add    %eax,(%eax)
 3fe:	00 73 74             	add    %dh,0x74(%ebx)
 401:	64                   	fs
 402:	61                   	popa   
 403:	72 67                	jb     46c <thread_run-0xfffb94>
 405:	2e                   	cs
 406:	68 00 02 00 00       	push   $0x200
 40b:	74 79                	je     486 <thread_run-0xfffb7a>
 40d:	70 65                	jo     474 <thread_run-0xfffb8c>
 40f:	73 2e                	jae    43f <thread_run-0xfffbc1>
 411:	68 00 02 00 00       	push   $0x200
 416:	00 00                	add    %al,(%eax)
 418:	05 02 10 07 00       	add    $0x71002,%eax
 41d:	01 03                	add    %eax,(%ebx)
 41f:	99                   	cltd   
 420:	01 01                	add    %eax,(%ecx)
 422:	08 20                	or     %ah,(%eax)
 424:	41                   	inc    %ecx
 425:	08 5a 4c             	or     %bl,0x4c(%edx)
 428:	9f                   	lahf   
 429:	c7                   	(bad)  
 42a:	76 89                	jbe    3b5 <thread_run-0xfffc4b>
 42c:	e0 03                	loopne 431 <thread_run-0xfffbcf>
 42e:	0a 66 08             	or     0x8(%esi),%ah
 431:	2f                   	das    
 432:	3a 96 08 3b 85 03    	cmp    0x3853b08(%esi),%dl
 438:	0a 82 03 88 03 ba    	or     -0x45fc77fd(%edx),%al
 43e:	03 86 7d 66 59 4b    	add    0x4b59667d(%esi),%eax
 444:	08 2f                	or     %ch,(%edi)
 446:	03 1c 08             	add    (%eax,%ecx,1),%ebx
 449:	9e                   	sahf   
 44a:	53                   	push   %ebx
 44b:	03 69 74             	add    0x74(%ecx),%ebp
 44e:	03 0f                	add    (%edi),%ecx
 450:	c8 08 24 5c          	enter  $0x2408,$0x5c
 454:	be 59 a6 92 77       	mov    $0x7792a659,%esi
 459:	08 68 c7             	or     %ch,-0x39(%eax)
 45c:	08 31                	or     %dh,(%ecx)
 45e:	e5 ad                	in     $0xad,%eax
 460:	3d 4b ad 5c 59       	cmp    $0x595cad4b,%eax
 465:	3d f5 c7 f5 59       	cmp    $0x59f5c7f5,%eax
 46a:	83 cc c9             	or     $0xffffffc9,%esp
 46d:	3d 3a 89 02 64       	cmp    $0x6402893a,%eax
 472:	1a 9f e5 67 08 5a    	sbb    0x5a0867e5(%edi),%bl
 478:	9b                   	fwait
 479:	02 23                	add    (%ebx),%ah
 47b:	19 3e                	sbb    %edi,(%esi)
 47d:	95                   	xchg   %eax,%ebp
 47e:	67 e6 08             	addr16 out %al,$0x8
 481:	3f                   	aas    
 482:	91                   	xchg   %eax,%ecx
 483:	75 b9                	jne    43e <thread_run-0xfffbc2>
 485:	a0 02 4f 15 08       	mov    0x8154f02,%al
 48a:	e5 67                	in     $0x67,%eax
 48c:	cd 8d                	int    $0x8d
 48e:	08 5c b9 be          	or     %bl,-0x42(%ecx,%edi,4)
 492:	03 62 82             	add    -0x7e(%edx),%esp
 495:	03 22                	add    (%edx),%esp
 497:	08 12                	or     %dl,(%edx)
 499:	9f                   	lahf   
 49a:	08 5d 91             	or     %bl,-0x6f(%ebp)
 49d:	08 2f                	or     %ch,(%edi)
 49f:	03 16                	add    (%esi),%edx
 4a1:	58                   	pop    %eax
 4a2:	08 92 84 08 96 08    	or     %dl,0x8960884(%edx)
 4a8:	75 08                	jne    4b2 <thread_run-0xfffb4e>
 4aa:	f3 08 13             	repz or %dl,(%ebx)
 4ad:	80 03 c3             	addb   $0xc3,(%ebx)
 4b0:	7e 08                	jle    4ba <thread_run-0xfffb46>
 4b2:	20 03                	and    %al,(%ebx)
 4b4:	c2 01 02             	ret    $0x201
 4b7:	3e 01 08             	add    %ecx,%ds:(%eax)
 4ba:	67 d8 08             	fmuls  (%bx,%si)
 4bd:	14 d8                	adc    $0xd8,%al
 4bf:	03 7a 08             	add    0x8(%edx),%edi
 4c2:	2e d8 08             	fmuls  %cs:(%eax)
 4c5:	14 da                	adc    $0xda,%al
 4c7:	08 3d 02 23 13 08    	or     %bh,0x8132302
 4cd:	13 64 08 52          	adc    0x52(%eax,%ecx,1),%esp
 4d1:	08 98 02 31 13 02    	or     %bl,0x2133102(%eax)
 4d7:	43                   	inc    %ebx
 4d8:	13 a0 08 9f 02 2c    	adc    0x2c029f08(%eax),%esp
 4de:	13 08                	adc    (%eax),%ecx
 4e0:	13 03                	adc    (%ebx),%eax
 4e2:	9d                   	popf   
 4e3:	7e 66                	jle    54b <thread_run-0xfffab5>
 4e5:	03 e1                	add    %ecx,%esp
 4e7:	01 9e 03 9f 7e ba    	add    %ebx,-0x458160fd(%esi)
 4ed:	03 e7                	add    %edi,%esp
 4ef:	01 08                	add    %ecx,(%eax)
 4f1:	3c 08                	cmp    $0x8,%al
 4f3:	68 f3 02 2c 13       	push   $0x132c02f3
 4f8:	08 13                	or     %dl,(%ebx)
 4fa:	03 94 7e 66 03 ea 01 	add    0x1ea0366(%esi,%edi,2),%edx
 501:	9e                   	sahf   
 502:	08 50 08             	or     %dl,0x8(%eax)
 505:	59                   	pop    %ecx
 506:	08 14 67             	or     %dl,(%edi,%eiz,2)
 509:	02 32                	add    (%edx),%dh
 50b:	13 03                	adc    (%ebx),%eax
 50d:	8b 7e 02             	mov    0x2(%esi),%edi
 510:	23 01                	and    (%ecx),%eax
 512:	03 f4                	add    %esp,%esi
 514:	01 9e bf 08 5a 08    	add    %ebx,0x85a08bf(%esi)
 51a:	68 02 42 13 08       	push   $0x8134202
 51f:	3d 03 81 7e 08       	cmp    $0x87e8103,%eax
 524:	66 03 fe             	add    %si,%di
 527:	01 9e 03 0f 08 4a    	add    %ebx,0x4a080f03(%esi)
 52d:	af                   	scas   %es:(%edi),%eax
 52e:	d8 a1 be 03 0d 02    	fsubs  0x20d03be(%ecx)
 534:	23 01                	and    (%ecx),%eax
 536:	08 83 03 73 02 53    	or     %al,0x53027303(%ebx)
 53c:	01 81 08 79 02 29    	add    %eax,0x29027908(%ecx)
 542:	0d 08 50 08 13       	or     $0x13085008,%eax
 547:	80 03 09             	addb   $0x9,(%ebx)
 54a:	08 9e 08 93 08 2a    	or     %bl,0x2a089308(%esi)
 550:	7b 02                	jnp    554 <thread_run-0xfffaac>
 552:	2c 13                	sub    $0x13,%al
 554:	08 4b 08             	or     %cl,0x8(%ebx)
 557:	13 80 03 0b 08 4a    	adc    0x4a080b03(%eax),%eax
 55d:	08 34 08             	or     %dh,(%eax,%ecx,1)
 560:	34 03                	xor    $0x3,%al
 562:	0d 08 20 08 13       	or     $0x13082008,%eax
 567:	08 ae 08 34 f8 dc    	or     %ch,-0x2307cbf8(%esi)
 56d:	08 96 59 08 84 08    	or     %dl,0x8840859(%esi)
 573:	84 8f 6b 08 b2 59    	test   %cl,0x59b2086b(%edi)
 579:	08 92 03 0a 08 90    	or     %dl,-0x6ff7f5fd(%edx)
 57f:	ae                   	scas   %es:(%edi),%al
 580:	bb bc 08 5d 02       	mov    $0x25d08bc,%ebx
 585:	36 13 08             	adc    %ss:(%eax),%ecx
 588:	c9                   	leave  
 589:	bc 92 75 67 ca       	mov    $0xca677592,%esp
 58e:	08 14 08             	or     %dl,(%eax,%ecx,1)
 591:	75 c7                	jne    55a <thread_run-0xfffaa6>
 593:	03 e1                	add    %ecx,%esp
 595:	7c ac                	jl     543 <thread_run-0xfffabd>
 597:	03 a2 03 3c 67 f3    	add    -0xc98c3fd(%edx),%esp
 59d:	67 08 2f             	or     %ch,(%bx)
 5a0:	e3 a0                	jecxz  542 <thread_run-0xfffabe>
 5a2:	bc 08 4b c7 03       	mov    $0x3c74b08,%esp
 5a7:	d7                   	xlat   %ds:(%ebx)
 5a8:	7c 82                	jl     52c <thread_run-0xfffad4>
 5aa:	03 ac 03 66 08 2f c7 	add    -0x38d0f79a(%ebx,%eax,1),%ebp
 5b1:	a1 67 08 13 c7       	mov    0xc7130867,%eax
 5b6:	a5                   	movsl  %ds:(%esi),%es:(%edi)
 5b7:	91                   	xchg   %eax,%ecx
 5b8:	31 08                	xor    %ecx,(%eax)
 5ba:	5a                   	pop    %edx
 5bb:	03 d7                	add    %edi,%edx
 5bd:	7c 3c                	jl     5fb <thread_run-0xfffa05>
 5bf:	03 6c c8 03          	add    0x3(%eax,%ecx,8),%ebp
 5c3:	f0 01 08             	lock add %ecx,(%eax)
 5c6:	3c 08                	cmp    $0x8,%al
 5c8:	59                   	pop    %ecx
 5c9:	08 57 08             	or     %dl,0x8(%edi)
 5cc:	59                   	pop    %ecx
 5cd:	03 ce                	add    %esi,%ecx
 5cf:	01 08                	add    %ecx,(%eax)
 5d1:	2e 02 08             	add    %cs:(%eax),%cl
 5d4:	00 01                	add    %al,(%ecx)
 5d6:	01 46 00             	add    %eax,0x0(%esi)
 5d9:	00 00                	add    %al,(%eax)
 5db:	02 00                	add    (%eax),%al
 5dd:	2f                   	das    
 5de:	00 00                	add    %al,(%eax)
 5e0:	00 01                	add    %al,(%ecx)
 5e2:	01 fb                	add    %edi,%ebx
 5e4:	0e                   	push   %cs
 5e5:	0d 00 01 01 01       	or     $0x1010100,%eax
 5ea:	01 00                	add    %eax,(%eax)
 5ec:	00 00                	add    %al,(%eax)
 5ee:	01 00                	add    %eax,(%eax)
 5f0:	00 01                	add    %al,(%ecx)
 5f2:	34 31                	xor    $0x31,%al
 5f4:	30 75 73             	xor    %dh,0x73(%ebp)
 5f7:	65                   	gs
 5f8:	72 2f                	jb     629 <thread_run-0xfff9d7>
 5fa:	6c                   	insb   (%dx),%es:(%edi)
 5fb:	69 62 73 74 64 6c 69 	imul   $0x696c6474,0x73(%edx),%esp
 602:	62 00                	bound  %eax,(%eax)
 604:	00 65 78             	add    %ah,0x78(%ebp)
 607:	69 74 2e 63 00 01 00 	imul   $0x100,0x63(%esi,%ebp,1),%esi
 60e:	00 
 60f:	00 00                	add    %al,(%eax)
 611:	05 02 e4 15 00       	add    $0x15e402,%eax
 616:	01 03                	add    %eax,(%ebx)
 618:	0c 01                	or     $0x1,%al
 61a:	67 ad                	lods   %ds:(%si),%eax
 61c:	02 05 00 01 01 61    	add    0x61010100,%al
 622:	00 00                	add    %al,(%eax)
 624:	00 02                	add    %al,(%edx)
 626:	00 48 00             	add    %cl,0x0(%eax)
 629:	00 00                	add    %al,(%eax)
 62b:	01 01                	add    %eax,(%ecx)
 62d:	fb                   	sti    
 62e:	0e                   	push   %cs
 62f:	0d 00 01 01 01       	or     $0x1010100,%eax
 634:	01 00                	add    %eax,(%eax)
 636:	00 00                	add    %al,(%eax)
 638:	01 00                	add    %eax,(%eax)
 63a:	00 01                	add    %al,(%ecx)
 63c:	34 31                	xor    $0x31,%al
 63e:	30 75 73             	xor    %dh,0x73(%ebp)
 641:	65                   	gs
 642:	72 2f                	jb     673 <thread_run-0xfff98d>
 644:	6c                   	insb   (%dx),%es:(%edi)
 645:	69 62 73 74 72 69 6e 	imul   $0x6e697274,0x73(%edx),%esp
 64c:	67 00 34             	add    %dh,(%si)
 64f:	31 30                	xor    %esi,(%eax)
 651:	75 73                	jne    6c6 <thread_run-0xfff93a>
 653:	65                   	gs
 654:	72 2f                	jb     685 <thread_run-0xfff97b>
 656:	69 6e 63 00 00 6d 65 	imul   $0x656d0000,0x63(%esi),%ebp
 65d:	6d                   	insl   (%dx),%es:(%edi)
 65e:	73 65                	jae    6c5 <thread_run-0xfff93b>
 660:	74 2e                	je     690 <thread_run-0xfff970>
 662:	63 00                	arpl   %ax,(%eax)
 664:	01 00                	add    %eax,(%eax)
 666:	00 74 79 70          	add    %dh,0x70(%ecx,%edi,2)
 66a:	65                   	gs
 66b:	73 2e                	jae    69b <thread_run-0xfff965>
 66d:	68 00 02 00 00       	push   $0x200
 672:	00 00                	add    %al,(%eax)
 674:	05 02 fc 15 00       	add    $0x15fc02,%eax
 679:	01 03                	add    %eax,(%ebx)
 67b:	19 01                	sbb    %eax,(%ecx)
 67d:	cb                   	lret   
 67e:	91                   	xchg   %eax,%ecx
 67f:	65                   	gs
 680:	4e                   	dec    %esi
 681:	02 03                	add    (%ebx),%al
 683:	00 01                	add    %al,(%ecx)
 685:	01 49 00             	add    %ecx,0x0(%ecx)
 688:	00 00                	add    %al,(%eax)
 68a:	02 00                	add    (%eax),%al
 68c:	31 00                	xor    %eax,(%eax)
 68e:	00 00                	add    %al,(%eax)
 690:	01 01                	add    %eax,(%ecx)
 692:	fb                   	sti    
 693:	0e                   	push   %cs
 694:	0d 00 01 01 01       	or     $0x1010100,%eax
 699:	01 00                	add    %eax,(%eax)
 69b:	00 00                	add    %al,(%eax)
 69d:	01 00                	add    %eax,(%eax)
 69f:	00 01                	add    %al,(%ecx)
 6a1:	34 31                	xor    $0x31,%al
 6a3:	30 75 73             	xor    %dh,0x73(%ebp)
 6a6:	65                   	gs
 6a7:	72 2f                	jb     6d8 <thread_run-0xfff928>
 6a9:	6c                   	insb   (%dx),%es:(%edi)
 6aa:	69 62 73 74 72 69 6e 	imul   $0x6e697274,0x73(%edx),%esp
 6b1:	67 00 00             	add    %al,(%bx,%si)
 6b4:	73 74                	jae    72a <thread_run-0xfff8d6>
 6b6:	72 6c                	jb     724 <thread_run-0xfff8dc>
 6b8:	65 6e                	outsb  %gs:(%esi),(%dx)
 6ba:	2e 63 00             	arpl   %ax,%cs:(%eax)
 6bd:	01 00                	add    %eax,(%eax)
 6bf:	00 00                	add    %al,(%eax)
 6c1:	00 05 02 20 16 00    	add    %al,0x162002
 6c7:	01 03                	add    %eax,(%ebx)
 6c9:	25 01 66 31 da       	and    $0xda316601,%eax
 6ce:	02 02                	add    (%edx),%al
 6d0:	00 01                	add    %al,(%ecx)
 6d2:	01 79 00             	add    %edi,0x0(%ecx)
 6d5:	00 00                	add    %al,(%eax)
 6d7:	02 00                	add    (%eax),%al
 6d9:	48                   	dec    %eax
 6da:	00 00                	add    %al,(%eax)
 6dc:	00 01                	add    %al,(%ecx)
 6de:	01 fb                	add    %edi,%ebx
 6e0:	0e                   	push   %cs
 6e1:	0d 00 01 01 01       	or     $0x1010100,%eax
 6e6:	01 00                	add    %eax,(%eax)
 6e8:	00 00                	add    %al,(%eax)
 6ea:	01 00                	add    %eax,(%eax)
 6ec:	00 01                	add    %al,(%ecx)
 6ee:	34 31                	xor    $0x31,%al
 6f0:	30 75 73             	xor    %dh,0x73(%ebp)
 6f3:	65                   	gs
 6f4:	72 2f                	jb     725 <thread_run-0xfff8db>
 6f6:	6c                   	insb   (%dx),%es:(%edi)
 6f7:	69 62 6d 61 6c 6c 6f 	imul   $0x6f6c6c61,0x6d(%edx),%esp
 6fe:	63 00                	arpl   %ax,(%eax)
 700:	34 31                	xor    $0x31,%al
 702:	30 75 73             	xor    %dh,0x73(%ebp)
 705:	65                   	gs
 706:	72 2f                	jb     737 <thread_run-0xfff8c9>
 708:	69 6e 63 00 00 6d 61 	imul   $0x616d0000,0x63(%esi),%ebp
 70f:	6c                   	insb   (%dx),%es:(%edi)
 710:	6c                   	insb   (%dx),%es:(%edi)
 711:	6f                   	outsl  %ds:(%esi),(%dx)
 712:	63 2e                	arpl   %bp,(%esi)
 714:	63 00                	arpl   %ax,(%eax)
 716:	01 00                	add    %eax,(%eax)
 718:	00 74 79 70          	add    %dh,0x70(%ecx,%edi,2)
 71c:	65                   	gs
 71d:	73 2e                	jae    74d <thread_run-0xfff8b3>
 71f:	68 00 02 00 00       	push   $0x200
 724:	00 00                	add    %al,(%eax)
 726:	05 02 38 16 00       	add    $0x163802,%eax
 72b:	01 03                	add    %eax,(%ebx)
 72d:	c9                   	leave  
 72e:	00 01                	add    %al,(%ecx)
 730:	67 94                	addr16 xchg %eax,%esp
 732:	ad                   	lods   %ds:(%esi),%eax
 733:	03 6d 2e             	add    0x2e(%ebp),%ebp
 736:	67 da 08             	fimull (%bx,%si)
 739:	21 03                	and    %eax,(%ebx)
 73b:	54                   	push   %esp
 73c:	2e                   	cs
 73d:	67 91                	addr16 xchg %eax,%ecx
 73f:	f5                   	cmc    
 740:	a0 ad 35 bd 91       	mov    0x91bd35ad,%al
 745:	d9 a1 08 13 4d bc    	fldenv -0x43b2ecf8(%ecx)
 74b:	02 0c 00             	add    (%eax,%eax,1),%cl
 74e:	01 01                	add    %eax,(%ecx)
 750:	ee                   	out    %al,(%dx)
 751:	00 00                	add    %al,(%eax)
 753:	00 02                	add    %al,(%edx)
 755:	00 34 00             	add    %dh,(%eax,%eax,1)
 758:	00 00                	add    %al,(%eax)
 75a:	01 01                	add    %eax,(%ecx)
 75c:	fb                   	sti    
 75d:	0e                   	push   %cs
 75e:	0d 00 01 01 01       	or     $0x1010100,%eax
 763:	01 00                	add    %eax,(%eax)
 765:	00 00                	add    %al,(%eax)
 767:	01 00                	add    %eax,(%eax)
 769:	00 01                	add    %al,(%ecx)
 76b:	34 31                	xor    $0x31,%al
 76d:	30 75 73             	xor    %dh,0x73(%ebp)
 770:	65                   	gs
 771:	72 2f                	jb     7a2 <thread_run-0xfff85e>
 773:	6c                   	insb   (%dx),%es:(%edi)
 774:	69 62 6d 61 6c 6c 6f 	imul   $0x6f6c6c61,0x6d(%edx),%esp
 77b:	63 00                	arpl   %ax,(%eax)
 77d:	00 6d 6d             	add    %ch,0x6d(%ebp)
 780:	5f                   	pop    %edi
 781:	6d                   	insl   (%dx),%es:(%edi)
 782:	61                   	popa   
 783:	6c                   	insb   (%dx),%es:(%edi)
 784:	6c                   	insb   (%dx),%es:(%edi)
 785:	6f                   	outsl  %ds:(%esi),(%dx)
 786:	63 2e                	arpl   %bp,(%esi)
 788:	63 00                	arpl   %ax,(%eax)
 78a:	01 00                	add    %eax,(%eax)
 78c:	00 00                	add    %al,(%eax)
 78e:	00 05 02 10 17 00    	add    %al,0x171002
 794:	01 03                	add    %eax,(%ebx)
 796:	db 01                	fildl  (%ecx)
 798:	01 08                	add    %ecx,(%eax)
 79a:	13 a0 91 59 92 9f    	adc    -0x606da66f(%eax),%esp
 7a0:	af                   	scas   %es:(%edi),%eax
 7a1:	59                   	pop    %ecx
 7a2:	92                   	xchg   %eax,%edx
 7a3:	03 1c e4             	add    (%esp,%eiz,8),%ebx
 7a6:	e5 02                	in     $0x2,%eax
 7a8:	24 13                	and    $0x13,%al
 7aa:	08 4d 02             	or     %cl,0x2(%ebp)
 7ad:	24 10                	and    $0x10,%al
 7af:	96                   	xchg   %eax,%esi
 7b0:	9f                   	lahf   
 7b1:	83 2f 91             	subl   $0xffffff91,(%edi)
 7b4:	31 bb 91 75 9f 94    	xor    %edi,-0x6b608a6f(%ebx)
 7ba:	02 22                	add    (%edx),%ah
 7bc:	14 59                	adc    $0x59,%al
 7be:	08 21                	or     %ah,(%ecx)
 7c0:	76 03                	jbe    7c5 <thread_run-0xfff83b>
 7c2:	d5 7e                	aad    $0x7e
 7c4:	c8 6d 4d 84          	enter  $0x4d6d,$0x84
 7c8:	2f                   	das    
 7c9:	4b                   	dec    %ebx
 7ca:	5a                   	pop    %edx
 7cb:	03 b2 01 2e 91 4b    	add    0x4b912e01(%edx),%esi
 7d1:	f3 d7                	repz xlat %ds:(%ebx)
 7d3:	bb 03 68 66 85       	mov    $0x85666803,%ebx
 7d8:	84 4d 4b             	test   %cl,0x4b(%ebp)
 7db:	f3 2a 5f 03          	repz sub 0x3(%edi),%bl
 7df:	77 ac                	ja     78d <thread_run-0xfff873>
 7e1:	03 09                	add    (%ecx),%ecx
 7e3:	3c 02                	cmp    $0x2,%al
 7e5:	2e                   	cs
 7e6:	15 03 ec 7e 74       	adc    $0x747eec03,%eax
 7eb:	bd 4b 08 4c f3       	mov    $0xf34c084b,%ebp
 7f0:	bb a0 08 13 4b       	mov    $0x4b1308a0,%ebx
 7f5:	75 71                	jne    868 <thread_run-0xfff798>
 7f7:	08 26                	or     %ah,(%esi)
 7f9:	4b                   	dec    %ebx
 7fa:	75 9f                	jne    79b <thread_run-0xfff865>
 7fc:	bb 03 09 82 79       	mov    $0x79820903,%ebx
 801:	08 21                	or     %ah,(%ecx)
 803:	08 16                	or     %dl,(%esi)
 805:	59                   	pop    %ecx
 806:	91                   	xchg   %eax,%ecx
 807:	cb                   	lret   
 808:	75 03                	jne    80d <thread_run-0xfff7f3>
 80a:	83 7f 82 88          	cmpl   $0xffffff88,-0x7e(%edi)
 80e:	86 a1 03 97 01 ba    	xchg   %ah,-0x45fe68fd(%ecx)
 814:	f3 81 03 ec 7e 08 12 	repz addl $0x12087eec,(%ebx)
 81b:	4b                   	dec    %ebx
 81c:	ad                   	lods   %ds:(%esi),%eax
 81d:	33 02                	xor    (%edx),%eax
 81f:	24 15                	and    $0x15,%al
 821:	92                   	xchg   %eax,%edx
 822:	75 03                	jne    827 <thread_run-0xfff7d9>
 824:	1e                   	push   %ds
 825:	4a                   	dec    %edx
 826:	08 4e 9f             	or     %cl,-0x61(%esi)
 829:	94                   	xchg   %eax,%esp
 82a:	68 08 9f a1 03       	push   $0x3a19f08
 82f:	9c                   	pushf  
 830:	7f c8                	jg     7fa <thread_run-0xfff806>
 832:	69 bc 08 4c 67 75 75 	imul   $0x93088575,0x7575674c(%eax,%ecx,1),%edi
 839:	75 85 08 93 
 83d:	02 02                	add    (%edx),%al
 83f:	00 01                	add    %al,(%ecx)
 841:	01 5d 00             	add    %ebx,0x0(%ebp)
 844:	00 00                	add    %al,(%eax)
 846:	02 00                	add    (%eax),%al
 848:	31 00                	xor    %eax,(%eax)
 84a:	00 00                	add    %al,(%eax)
 84c:	01 01                	add    %eax,(%ecx)
 84e:	fb                   	sti    
 84f:	0e                   	push   %cs
 850:	0d 00 01 01 01       	or     $0x1010100,%eax
 855:	01 00                	add    %eax,(%eax)
 857:	00 00                	add    %al,(%eax)
 859:	01 00                	add    %eax,(%eax)
 85b:	00 01                	add    %al,(%ecx)
 85d:	34 31                	xor    $0x31,%al
 85f:	30 75 73             	xor    %dh,0x73(%ebp)
 862:	65                   	gs
 863:	72 2f                	jb     894 <thread_run-0xfff76c>
 865:	6c                   	insb   (%dx),%es:(%edi)
 866:	69 62 6d 61 6c 6c 6f 	imul   $0x6f6c6c61,0x6d(%edx),%esp
 86d:	63 00                	arpl   %ax,(%eax)
 86f:	00 6d 65             	add    %ch,0x65(%ebp)
 872:	6d                   	insl   (%dx),%es:(%edi)
 873:	6c                   	insb   (%dx),%es:(%edi)
 874:	69 62 2e 63 00 01 00 	imul   $0x10063,0x2e(%edx),%esp
 87b:	00 00                	add    %al,(%eax)
 87d:	00 05 02 b0 1b 00    	add    %al,0x1bb002
 883:	01 03                	add    %eax,(%ebx)
 885:	2e 01 08             	add    %ecx,%cs:(%eax)
 888:	21 69 e8             	and    %ebp,-0x18(%ecx)
 88b:	9f                   	lahf   
 88c:	2f                   	das    
 88d:	67 69 f6 69 84 75 03 	addr16 imul $0x3758469,%esi,%esi
 894:	58                   	pop    %eax
 895:	c8 68 84 e5          	enter  $0x8468,$0xe5
 899:	2f                   	das    
 89a:	9d                   	popf   
 89b:	08 84 e5 02 02 00 01 	or     %al,0x1000202(%ebp,%eiz,8)
 8a2:	01 8e 00 00 00 02    	add    %ecx,0x2000000(%esi)
 8a8:	00 4c 00 00          	add    %cl,0x0(%eax,%eax,1)
 8ac:	00 01                	add    %al,(%ecx)
 8ae:	01 fb                	add    %edi,%ebx
 8b0:	0e                   	push   %cs
 8b1:	0d 00 01 01 01       	or     $0x1010100,%eax
 8b6:	01 00                	add    %eax,(%eax)
 8b8:	00 00                	add    %al,(%eax)
 8ba:	01 00                	add    %eax,(%eax)
 8bc:	00 01                	add    %al,(%ecx)
 8be:	75 73                	jne    933 <thread_run-0xfff6cd>
 8c0:	65                   	gs
 8c1:	72 2f                	jb     8f2 <thread_run-0xfff70e>
 8c3:	6c                   	insb   (%dx),%es:(%edi)
 8c4:	69 62 73 79 73 63 61 	imul   $0x61637379,0x73(%edx),%esp
 8cb:	6c                   	insb   (%dx),%es:(%edi)
 8cc:	6c                   	insb   (%dx),%es:(%edi)
 8cd:	00 73 70             	add    %dh,0x70(%ebx)
 8d0:	65 63 00             	arpl   %ax,%gs:(%eax)
 8d3:	00 73 79             	add    %dh,0x79(%ebx)
 8d6:	73 63                	jae    93b <thread_run-0xfff6c5>
 8d8:	61                   	popa   
 8d9:	6c                   	insb   (%dx),%es:(%edi)
 8da:	6c                   	insb   (%dx),%es:(%edi)
 8db:	2e 63 00             	arpl   %ax,%cs:(%eax)
 8de:	01 00                	add    %eax,(%eax)
 8e0:	00 75 72             	add    %dh,0x72(%ebp)
 8e3:	65                   	gs
 8e4:	67                   	addr16
 8e5:	2e                   	cs
 8e6:	68 00 02 00 00       	push   $0x200
 8eb:	73 79                	jae    966 <thread_run-0xfff69a>
 8ed:	73 63                	jae    952 <thread_run-0xfff6ae>
 8ef:	61                   	popa   
 8f0:	6c                   	insb   (%dx),%es:(%edi)
 8f1:	6c                   	insb   (%dx),%es:(%edi)
 8f2:	2e                   	cs
 8f3:	68 00 02 00 00       	push   $0x200
 8f8:	00 00                	add    %al,(%eax)
 8fa:	05 02 74 1c 00       	add    $0x1c7402,%eax
 8ff:	01 03                	add    %eax,(%ebx)
 901:	20 01                	and    %al,(%ecx)
 903:	3e 77 3e             	ja,pt  944 <thread_run-0xfff6bc>
 906:	03 10                	add    (%eax),%edx
 908:	2e                   	cs
 909:	3e 77 3e             	ja,pt  94a <thread_run-0xfff6b6>
 90c:	77 3e                	ja     94c <thread_run-0xfff6b4>
 90e:	77 3e                	ja     94e <thread_run-0xfff6b2>
 910:	77 3e                	ja     950 <thread_run-0xfff6b0>
 912:	03 0a                	add    (%edx),%ecx
 914:	74 3e                	je     954 <thread_run-0xfff6ac>
 916:	77 3e                	ja     956 <thread_run-0xfff6aa>
 918:	77 3e                	ja     958 <thread_run-0xfff6a8>
 91a:	77 3e                	ja     95a <thread_run-0xfff6a6>
 91c:	77 3e                	ja     95c <thread_run-0xfff6a4>
 91e:	77 3e                	ja     95e <thread_run-0xfff6a2>
 920:	77 3e                	ja     960 <thread_run-0xfff6a0>
 922:	77 5e                	ja     982 <thread_run-0xfff67e>
 924:	01 3e                	add    %edi,(%esi)
 926:	77 03                	ja     92b <thread_run-0xfff6d5>
 928:	0f 58 01             	addps  (%ecx),%xmm0
 92b:	3e 03 0a             	add    %ds:(%edx),%ecx
 92e:	74 3e                	je     96e <thread_run-0xfff692>
 930:	02 02                	add    (%edx),%al
 932:	00 01                	add    %al,(%ecx)
 934:	01 43 00             	add    %eax,0x0(%ebx)
 937:	00 00                	add    %al,(%eax)
 939:	02 00                	add    (%eax),%al
 93b:	2f                   	das    
 93c:	00 00                	add    %al,(%eax)
 93e:	00 01                	add    %al,(%ecx)
 940:	01 fb                	add    %edi,%ebx
 942:	0e                   	push   %cs
 943:	0d 00 01 01 01       	or     $0x1010100,%eax
 948:	01 00                	add    %eax,(%eax)
 94a:	00 00                	add    %al,(%eax)
 94c:	01 00                	add    %eax,(%eax)
 94e:	00 01                	add    %al,(%ecx)
 950:	75 73                	jne    9c5 <thread_run-0xfff63b>
 952:	65                   	gs
 953:	72 2f                	jb     984 <thread_run-0xfff67c>
 955:	6c                   	insb   (%dx),%es:(%edi)
 956:	69 62 73 79 73 63 61 	imul   $0x61637379,0x73(%edx),%esp
 95d:	6c                   	insb   (%dx),%es:(%edi)
 95e:	6c                   	insb   (%dx),%es:(%edi)
 95f:	00 00                	add    %al,(%eax)
 961:	76 61                	jbe    9c4 <thread_run-0xfff63c>
 963:	6e                   	outsb  %ds:(%esi),(%dx)
 964:	69 73 68 2e 53 00 01 	imul   $0x100532e,0x68(%ebx),%esi
 96b:	00 00                	add    %al,(%eax)
 96d:	00 00                	add    %al,(%eax)
 96f:	05 02 20 1d 00       	add    $0x1d2002,%eax
 974:	01 17                	add    %edx,(%edi)
 976:	2f                   	das    
 977:	02 01                	add    (%ecx),%al
 979:	00 01                	add    %al,(%ecx)
 97b:	01 4a 00             	add    %ecx,0x0(%edx)
 97e:	00 00                	add    %al,(%eax)
 980:	02 00                	add    (%eax),%al
 982:	32 00                	xor    (%eax),%al
 984:	00 00                	add    %al,(%eax)
 986:	01 01                	add    %eax,(%ecx)
 988:	fb                   	sti    
 989:	0e                   	push   %cs
 98a:	0d 00 01 01 01       	or     $0x1010100,%eax
 98f:	01 00                	add    %eax,(%eax)
 991:	00 00                	add    %al,(%eax)
 993:	01 00                	add    %eax,(%eax)
 995:	00 01                	add    %al,(%ecx)
 997:	75 73                	jne    a0c <thread_run-0xfff5f4>
 999:	65                   	gs
 99a:	72 2f                	jb     9cb <thread_run-0xfff635>
 99c:	6c                   	insb   (%dx),%es:(%edi)
 99d:	69 62 73 79 73 63 61 	imul   $0x61637379,0x73(%edx),%esp
 9a4:	6c                   	insb   (%dx),%es:(%edi)
 9a5:	6c                   	insb   (%dx),%es:(%edi)
 9a6:	00 00                	add    %al,(%eax)
 9a8:	6e                   	outsb  %ds:(%esi),(%dx)
 9a9:	65                   	gs
 9aa:	77 5f                	ja     a0b <thread_run-0xfff5f5>
 9ac:	70 61                	jo     a0f <thread_run-0xfff5f1>
 9ae:	67                   	addr16
 9af:	65                   	gs
 9b0:	73 2e                	jae    9e0 <thread_run-0xfff620>
 9b2:	53                   	push   %ebx
 9b3:	00 01                	add    %al,(%ecx)
 9b5:	00 00                	add    %al,(%eax)
 9b7:	00 00                	add    %al,(%eax)
 9b9:	05 02 24 1d 00       	add    $0x1d2402,%eax
 9be:	01 17                	add    %edx,(%edi)
 9c0:	21 2f                	and    %ebp,(%edi)
 9c2:	3d 2f 21 02 01       	cmp    $0x102212f,%eax
 9c7:	00 01                	add    %al,(%ecx)
 9c9:	01 42 00             	add    %eax,0x0(%edx)
 9cc:	00 00                	add    %al,(%eax)
 9ce:	02 00                	add    (%eax),%al
 9d0:	27                   	daa    
 9d1:	00 00                	add    %al,(%eax)
 9d3:	00 01                	add    %al,(%ecx)
 9d5:	01 fb                	add    %edi,%ebx
 9d7:	0e                   	push   %cs
 9d8:	0d 00 01 01 01       	or     $0x1010100,%eax
 9dd:	01 00                	add    %eax,(%eax)
 9df:	00 00                	add    %al,(%eax)
 9e1:	01 00                	add    %eax,(%eax)
 9e3:	00 01                	add    %al,(%ecx)
 9e5:	75 73                	jne    a5a <thread_run-0xfff5a6>
 9e7:	65                   	gs
 9e8:	72 00                	jb     9ea <thread_run-0xfff616>
 9ea:	00 61 75             	add    %ah,0x75(%ecx)
 9ed:	74 6f                	je     a5e <thread_run-0xfff5a2>
 9ef:	73 74                	jae    a65 <thread_run-0xfff59b>
 9f1:	61                   	popa   
 9f2:	63 6b 2e             	arpl   %bp,0x2e(%ebx)
 9f5:	63 00                	arpl   %ax,(%eax)
 9f7:	01 00                	add    %eax,(%eax)
 9f9:	00 00                	add    %al,(%eax)
 9fb:	00 05 02 30 1d 00    	add    %al,0x1d3002
 a01:	01 03                	add    %eax,(%ebx)
 a03:	0a 01                	or     (%ecx),%al
 a05:	08 24 08             	or     %ah,(%eax,%ecx,1)
 a08:	ad                   	lods   %ds:(%esi),%eax
 a09:	83 85 02 0a 00 01 01 	addl   $0x1,0x1000a02(%ebp)
 a10:	74 00                	je     a12 <thread_run-0xfff5ee>
 a12:	00 00                	add    %al,(%eax)
 a14:	02 00                	add    (%eax),%al
 a16:	2d 00 00 00 01       	sub    $0x1000000,%eax
 a1b:	01 fb                	add    %edi,%ebx
 a1d:	0e                   	push   %cs
 a1e:	0d 00 01 01 01       	or     $0x1010100,%eax
 a23:	01 00                	add    %eax,(%eax)
 a25:	00 00                	add    %al,(%eax)
 a27:	01 00                	add    %eax,(%eax)
 a29:	00 01                	add    %al,(%ecx)
 a2b:	34 31                	xor    $0x31,%al
 a2d:	30 75 73             	xor    %dh,0x73(%ebp)
 a30:	65                   	gs
 a31:	72 2f                	jb     a62 <thread_run-0xfff59e>
 a33:	6c                   	insb   (%dx),%es:(%edi)
 a34:	69 62 78 38 36 00 00 	imul   $0x3638,0x78(%edx),%esp
 a3b:	62 63 6f             	bound  %esp,0x6f(%ebx)
 a3e:	70 79                	jo     ab9 <thread_run-0xfff547>
 a40:	2e                   	cs
 a41:	53                   	push   %ebx
 a42:	00 01                	add    %al,(%ecx)
 a44:	00 00                	add    %al,(%eax)
 a46:	00 00                	add    %al,(%eax)
 a48:	05 02 78 1d 00       	add    $0x1d7802,%eax
 a4d:	01 03                	add    %eax,(%ebx)
 a4f:	c6 00 01             	movb   $0x1,(%eax)
 a52:	21 2f                	and    %ebp,(%edi)
 a54:	21 21                	and    %esp,(%ecx)
 a56:	3d 3e 3d 3d 2f       	cmp    $0x2f3d3d3e,%eax
 a5b:	2f                   	das    
 a5c:	3d 2f 2f 2f 2f       	cmp    $0x2f2f2f2f,%eax
 a61:	30 3d 3d 21 30 21    	xor    %bh,0x2130213d
 a67:	21 23                	and    %esp,(%ebx)
 a69:	3d 21 21 21 22       	cmp    $0x22212121,%eax
 a6e:	21 2f                	and    %ebp,(%edi)
 a70:	3d 2f 21 22 2f       	cmp    $0x2f22212f,%eax
 a75:	3d 21 23 3d 21       	cmp    $0x213d2321,%eax
 a7a:	21 21                	and    %esp,(%ecx)
 a7c:	50                   	push   %eax
 a7d:	21 2f                	and    %ebp,(%edi)
 a7f:	21 21                	and    %esp,(%ecx)
 a81:	3d 3d 02 02 00       	cmp    $0x2023d,%eax
 a86:	01 01                	add    %eax,(%ecx)
 a88:	58                   	pop    %eax
 a89:	00 00                	add    %al,(%eax)
 a8b:	00 02                	add    %al,(%edx)
 a8d:	00 2d 00 00 00 01    	add    %ch,0x1000000
 a93:	01 fb                	add    %edi,%ebx
 a95:	0e                   	push   %cs
 a96:	0d 00 01 01 01       	or     $0x1010100,%eax
 a9b:	01 00                	add    %eax,(%eax)
 a9d:	00 00                	add    %al,(%eax)
 a9f:	01 00                	add    %eax,(%eax)
 aa1:	00 01                	add    %al,(%ecx)
 aa3:	34 31                	xor    $0x31,%al
 aa5:	30 75 73             	xor    %dh,0x73(%ebp)
 aa8:	65                   	gs
 aa9:	72 2f                	jb     ada <thread_run-0xfff526>
 aab:	6c                   	insb   (%dx),%es:(%edi)
 aac:	69 62 78 38 36 00 00 	imul   $0x3638,0x78(%edx),%esp
 ab3:	62 7a 65             	bound  %edi,0x65(%edx)
 ab6:	72 6f                	jb     b27 <thread_run-0xfff4d9>
 ab8:	2e                   	cs
 ab9:	53                   	push   %ebx
 aba:	00 01                	add    %al,(%ecx)
 abc:	00 00                	add    %al,(%eax)
 abe:	00 00                	add    %al,(%eax)
 ac0:	05 02 d8 1d 00       	add    $0x1dd802,%eax
 ac5:	01 03                	add    %eax,(%ebx)
 ac7:	0d 01 21 4b 4c       	or     $0x4c4b2101,%eax
 acc:	21 35 3d 30 2f 2f    	and    %esi,0x2f2f303d
 ad2:	3d 2f 21 22 2f       	cmp    $0x2f22212f,%eax
 ad7:	3d 3d 21 22 2f       	cmp    $0x2f22213d,%eax
 adc:	21 22                	and    %esp,(%edx)
 ade:	21 02                	and    %eax,(%edx)
 ae0:	01 00                	add    %eax,(%eax)
 ae2:	01 01                	add    %eax,(%ecx)
 ae4:	e5 00                	in     $0x0,%eax
 ae6:	00 00                	add    %al,(%eax)
 ae8:	02 00                	add    (%eax),%al
 aea:	2f                   	das    
 aeb:	00 00                	add    %al,(%eax)
 aed:	00 01                	add    %al,(%ecx)
 aef:	01 fb                	add    %edi,%ebx
 af1:	0e                   	push   %cs
 af2:	0d 00 01 01 01       	or     $0x1010100,%eax
 af7:	01 00                	add    %eax,(%eax)
 af9:	00 00                	add    %al,(%eax)
 afb:	01 00                	add    %eax,(%eax)
 afd:	00 01                	add    %al,(%ecx)
 aff:	34 31                	xor    $0x31,%al
 b01:	30 75 73             	xor    %dh,0x73(%ebp)
 b04:	65                   	gs
 b05:	72 2f                	jb     b36 <thread_run-0xfff4ca>
 b07:	6c                   	insb   (%dx),%es:(%edi)
 b08:	69 62 78 38 36 00 00 	imul   $0x3638,0x78(%edx),%esp
 b0f:	67 63 63 69          	arpl   %sp,0x69(%bp,%di)
 b13:	73 6d                	jae    b82 <thread_run-0xfff47e>
 b15:	73 2e                	jae    b45 <thread_run-0xfff4bb>
 b17:	63 00                	arpl   %ax,(%eax)
 b19:	01 00                	add    %eax,(%eax)
 b1b:	00 00                	add    %al,(%eax)
 b1d:	00 05 02 10 1e 00    	add    %al,0x1e1002
 b23:	01 03                	add    %eax,(%ebx)
 b25:	a3 02 01 cb d7       	mov    %eax,0xd7cb0102
 b2a:	02 27                	add    (%edi),%ah
 b2c:	11 cb                	adc    %ecx,%ebx
 b2e:	08 13                	or     %dl,(%ebx)
 b30:	03 b0 7e 82 03 0b    	add    0xb03827e(%eax),%esi
 b36:	08 74 6a 08          	or     %dh,0x8(%edx,%ebp,2)
 b3a:	21 4b 59             	and    %ecx,0x59(%ebx)
 b3d:	92                   	xchg   %eax,%edx
 b3e:	9f                   	lahf   
 b3f:	08 21                	or     %ah,(%ecx)
 b41:	03 15 9e 83 c9 9f    	add    0x9fc9839e,%edx
 b47:	c9                   	leave  
 b48:	d8 91 91 91 9f 03    	fcoms  0x39f9191(%ecx)
 b4e:	0f 02 52 01          	lar    0x1(%edx),%edx
 b52:	f4                   	hlt    
 b53:	08 3e                	or     %bh,(%esi)
 b55:	08 22                	or     %ah,(%edx)
 b57:	4b                   	dec    %ebx
 b58:	08 21                	or     %ah,(%ecx)
 b5a:	08 9f 08 83 03 09    	or     %bl,0x9038308(%edi)
 b60:	02 27                	add    (%edi),%ah
 b62:	01 08                	add    %ecx,(%eax)
 b64:	c9                   	leave  
 b65:	3b f4                	cmp    %esp,%esi
 b67:	f3 ab                	rep stos %eax,%es:(%edi)
 b69:	84 03                	test   %al,(%ebx)
 b6b:	09 82 08 3d 3b f4    	or     %eax,-0xbc4c2f8(%edx)
 b71:	4b                   	dec    %ebx
 b72:	08 13                	or     %dl,(%ebx)
 b74:	08 26                	or     %ah,(%esi)
 b76:	9f                   	lahf   
 b77:	03 18                	add    (%eax),%ebx
 b79:	08 c8                	or     %cl,%al
 b7b:	03 f8                	add    %eax,%edi
 b7d:	7e ac                	jle    b2b <thread_run-0xfff4d5>
 b7f:	03 fc                	add    %esp,%edi
 b81:	00 82 91 4b 4b 6b    	add    %al,0x6b4b4b91(%edx)
 b87:	76 92                	jbe    b1b <thread_run-0xfff4e5>
 b89:	76 3d                	jbe    bc8 <thread_run-0xfff438>
 b8b:	b7 03                	mov    $0x3,%bh
 b8d:	0c 08                	or     $0x8,%al
 b8f:	20 08                	and    %cl,(%eax)
 b91:	75 08                	jne    b9b <thread_run-0xfff465>
 b93:	21 83 08 1d bf c9    	and    %eax,-0x3640e2f8(%ebx)
 b99:	a5                   	movsl  %ds:(%esi),%es:(%edi)
 b9a:	76 08                	jbe    ba4 <thread_run-0xfff45c>
 b9c:	75 59                	jne    bf7 <thread_run-0xfff409>
 b9e:	59                   	pop    %ecx
 b9f:	39 b9 42 08 3e ad    	cmp    %edi,-0x52c1f7be(%ecx)
 ba5:	08 dd                	or     %bl,%ch
 ba7:	4b                   	dec    %ebx
 ba8:	75 9f                	jne    b49 <thread_run-0xfff4b7>
 baa:	02 32                	add    (%edx),%dh
 bac:	11 03                	adc    %eax,(%ebx)
 bae:	cc                   	int3   
 baf:	7e c8                	jle    b79 <thread_run-0xfff487>
 bb1:	03 b7 01 4a 76 ad    	add    -0x5289b5ff(%edi),%esi
 bb7:	ad                   	lods   %ds:(%esi),%eax
 bb8:	5b                   	pop    %ebx
 bb9:	75 75                	jne    c30 <thread_run-0xfff3d0>
 bbb:	f3 03 18             	repz add (%eax),%ebx
 bbe:	82                   	(bad)  
 bbf:	69 02 28 14 a5 68    	imul   $0x68a51428,(%edx),%eax
 bc5:	02 28                	add    (%eax),%ch
 bc7:	13 02                	adc    (%edx),%eax
 bc9:	02 00                	add    (%eax),%al
 bcb:	01 01                	add    %eax,(%ecx)

Disassembly of section .debug_frame:

00000000 <.debug_frame>:
   0:	10 00                	adc    %al,(%eax)
   2:	00 00                	add    %al,(%eax)
   4:	ff                   	(bad)  
   5:	ff                   	(bad)  
   6:	ff                   	(bad)  
   7:	ff 01                	incl   (%ecx)
   9:	00 01                	add    %al,(%ecx)
   b:	7c 08                	jl     15 <thread_run-0xffffeb>
   d:	0c 04                	or     $0x4,%al
   f:	04 88                	add    $0x88,%al
  11:	01 00                	add    %eax,(%eax)
  13:	00 14 00             	add    %dl,(%eax,%eax,1)
	...
  1e:	00 01                	add    %al,(%ecx)
  20:	1d 00 00 00 41       	sbb    $0x41000000,%eax
  25:	0e                   	push   %cs
  26:	08 85 02 42 0d 05    	or     %al,0x50d4202(%ebp)
  2c:	14 00                	adc    $0x0,%al
  2e:	00 00                	add    %al,(%eax)
  30:	00 00                	add    %al,(%eax)
  32:	00 00                	add    %al,(%eax)
  34:	1d 00 00 01 66       	sbb    $0x66010000,%eax
  39:	00 00                	add    %al,(%eax)
  3b:	00 41 0e             	add    %al,0xe(%ecx)
  3e:	08 85 02 42 0d 05    	or     %al,0x50d4202(%ebp)
  44:	10 00                	adc    %al,(%eax)
  46:	00 00                	add    %al,(%eax)
  48:	ff                   	(bad)  
  49:	ff                   	(bad)  
  4a:	ff                   	(bad)  
  4b:	ff 01                	incl   (%ecx)
  4d:	00 01                	add    %al,(%ecx)
  4f:	7c 08                	jl     59 <thread_run-0xffffa7>
  51:	0c 04                	or     $0x4,%al
  53:	04 88                	add    $0x88,%al
  55:	01 00                	add    %eax,(%eax)
  57:	00 14 00             	add    %dl,(%eax,%eax,1)
  5a:	00 00                	add    %al,(%eax)
  5c:	44                   	inc    %esp
  5d:	00 00                	add    %al,(%eax)
  5f:	00 84 00 00 01 32 00 	add    %al,0x320100(%eax,%eax,1)
  66:	00 00                	add    %al,(%eax)
  68:	41                   	inc    %ecx
  69:	0e                   	push   %cs
  6a:	08 85 02 42 0d 05    	or     %al,0x50d4202(%ebp)
  70:	10 00                	adc    %al,(%eax)
  72:	00 00                	add    %al,(%eax)
  74:	ff                   	(bad)  
  75:	ff                   	(bad)  
  76:	ff                   	(bad)  
  77:	ff 01                	incl   (%ecx)
  79:	00 01                	add    %al,(%ecx)
  7b:	7c 08                	jl     85 <thread_run-0xffff7b>
  7d:	0c 04                	or     $0x4,%al
  7f:	04 88                	add    $0x88,%al
  81:	01 00                	add    %eax,(%eax)
  83:	00 1c 00             	add    %bl,(%eax,%eax,1)
  86:	00 00                	add    %al,(%eax)
  88:	70 00                	jo     8a <thread_run-0xffff76>
  8a:	00 00                	add    %al,(%eax)
  8c:	b8 00 00 01 0d       	mov    $0xd010000,%eax
  91:	00 00                	add    %al,(%eax)
  93:	00 41 0e             	add    %al,0xe(%ecx)
  96:	08 85 02 42 0d 05    	or     %al,0x50d4202(%ebp)
  9c:	49                   	dec    %ecx
  9d:	c5 0c 04             	lds    (%esp,%eax,1),%ecx
  a0:	04 00                	add    $0x0,%al
  a2:	00 00                	add    %al,(%eax)
  a4:	1c 00                	sbb    $0x0,%al
  a6:	00 00                	add    %al,(%eax)
  a8:	70 00                	jo     aa <thread_run-0xffff56>
  aa:	00 00                	add    %al,(%eax)
  ac:	c5 00                	lds    (%eax),%eax
  ae:	00 01                	add    %al,(%ecx)
  b0:	0d 00 00 00 41       	or     $0x41000000,%eax
  b5:	0e                   	push   %cs
  b6:	08 85 02 42 0d 05    	or     %al,0x50d4202(%ebp)
  bc:	49                   	dec    %ecx
  bd:	c5 0c 04             	lds    (%esp,%eax,1),%ecx
  c0:	04 00                	add    $0x0,%al
  c2:	00 00                	add    %al,(%eax)
  c4:	1c 00                	sbb    $0x0,%al
  c6:	00 00                	add    %al,(%eax)
  c8:	70 00                	jo     ca <thread_run-0xffff36>
  ca:	00 00                	add    %al,(%eax)
  cc:	d2 00                	rolb   %cl,(%eax)
  ce:	00 01                	add    %al,(%ecx)
  d0:	0a 00                	or     (%eax),%al
  d2:	00 00                	add    %al,(%eax)
  d4:	41                   	inc    %ecx
  d5:	0e                   	push   %cs
  d6:	08 85 02 42 0d 05    	or     %al,0x50d4202(%ebp)
  dc:	46                   	inc    %esi
  dd:	c5 0c 04             	lds    (%esp,%eax,1),%ecx
  e0:	04 00                	add    $0x0,%al
  e2:	00 00                	add    %al,(%eax)
  e4:	1c 00                	sbb    $0x0,%al
  e6:	00 00                	add    %al,(%eax)
  e8:	70 00                	jo     ea <thread_run-0xffff16>
  ea:	00 00                	add    %al,(%eax)
  ec:	dc 00                	faddl  (%eax)
  ee:	00 01                	add    %al,(%ecx)
  f0:	0a 00                	or     (%eax),%al
  f2:	00 00                	add    %al,(%eax)
  f4:	41                   	inc    %ecx
  f5:	0e                   	push   %cs
  f6:	08 85 02 42 0d 05    	or     %al,0x50d4202(%ebp)
  fc:	46                   	inc    %esi
  fd:	c5 0c 04             	lds    (%esp,%eax,1),%ecx
 100:	04 00                	add    $0x0,%al
 102:	00 00                	add    %al,(%eax)
 104:	1c 00                	sbb    $0x0,%al
 106:	00 00                	add    %al,(%eax)
 108:	70 00                	jo     10a <thread_run-0xfffef6>
 10a:	00 00                	add    %al,(%eax)
 10c:	e6 00                	out    %al,$0x0
 10e:	00 01                	add    %al,(%ecx)
 110:	05 00 00 00 41       	add    $0x41000000,%eax
 115:	0e                   	push   %cs
 116:	08 85 02 42 0d 05    	or     %al,0x50d4202(%ebp)
 11c:	41                   	inc    %ecx
 11d:	c5 0c 04             	lds    (%esp,%eax,1),%ecx
 120:	04 00                	add    $0x0,%al
 122:	00 00                	add    %al,(%eax)
 124:	1c 00                	sbb    $0x0,%al
 126:	00 00                	add    %al,(%eax)
 128:	70 00                	jo     12a <thread_run-0xfffed6>
 12a:	00 00                	add    %al,(%eax)
 12c:	eb 00                	jmp    12e <thread_run-0xfffed2>
 12e:	00 01                	add    %al,(%ecx)
 130:	0a 00                	or     (%eax),%al
 132:	00 00                	add    %al,(%eax)
 134:	41                   	inc    %ecx
 135:	0e                   	push   %cs
 136:	08 85 02 42 0d 05    	or     %al,0x50d4202(%ebp)
 13c:	46                   	inc    %esi
 13d:	c5 0c 04             	lds    (%esp,%eax,1),%ecx
 140:	04 00                	add    $0x0,%al
 142:	00 00                	add    %al,(%eax)
 144:	1c 00                	sbb    $0x0,%al
 146:	00 00                	add    %al,(%eax)
 148:	70 00                	jo     14a <thread_run-0xfffeb6>
 14a:	00 00                	add    %al,(%eax)
 14c:	f5                   	cmc    
 14d:	00 00                	add    %al,(%eax)
 14f:	01 0a                	add    %ecx,(%edx)
 151:	00 00                	add    %al,(%eax)
 153:	00 41 0e             	add    %al,0xe(%ecx)
 156:	08 85 02 42 0d 05    	or     %al,0x50d4202(%ebp)
 15c:	46                   	inc    %esi
 15d:	c5 0c 04             	lds    (%esp,%eax,1),%ecx
 160:	04 00                	add    $0x0,%al
 162:	00 00                	add    %al,(%eax)
 164:	1c 00                	sbb    $0x0,%al
 166:	00 00                	add    %al,(%eax)
 168:	70 00                	jo     16a <thread_run-0xfffe96>
 16a:	00 00                	add    %al,(%eax)
 16c:	ff 00                	incl   (%eax)
 16e:	00 01                	add    %al,(%ecx)
 170:	05 00 00 00 41       	add    $0x41000000,%eax
 175:	0e                   	push   %cs
 176:	08 85 02 42 0d 05    	or     %al,0x50d4202(%ebp)
 17c:	41                   	inc    %ecx
 17d:	c5 0c 04             	lds    (%esp,%eax,1),%ecx
 180:	04 00                	add    $0x0,%al
 182:	00 00                	add    %al,(%eax)
 184:	24 00                	and    $0x0,%al
 186:	00 00                	add    %al,(%eax)
 188:	70 00                	jo     18a <thread_run-0xfffe76>
 18a:	00 00                	add    %al,(%eax)
 18c:	04 01                	add    $0x1,%al
 18e:	00 01                	add    %al,(%ecx)
 190:	5c                   	pop    %esp
 191:	00 00                	add    %al,(%eax)
 193:	00 41 0e             	add    %al,0xe(%ecx)
 196:	08 85 02 42 0d 05    	or     %al,0x50d4202(%ebp)
 19c:	45                   	inc    %ebp
 19d:	83 04 86 03          	addl   $0x3,(%esi,%eax,4)
 1a1:	02 51 c3             	add    -0x3d(%ecx),%dl
 1a4:	41                   	inc    %ecx
 1a5:	c6 41 c5 0c          	movb   $0xc,-0x3b(%ecx)
 1a9:	04 04                	add    $0x4,%al
 1ab:	00 28                	add    %ch,(%eax)
 1ad:	00 00                	add    %al,(%eax)
 1af:	00 70 00             	add    %dh,0x0(%eax)
 1b2:	00 00                	add    %al,(%eax)
 1b4:	60                   	pusha  
 1b5:	01 00                	add    %eax,(%eax)
 1b7:	01 fd                	add    %edi,%ebp
 1b9:	00 00                	add    %al,(%eax)
 1bb:	00 41 0e             	add    %al,0xe(%ecx)
 1be:	08 85 02 42 0d 05    	or     %al,0x50d4202(%ebp)
 1c4:	4f                   	dec    %edi
 1c5:	87 03                	xchg   %eax,(%ebx)
 1c7:	86 04 83             	xchg   %al,(%ebx,%eax,4)
 1ca:	05 02 e9 0d 04       	add    $0x40de902,%eax
 1cf:	c7 c6 c3 41 c5 0e    	mov    $0xec541c3,%esi
 1d5:	04 00                	add    $0x0,%al
 1d7:	00 24 00             	add    %ah,(%eax,%eax,1)
 1da:	00 00                	add    %al,(%eax)
 1dc:	70 00                	jo     1de <thread_run-0xfffe22>
 1de:	00 00                	add    %al,(%eax)
 1e0:	5d                   	pop    %ebp
 1e1:	02 00                	add    (%eax),%al
 1e3:	01 4c 00 00          	add    %ecx,0x0(%eax,%eax,1)
 1e7:	00 41 0e             	add    %al,0xe(%ecx)
 1ea:	08 85 02 42 0d 05    	or     %al,0x50d4202(%ebp)
 1f0:	4c                   	dec    %esp
 1f1:	86 03                	xchg   %al,(%ebx)
 1f3:	83 04 7b 0d          	addl   $0xd,(%ebx,%edi,2)
 1f7:	04 c6                	add    $0xc6,%al
 1f9:	c3                   	ret    
 1fa:	41                   	inc    %ecx
 1fb:	c5 0e                	lds    (%esi),%ecx
 1fd:	04 00                	add    $0x0,%al
 1ff:	00 20                	add    %ah,(%eax)
 201:	00 00                	add    %al,(%eax)
 203:	00 70 00             	add    %dh,0x0(%eax)
 206:	00 00                	add    %al,(%eax)
 208:	a9 02 00 01 81       	test   $0x81010002,%eax
 20d:	00 00                	add    %al,(%eax)
 20f:	00 41 0e             	add    %al,0xe(%ecx)
 212:	08 85 02 42 0d 05    	or     %al,0x50d4202(%ebp)
 218:	4e                   	dec    %esi
 219:	83 03 02             	addl   $0x2,(%ebx)
 21c:	6e                   	outsb  %ds:(%esi),(%dx)
 21d:	c3                   	ret    
 21e:	41                   	inc    %ecx
 21f:	c5 0c 04             	lds    (%esp,%eax,1),%ecx
 222:	04 00                	add    $0x0,%al
 224:	28 00                	sub    %al,(%eax)
 226:	00 00                	add    %al,(%eax)
 228:	70 00                	jo     22a <thread_run-0xfffdd6>
 22a:	00 00                	add    %al,(%eax)
 22c:	2a 03                	sub    (%ebx),%al
 22e:	00 01                	add    %al,(%ecx)
 230:	31 01                	xor    %eax,(%ecx)
 232:	00 00                	add    %al,(%eax)
 234:	41                   	inc    %ecx
 235:	0e                   	push   %cs
 236:	08 85 02 42 0d 05    	or     %al,0x50d4202(%ebp)
 23c:	5b                   	pop    %ebx
 23d:	87 03                	xchg   %eax,(%ebx)
 23f:	86 04 83             	xchg   %al,(%ebx,%eax,4)
 242:	05 03 11 01 0d       	add    $0xd011103,%eax
 247:	04 c7                	add    $0xc7,%al
 249:	c6 c3 41             	mov    $0x41,%bl
 24c:	c5 0e                	lds    (%esi),%ecx
 24e:	04 00                	add    $0x0,%al
 250:	10 00                	adc    %al,(%eax)
 252:	00 00                	add    %al,(%eax)
 254:	ff                   	(bad)  
 255:	ff                   	(bad)  
 256:	ff                   	(bad)  
 257:	ff 01                	incl   (%ecx)
 259:	00 01                	add    %al,(%ecx)
 25b:	7c 08                	jl     265 <thread_run-0xfffd9b>
 25d:	0c 04                	or     $0x4,%al
 25f:	04 88                	add    $0x88,%al
 261:	01 00                	add    %eax,(%eax)
 263:	00 1c 00             	add    %bl,(%eax,%eax,1)
 266:	00 00                	add    %al,(%eax)
 268:	50                   	push   %eax
 269:	02 00                	add    (%eax),%al
 26b:	00 7c 04 00          	add    %bh,0x0(%esp,%eax,1)
 26f:	01 13                	add    %edx,(%ebx)
 271:	00 00                	add    %al,(%eax)
 273:	00 41 0e             	add    %al,0xe(%ecx)
 276:	08 85 02 42 0d 05    	or     %al,0x50d4202(%ebp)
 27c:	4f                   	dec    %edi
 27d:	c5 0c 04             	lds    (%esp,%eax,1),%ecx
 280:	04 00                	add    $0x0,%al
 282:	00 00                	add    %al,(%eax)
 284:	1c 00                	sbb    $0x0,%al
 286:	00 00                	add    %al,(%eax)
 288:	50                   	push   %eax
 289:	02 00                	add    (%eax),%al
 28b:	00 8f 04 00 01 1a    	add    %cl,0x1a010004(%edi)
 291:	00 00                	add    %al,(%eax)
 293:	00 41 0e             	add    %al,0xe(%ecx)
 296:	08 85 02 42 0d 05    	or     %al,0x50d4202(%ebp)
 29c:	56                   	push   %esi
 29d:	c5 0c 04             	lds    (%esp,%eax,1),%ecx
 2a0:	04 00                	add    $0x0,%al
 2a2:	00 00                	add    %al,(%eax)
 2a4:	1c 00                	sbb    $0x0,%al
 2a6:	00 00                	add    %al,(%eax)
 2a8:	50                   	push   %eax
 2a9:	02 00                	add    (%eax),%al
 2ab:	00 a9 04 00 01 1a    	add    %ch,0x1a010004(%ecx)
 2b1:	00 00                	add    %al,(%eax)
 2b3:	00 41 0e             	add    %al,0xe(%ecx)
 2b6:	08 85 02 42 0d 05    	or     %al,0x50d4202(%ebp)
 2bc:	56                   	push   %esi
 2bd:	c5 0c 04             	lds    (%esp,%eax,1),%ecx
 2c0:	04 00                	add    $0x0,%al
 2c2:	00 00                	add    %al,(%eax)
 2c4:	1c 00                	sbb    $0x0,%al
 2c6:	00 00                	add    %al,(%eax)
 2c8:	50                   	push   %eax
 2c9:	02 00                	add    (%eax),%al
 2cb:	00 c3                	add    %al,%bl
 2cd:	04 00                	add    $0x0,%al
 2cf:	01 13                	add    %edx,(%ebx)
 2d1:	00 00                	add    %al,(%eax)
 2d3:	00 41 0e             	add    %al,0xe(%ecx)
 2d6:	08 85 02 42 0d 05    	or     %al,0x50d4202(%ebp)
 2dc:	4f                   	dec    %edi
 2dd:	c5 0c 04             	lds    (%esp,%eax,1),%ecx
 2e0:	04 00                	add    $0x0,%al
 2e2:	00 00                	add    %al,(%eax)
 2e4:	10 00                	adc    %al,(%eax)
 2e6:	00 00                	add    %al,(%eax)
 2e8:	ff                   	(bad)  
 2e9:	ff                   	(bad)  
 2ea:	ff                   	(bad)  
 2eb:	ff 01                	incl   (%ecx)
 2ed:	00 01                	add    %al,(%ecx)
 2ef:	7c 08                	jl     2f9 <thread_run-0xfffd07>
 2f1:	0c 04                	or     $0x4,%al
 2f3:	04 88                	add    $0x88,%al
 2f5:	01 00                	add    %eax,(%eax)
 2f7:	00 1c 00             	add    %bl,(%eax,%eax,1)
 2fa:	00 00                	add    %al,(%eax)
 2fc:	e4 02                	in     $0x2,%al
 2fe:	00 00                	add    %al,(%eax)
 300:	d8 04 00             	fadds  (%eax,%eax,1)
 303:	01 14 00             	add    %edx,(%eax,%eax,1)
 306:	00 00                	add    %al,(%eax)
 308:	41                   	inc    %ecx
 309:	0e                   	push   %cs
 30a:	08 85 02 42 0d 05    	or     %al,0x50d4202(%ebp)
 310:	50                   	push   %eax
 311:	c5 0c 04             	lds    (%esp,%eax,1),%ecx
 314:	04 00                	add    $0x0,%al
 316:	00 00                	add    %al,(%eax)
 318:	1c 00                	sbb    $0x0,%al
 31a:	00 00                	add    %al,(%eax)
 31c:	e4 02                	in     $0x2,%al
 31e:	00 00                	add    %al,(%eax)
 320:	ec                   	in     (%dx),%al
 321:	04 00                	add    $0x0,%al
 323:	01 1b                	add    %ebx,(%ebx)
 325:	00 00                	add    %al,(%eax)
 327:	00 41 0e             	add    %al,0xe(%ecx)
 32a:	08 85 02 42 0d 05    	or     %al,0x50d4202(%ebp)
 330:	57                   	push   %edi
 331:	c5 0c 04             	lds    (%esp,%eax,1),%ecx
 334:	04 00                	add    $0x0,%al
 336:	00 00                	add    %al,(%eax)
 338:	1c 00                	sbb    $0x0,%al
 33a:	00 00                	add    %al,(%eax)
 33c:	e4 02                	in     $0x2,%al
 33e:	00 00                	add    %al,(%eax)
 340:	07                   	pop    %es
 341:	05 00 01 14 00       	add    $0x140100,%eax
 346:	00 00                	add    %al,(%eax)
 348:	41                   	inc    %ecx
 349:	0e                   	push   %cs
 34a:	08 85 02 42 0d 05    	or     %al,0x50d4202(%ebp)
 350:	50                   	push   %eax
 351:	c5 0c 04             	lds    (%esp,%eax,1),%ecx
 354:	04 00                	add    $0x0,%al
 356:	00 00                	add    %al,(%eax)
 358:	1c 00                	sbb    $0x0,%al
 35a:	00 00                	add    %al,(%eax)
 35c:	e4 02                	in     $0x2,%al
 35e:	00 00                	add    %al,(%eax)
 360:	1b 05 00 01 14 00    	sbb    0x140100,%eax
 366:	00 00                	add    %al,(%eax)
 368:	41                   	inc    %ecx
 369:	0e                   	push   %cs
 36a:	08 85 02 42 0d 05    	or     %al,0x50d4202(%ebp)
 370:	50                   	push   %eax
 371:	c5 0c 04             	lds    (%esp,%eax,1),%ecx
 374:	04 00                	add    $0x0,%al
 376:	00 00                	add    %al,(%eax)
 378:	1c 00                	sbb    $0x0,%al
 37a:	00 00                	add    %al,(%eax)
 37c:	e4 02                	in     $0x2,%al
 37e:	00 00                	add    %al,(%eax)
 380:	2f                   	das    
 381:	05 00 01 14 00       	add    $0x140100,%eax
 386:	00 00                	add    %al,(%eax)
 388:	41                   	inc    %ecx
 389:	0e                   	push   %cs
 38a:	08 85 02 42 0d 05    	or     %al,0x50d4202(%ebp)
 390:	50                   	push   %eax
 391:	c5 0c 04             	lds    (%esp,%eax,1),%ecx
 394:	04 00                	add    $0x0,%al
 396:	00 00                	add    %al,(%eax)
 398:	1c 00                	sbb    $0x0,%al
 39a:	00 00                	add    %al,(%eax)
 39c:	e4 02                	in     $0x2,%al
 39e:	00 00                	add    %al,(%eax)
 3a0:	43                   	inc    %ebx
 3a1:	05 00 01 1b 00       	add    $0x1b0100,%eax
 3a6:	00 00                	add    %al,(%eax)
 3a8:	41                   	inc    %ecx
 3a9:	0e                   	push   %cs
 3aa:	08 85 02 42 0d 05    	or     %al,0x50d4202(%ebp)
 3b0:	57                   	push   %edi
 3b1:	c5 0c 04             	lds    (%esp,%eax,1),%ecx
 3b4:	04 00                	add    $0x0,%al
 3b6:	00 00                	add    %al,(%eax)
 3b8:	1c 00                	sbb    $0x0,%al
 3ba:	00 00                	add    %al,(%eax)
 3bc:	e4 02                	in     $0x2,%al
 3be:	00 00                	add    %al,(%eax)
 3c0:	5e                   	pop    %esi
 3c1:	05 00 01 14 00       	add    $0x140100,%eax
 3c6:	00 00                	add    %al,(%eax)
 3c8:	41                   	inc    %ecx
 3c9:	0e                   	push   %cs
 3ca:	08 85 02 42 0d 05    	or     %al,0x50d4202(%ebp)
 3d0:	50                   	push   %eax
 3d1:	c5 0c 04             	lds    (%esp,%eax,1),%ecx
 3d4:	04 00                	add    $0x0,%al
 3d6:	00 00                	add    %al,(%eax)
 3d8:	1c 00                	sbb    $0x0,%al
 3da:	00 00                	add    %al,(%eax)
 3dc:	e4 02                	in     $0x2,%al
 3de:	00 00                	add    %al,(%eax)
 3e0:	72 05                	jb     3e7 <thread_run-0xfffc19>
 3e2:	00 01                	add    %al,(%ecx)
 3e4:	14 00                	adc    $0x0,%al
 3e6:	00 00                	add    %al,(%eax)
 3e8:	41                   	inc    %ecx
 3e9:	0e                   	push   %cs
 3ea:	08 85 02 42 0d 05    	or     %al,0x50d4202(%ebp)
 3f0:	50                   	push   %eax
 3f1:	c5 0c 04             	lds    (%esp,%eax,1),%ecx
 3f4:	04 00                	add    $0x0,%al
 3f6:	00 00                	add    %al,(%eax)
 3f8:	1c 00                	sbb    $0x0,%al
 3fa:	00 00                	add    %al,(%eax)
 3fc:	e4 02                	in     $0x2,%al
 3fe:	00 00                	add    %al,(%eax)
 400:	86 05 00 01 26 00    	xchg   %al,0x260100
 406:	00 00                	add    %al,(%eax)
 408:	41                   	inc    %ecx
 409:	0e                   	push   %cs
 40a:	08 85 02 42 0d 05    	or     %al,0x50d4202(%ebp)
 410:	62                   	(bad)  
 411:	c5 0c 04             	lds    (%esp,%eax,1),%ecx
 414:	04 00                	add    $0x0,%al
 416:	00 00                	add    %al,(%eax)
 418:	20 00                	and    %al,(%eax)
 41a:	00 00                	add    %al,(%eax)
 41c:	e4 02                	in     $0x2,%al
 41e:	00 00                	add    %al,(%eax)
 420:	ac                   	lods   %ds:(%esi),%al
 421:	05 00 01 3f 00       	add    $0x3f0100,%eax
 426:	00 00                	add    %al,(%eax)
 428:	41                   	inc    %ecx
 429:	0e                   	push   %cs
 42a:	08 85 02 42 0d 05    	or     %al,0x50d4202(%ebp)
 430:	63 83 03 57 c3 41    	arpl   %ax,0x41c35703(%ebx)
 436:	c5 0c 04             	lds    (%esp,%eax,1),%ecx
 439:	04 00                	add    $0x0,%al
 43b:	00 10                	add    %dl,(%eax)
 43d:	00 00                	add    %al,(%eax)
 43f:	00 ff                	add    %bh,%bh
 441:	ff                   	(bad)  
 442:	ff                   	(bad)  
 443:	ff 01                	incl   (%ecx)
 445:	00 01                	add    %al,(%ecx)
 447:	7c 08                	jl     451 <thread_run-0xfffbaf>
 449:	0c 04                	or     $0x4,%al
 44b:	04 88                	add    $0x88,%al
 44d:	01 00                	add    %eax,(%eax)
 44f:	00 1c 00             	add    %bl,(%eax,%eax,1)
 452:	00 00                	add    %al,(%eax)
 454:	3c 04                	cmp    $0x4,%al
 456:	00 00                	add    %al,(%eax)
 458:	04 06                	add    $0x6,%al
 45a:	00 01                	add    %al,(%ecx)
 45c:	23 00                	and    (%eax),%eax
 45e:	00 00                	add    %al,(%eax)
 460:	41                   	inc    %ecx
 461:	0e                   	push   %cs
 462:	08 85 02 42 0d 05    	or     %al,0x50d4202(%ebp)
 468:	5f                   	pop    %edi
 469:	c5 0c 04             	lds    (%esp,%eax,1),%ecx
 46c:	04 00                	add    $0x0,%al
 46e:	00 00                	add    %al,(%eax)
 470:	1c 00                	sbb    $0x0,%al
 472:	00 00                	add    %al,(%eax)
 474:	3c 04                	cmp    $0x4,%al
 476:	00 00                	add    %al,(%eax)
 478:	27                   	daa    
 479:	06                   	push   %es
 47a:	00 01                	add    %al,(%ecx)
 47c:	50                   	push   %eax
 47d:	00 00                	add    %al,(%eax)
 47f:	00 41 0e             	add    %al,0xe(%ecx)
 482:	08 85 02 42 0d 05    	or     %al,0x50d4202(%ebp)
 488:	02 4c c5 0c          	add    0xc(%ebp,%eax,8),%cl
 48c:	04 04                	add    $0x4,%al
 48e:	00 00                	add    %al,(%eax)
 490:	1c 00                	sbb    $0x0,%al
 492:	00 00                	add    %al,(%eax)
 494:	3c 04                	cmp    $0x4,%al
 496:	00 00                	add    %al,(%eax)
 498:	77 06                	ja     4a0 <thread_run-0xfffb60>
 49a:	00 01                	add    %al,(%ecx)
 49c:	28 00                	sub    %al,(%eax)
 49e:	00 00                	add    %al,(%eax)
 4a0:	41                   	inc    %ecx
 4a1:	0e                   	push   %cs
 4a2:	08 85 02 42 0d 05    	or     %al,0x50d4202(%ebp)
 4a8:	64 c5 0c 04          	lds    %fs:(%esp,%eax,1),%ecx
 4ac:	04 00                	add    $0x0,%al
 4ae:	00 00                	add    %al,(%eax)
 4b0:	1c 00                	sbb    $0x0,%al
 4b2:	00 00                	add    %al,(%eax)
 4b4:	3c 04                	cmp    $0x4,%al
 4b6:	00 00                	add    %al,(%eax)
 4b8:	9f                   	lahf   
 4b9:	06                   	push   %es
 4ba:	00 01                	add    %al,(%ecx)
 4bc:	4e                   	dec    %esi
 4bd:	00 00                	add    %al,(%eax)
 4bf:	00 41 0e             	add    %al,0xe(%ecx)
 4c2:	08 85 02 42 0d 05    	or     %al,0x50d4202(%ebp)
 4c8:	02 4a c5             	add    -0x3b(%edx),%cl
 4cb:	0c 04                	or     $0x4,%al
 4cd:	04 00                	add    $0x0,%al
 4cf:	00 1c 00             	add    %bl,(%eax,%eax,1)
 4d2:	00 00                	add    %al,(%eax)
 4d4:	3c 04                	cmp    $0x4,%al
 4d6:	00 00                	add    %al,(%eax)
 4d8:	ed                   	in     (%dx),%eax
 4d9:	06                   	push   %es
 4da:	00 01                	add    %al,(%ecx)
 4dc:	21 00                	and    %eax,(%eax)
 4de:	00 00                	add    %al,(%eax)
 4e0:	41                   	inc    %ecx
 4e1:	0e                   	push   %cs
 4e2:	08 85 02 42 0d 05    	or     %al,0x50d4202(%ebp)
 4e8:	5d                   	pop    %ebp
 4e9:	c5 0c 04             	lds    (%esp,%eax,1),%ecx
 4ec:	04 00                	add    $0x0,%al
 4ee:	00 00                	add    %al,(%eax)
 4f0:	10 00                	adc    %al,(%eax)
 4f2:	00 00                	add    %al,(%eax)
 4f4:	ff                   	(bad)  
 4f5:	ff                   	(bad)  
 4f6:	ff                   	(bad)  
 4f7:	ff 01                	incl   (%ecx)
 4f9:	00 01                	add    %al,(%ecx)
 4fb:	7c 08                	jl     505 <thread_run-0xfffafb>
 4fd:	0c 04                	or     $0x4,%al
 4ff:	04 88                	add    $0x88,%al
 501:	01 00                	add    %eax,(%eax)
 503:	00 28                	add    %ch,(%eax)
 505:	00 00                	add    %al,(%eax)
 507:	00 f0                	add    %dh,%al
 509:	04 00                	add    $0x0,%al
 50b:	00 10                	add    %dl,(%eax)
 50d:	07                   	pop    %es
 50e:	00 01                	add    %al,(%ecx)
 510:	55                   	push   %ebp
 511:	00 00                	add    %al,(%eax)
 513:	00 41 0e             	add    %al,0xe(%ecx)
 516:	08 85 02 42 0d 05    	or     %al,0x50d4202(%ebp)
 51c:	4f                   	dec    %edi
 51d:	83 05 86 04 87 03 7f 	addl   $0x7f,0x3870486
 524:	c3                   	ret    
 525:	41                   	inc    %ecx
 526:	c6 41 c7 41          	movb   $0x41,-0x39(%ecx)
 52a:	c5 0c 04             	lds    (%esp,%eax,1),%ecx
 52d:	04 00                	add    $0x0,%al
 52f:	00 28                	add    %ch,(%eax)
 531:	00 00                	add    %al,(%eax)
 533:	00 f0                	add    %dh,%al
 535:	04 00                	add    $0x0,%al
 537:	00 65 07             	add    %ah,0x7(%ebp)
 53a:	00 01                	add    %al,(%ecx)
 53c:	58                   	pop    %eax
 53d:	00 00                	add    %al,(%eax)
 53f:	00 41 0e             	add    %al,0xe(%ecx)
 542:	08 85 02 42 0d 05    	or     %al,0x50d4202(%ebp)
 548:	4f                   	dec    %edi
 549:	83 05 86 04 87 03 02 	addl   $0x2,0x3870486
 550:	42                   	inc    %edx
 551:	c3                   	ret    
 552:	41                   	inc    %ecx
 553:	c6 41 c7 41          	movb   $0x41,-0x39(%ecx)
 557:	c5 0c 04             	lds    (%esp,%eax,1),%ecx
 55a:	04 00                	add    $0x0,%al
 55c:	28 00                	sub    %al,(%eax)
 55e:	00 00                	add    %al,(%eax)
 560:	f0 04 00             	lock add $0x0,%al
 563:	00 bd 07 00 01 25    	add    %bh,0x25010007(%ebp)
 569:	0e                   	push   %cs
 56a:	00 00                	add    %al,(%eax)
 56c:	41                   	inc    %ecx
 56d:	0e                   	push   %cs
 56e:	08 85 02 42 0d 05    	or     %al,0x50d4202(%ebp)
 574:	49                   	dec    %ecx
 575:	83 05 86 04 87 03 03 	addl   $0x3,0x3870486
 57c:	15 0e c3 41 c6       	adc    $0xc641c30e,%eax
 581:	41                   	inc    %ecx
 582:	c7 41 c5 0c 04 04 10 	movl   $0x1004040c,-0x3b(%ecx)
 589:	00 00                	add    %al,(%eax)
 58b:	00 ff                	add    %bh,%bh
 58d:	ff                   	(bad)  
 58e:	ff                   	(bad)  
 58f:	ff 01                	incl   (%ecx)
 591:	00 01                	add    %al,(%ecx)
 593:	7c 08                	jl     59d <thread_run-0xfffa63>
 595:	0c 04                	or     $0x4,%al
 597:	04 88                	add    $0x88,%al
 599:	01 00                	add    %eax,(%eax)
 59b:	00 14 00             	add    %dl,(%eax,%eax,1)
 59e:	00 00                	add    %al,(%eax)
 5a0:	88 05 00 00 e4 15    	mov    %al,0x15e40000
 5a6:	00 01                	add    %al,(%ecx)
 5a8:	16                   	push   %ss
 5a9:	00 00                	add    %al,(%eax)
 5ab:	00 41 0e             	add    %al,0xe(%ecx)
 5ae:	08 85 02 42 0d 05    	or     %al,0x50d4202(%ebp)
 5b4:	10 00                	adc    %al,(%eax)
 5b6:	00 00                	add    %al,(%eax)
 5b8:	ff                   	(bad)  
 5b9:	ff                   	(bad)  
 5ba:	ff                   	(bad)  
 5bb:	ff 01                	incl   (%ecx)
 5bd:	00 01                	add    %al,(%ecx)
 5bf:	7c 08                	jl     5c9 <thread_run-0xfffa37>
 5c1:	0c 04                	or     $0x4,%al
 5c3:	04 88                	add    $0x88,%al
 5c5:	01 00                	add    %eax,(%eax)
 5c7:	00 20                	add    %ah,(%eax)
 5c9:	00 00                	add    %al,(%eax)
 5cb:	00 b4 05 00 00 fc 15 	add    %dh,0x15fc0000(%ebp,%eax,1)
 5d2:	00 01                	add    %al,(%ecx)
 5d4:	23 00                	and    (%eax),%eax
 5d6:	00 00                	add    %al,(%eax)
 5d8:	41                   	inc    %ecx
 5d9:	0e                   	push   %cs
 5da:	08 85 02 42 0d 05    	or     %al,0x50d4202(%ebp)
 5e0:	47                   	inc    %edi
 5e1:	83 03 57             	addl   $0x57,(%ebx)
 5e4:	c3                   	ret    
 5e5:	41                   	inc    %ecx
 5e6:	c5 0c 04             	lds    (%esp,%eax,1),%ecx
 5e9:	04 00                	add    $0x0,%al
 5eb:	00 10                	add    %dl,(%eax)
 5ed:	00 00                	add    %al,(%eax)
 5ef:	00 ff                	add    %bh,%bh
 5f1:	ff                   	(bad)  
 5f2:	ff                   	(bad)  
 5f3:	ff 01                	incl   (%ecx)
 5f5:	00 01                	add    %al,(%ecx)
 5f7:	7c 08                	jl     601 <thread_run-0xfff9ff>
 5f9:	0c 04                	or     $0x4,%al
 5fb:	04 88                	add    $0x88,%al
 5fd:	01 00                	add    %eax,(%eax)
 5ff:	00 1c 00             	add    %bl,(%eax,%eax,1)
 602:	00 00                	add    %al,(%eax)
 604:	ec                   	in     (%dx),%al
 605:	05 00 00 20 16       	add    $0x16200000,%eax
 60a:	00 01                	add    %al,(%ecx)
 60c:	18 00                	sbb    %al,(%eax)
 60e:	00 00                	add    %al,(%eax)
 610:	41                   	inc    %ecx
 611:	0e                   	push   %cs
 612:	08 85 02 42 0d 05    	or     %al,0x50d4202(%ebp)
 618:	54                   	push   %esp
 619:	c5 0c 04             	lds    (%esp,%eax,1),%ecx
 61c:	04 00                	add    $0x0,%al
 61e:	00 00                	add    %al,(%eax)
 620:	10 00                	adc    %al,(%eax)
 622:	00 00                	add    %al,(%eax)
 624:	ff                   	(bad)  
 625:	ff                   	(bad)  
 626:	ff                   	(bad)  
 627:	ff 01                	incl   (%ecx)
 629:	00 01                	add    %al,(%ecx)
 62b:	7c 08                	jl     635 <thread_run-0xfff9cb>
 62d:	0c 04                	or     $0x4,%al
 62f:	04 88                	add    $0x88,%al
 631:	01 00                	add    %eax,(%eax)
 633:	00 1c 00             	add    %bl,(%eax,%eax,1)
 636:	00 00                	add    %al,(%eax)
 638:	20 06                	and    %al,(%esi)
 63a:	00 00                	add    %al,(%eax)
 63c:	38 16                	cmp    %dl,(%esi)
 63e:	00 01                	add    %al,(%ecx)
 640:	1c 00                	sbb    $0x0,%al
 642:	00 00                	add    %al,(%eax)
 644:	41                   	inc    %ecx
 645:	0e                   	push   %cs
 646:	08 85 02 42 0d 05    	or     %al,0x50d4202(%ebp)
 64c:	58                   	pop    %eax
 64d:	c5 0c 04             	lds    (%esp,%eax,1),%ecx
 650:	04 00                	add    $0x0,%al
 652:	00 00                	add    %al,(%eax)
 654:	1c 00                	sbb    $0x0,%al
 656:	00 00                	add    %al,(%eax)
 658:	20 06                	and    %al,(%esi)
 65a:	00 00                	add    %al,(%eax)
 65c:	54                   	push   %esp
 65d:	16                   	push   %ss
 65e:	00 01                	add    %al,(%ecx)
 660:	28 00                	sub    %al,(%eax)
 662:	00 00                	add    %al,(%eax)
 664:	41                   	inc    %ecx
 665:	0e                   	push   %cs
 666:	08 85 02 42 0d 05    	or     %al,0x50d4202(%ebp)
 66c:	64 c5 0c 04          	lds    %fs:(%esp,%eax,1),%ecx
 670:	04 00                	add    $0x0,%al
 672:	00 00                	add    %al,(%eax)
 674:	1c 00                	sbb    $0x0,%al
 676:	00 00                	add    %al,(%eax)
 678:	20 06                	and    %al,(%esi)
 67a:	00 00                	add    %al,(%eax)
 67c:	7c 16                	jl     694 <thread_run-0xfff96c>
 67e:	00 01                	add    %al,(%ecx)
 680:	36 00 00             	add    %al,%ss:(%eax)
 683:	00 41 0e             	add    %al,0xe(%ecx)
 686:	08 85 02 42 0d 05    	or     %al,0x50d4202(%ebp)
 68c:	72 c5                	jb     653 <thread_run-0xfff9ad>
 68e:	0c 04                	or     $0x4,%al
 690:	04 00                	add    $0x0,%al
 692:	00 00                	add    %al,(%eax)
 694:	24 00                	and    $0x0,%al
 696:	00 00                	add    %al,(%eax)
 698:	20 06                	and    %al,(%esi)
 69a:	00 00                	add    %al,(%eax)
 69c:	b2 16                	mov    $0x16,%dl
 69e:	00 01                	add    %al,(%ecx)
 6a0:	5a                   	pop    %edx
 6a1:	00 00                	add    %al,(%eax)
 6a3:	00 41 0e             	add    %al,0xe(%ecx)
 6a6:	08 85 02 42 0d 05    	or     %al,0x50d4202(%ebp)
 6ac:	52                   	push   %edx
 6ad:	86 03                	xchg   %al,(%ebx)
 6af:	83 04 02 43          	addl   $0x43,(%edx,%eax,1)
 6b3:	0d 04 c6 c3 41       	or     $0x41c3c604,%eax
 6b8:	c5 0e                	lds    (%esi),%ecx
 6ba:	04 00                	add    $0x0,%al
 6bc:	10 00                	adc    %al,(%eax)
 6be:	00 00                	add    %al,(%eax)
 6c0:	ff                   	(bad)  
 6c1:	ff                   	(bad)  
 6c2:	ff                   	(bad)  
 6c3:	ff 01                	incl   (%ecx)
 6c5:	00 01                	add    %al,(%ecx)
 6c7:	7c 08                	jl     6d1 <thread_run-0xfff92f>
 6c9:	0c 04                	or     $0x4,%al
 6cb:	04 88                	add    $0x88,%al
 6cd:	01 00                	add    %eax,(%eax)
 6cf:	00 28                	add    %ch,(%eax)
 6d1:	00 00                	add    %al,(%eax)
 6d3:	00 bc 06 00 00 10 17 	add    %bh,0x17100000(%esi,%eax,1)
 6da:	00 01                	add    %al,(%ecx)
 6dc:	64 00 00             	add    %al,%fs:(%eax)
 6df:	00 41 0e             	add    %al,0xe(%ecx)
 6e2:	08 85 02 42 0d 05    	or     %al,0x50d4202(%ebp)
 6e8:	50                   	push   %eax
 6e9:	87 03                	xchg   %eax,(%ebx)
 6eb:	86 04 83             	xchg   %al,(%ebx,%eax,4)
 6ee:	05 02 4f 0d 04       	add    $0x40d4f02,%eax
 6f3:	c7 c6 c3 41 c5 0e    	mov    $0xec541c3,%esi
 6f9:	04 00                	add    $0x0,%al
 6fb:	00 28                	add    %ch,(%eax)
 6fd:	00 00                	add    %al,(%eax)
 6ff:	00 bc 06 00 00 74 17 	add    %bh,0x17740000(%esi,%eax,1)
 706:	00 01                	add    %al,(%ecx)
 708:	10 01                	adc    %al,(%ecx)
 70a:	00 00                	add    %al,(%eax)
 70c:	41                   	inc    %ecx
 70d:	0e                   	push   %cs
 70e:	08 85 02 42 0d 05    	or     %al,0x50d4202(%ebp)
 714:	4e                   	dec    %esi
 715:	87 03                	xchg   %eax,(%ebx)
 717:	86 04 83             	xchg   %al,(%ebx,%eax,4)
 71a:	05 02 fd 0d 04       	add    $0x40dfd02,%eax
 71f:	c7 c6 c3 41 c5 0e    	mov    $0xec541c3,%esi
 725:	04 00                	add    $0x0,%al
 727:	00 1c 00             	add    %bl,(%eax,%eax,1)
 72a:	00 00                	add    %al,(%eax)
 72c:	bc 06 00 00 84       	mov    $0x84000006,%esp
 731:	18 00                	sbb    %al,(%eax)
 733:	01 1f                	add    %ebx,(%edi)
 735:	00 00                	add    %al,(%eax)
 737:	00 41 0e             	add    %al,0xe(%ecx)
 73a:	08 85 02 42 0d 05    	or     %al,0x50d4202(%ebp)
 740:	5b                   	pop    %ebx
 741:	c5 0c 04             	lds    (%esp,%eax,1),%ecx
 744:	04 00                	add    $0x0,%al
 746:	00 00                	add    %al,(%eax)
 748:	20 00                	and    %al,(%eax)
 74a:	00 00                	add    %al,(%eax)
 74c:	bc 06 00 00 a3       	mov    $0xa3000006,%esp
 751:	18 00                	sbb    %al,(%eax)
 753:	01 3d 00 00 00 41    	add    %edi,0x41000000
 759:	0e                   	push   %cs
 75a:	08 85 02 42 0d 05    	or     %al,0x50d4202(%ebp)
 760:	46                   	inc    %esi
 761:	83 03 72             	addl   $0x72,(%ebx)
 764:	c3                   	ret    
 765:	41                   	inc    %ecx
 766:	c5 0c 04             	lds    (%esp,%eax,1),%ecx
 769:	04 00                	add    $0x0,%al
 76b:	00 24 00             	add    %ah,(%eax,%eax,1)
 76e:	00 00                	add    %al,(%eax)
 770:	bc 06 00 00 e0       	mov    $0xe0000006,%esp
 775:	18 00                	sbb    %al,(%eax)
 777:	01 72 00             	add    %esi,0x0(%edx)
 77a:	00 00                	add    %al,(%eax)
 77c:	41                   	inc    %ecx
 77d:	0e                   	push   %cs
 77e:	08 85 02 42 0d 05    	or     %al,0x50d4202(%ebp)
 784:	4a                   	dec    %edx
 785:	83 04 86 03          	addl   $0x3,(%esi,%eax,4)
 789:	02 62 c3             	add    -0x3d(%edx),%ah
 78c:	41                   	inc    %ecx
 78d:	c6 41 c5 0c          	movb   $0xc,-0x3b(%ecx)
 791:	04 04                	add    $0x4,%al
 793:	00 28                	add    %ch,(%eax)
 795:	00 00                	add    %al,(%eax)
 797:	00 bc 06 00 00 52 19 	add    %bh,0x19520000(%esi,%eax,1)
 79e:	00 01                	add    %al,(%ecx)
 7a0:	a9 00 00 00 41       	test   $0x41000000,%eax
 7a5:	0e                   	push   %cs
 7a6:	08 85 02 42 0d 05    	or     %al,0x50d4202(%ebp)
 7ac:	49                   	dec    %ecx
 7ad:	83 05 86 04 87 03 02 	addl   $0x2,0x3870486
 7b4:	99                   	cltd   
 7b5:	c3                   	ret    
 7b6:	41                   	inc    %ecx
 7b7:	c6 41 c7 41          	movb   $0x41,-0x39(%ecx)
 7bb:	c5 0c 04             	lds    (%esp,%eax,1),%ecx
 7be:	04 00                	add    $0x0,%al
 7c0:	20 00                	and    %al,(%eax)
 7c2:	00 00                	add    %al,(%eax)
 7c4:	bc 06 00 00 fb       	mov    $0xfb000006,%esp
 7c9:	19 00                	sbb    %eax,(%eax)
 7cb:	01 54 00 00          	add    %edx,0x0(%eax,%eax,1)
 7cf:	00 41 0e             	add    %al,0xe(%ecx)
 7d2:	08 85 02 42 0d 05    	or     %al,0x50d4202(%ebp)
 7d8:	4b                   	dec    %ebx
 7d9:	83 03 02             	addl   $0x2,(%ebx)
 7dc:	44                   	inc    %esp
 7dd:	c3                   	ret    
 7de:	41                   	inc    %ecx
 7df:	c5 0c 04             	lds    (%esp,%eax,1),%ecx
 7e2:	04 00                	add    $0x0,%al
 7e4:	24 00                	and    $0x0,%al
 7e6:	00 00                	add    %al,(%eax)
 7e8:	bc 06 00 00 4f       	mov    $0x4f000006,%esp
 7ed:	1a 00                	sbb    (%eax),%al
 7ef:	01 98 00 00 00 41    	add    %ebx,0x41000000(%eax)
 7f5:	0e                   	push   %cs
 7f6:	08 85 02 42 0d 05    	or     %al,0x50d4202(%ebp)
 7fc:	4d                   	dec    %ebp
 7fd:	83 04 86 03          	addl   $0x3,(%esi,%eax,4)
 801:	02 85 c3 41 c6 41    	add    0x41c641c3(%ebp),%al
 807:	c5 0c 04             	lds    (%esp,%eax,1),%ecx
 80a:	04 00                	add    $0x0,%al
 80c:	28 00                	sub    %al,(%eax)
 80e:	00 00                	add    %al,(%eax)
 810:	bc 06 00 00 e7       	mov    $0xe7000006,%esp
 815:	1a 00                	sbb    (%eax),%al
 817:	01 60 00             	add    %esp,0x0(%eax)
 81a:	00 00                	add    %al,(%eax)
 81c:	41                   	inc    %ecx
 81d:	0e                   	push   %cs
 81e:	08 85 02 42 0d 05    	or     %al,0x50d4202(%ebp)
 824:	4f                   	dec    %edi
 825:	87 03                	xchg   %eax,(%ebx)
 827:	86 04 83             	xchg   %al,(%ebx,%eax,4)
 82a:	05 02 4c 0d 04       	add    $0x40d4c02,%eax
 82f:	c7 c6 c3 41 c5 0e    	mov    $0xec541c3,%esi
 835:	04 00                	add    $0x0,%al
 837:	00 1c 00             	add    %bl,(%eax,%eax,1)
 83a:	00 00                	add    %al,(%eax)
 83c:	bc 06 00 00 47       	mov    $0x47000006,%esp
 841:	1b 00                	sbb    (%eax),%eax
 843:	01 66 00             	add    %esp,0x0(%esi)
 846:	00 00                	add    %al,(%eax)
 848:	41                   	inc    %ecx
 849:	0e                   	push   %cs
 84a:	08 85 02 42 0d 05    	or     %al,0x50d4202(%ebp)
 850:	02 62 c5             	add    -0x3b(%edx),%ah
 853:	0c 04                	or     $0x4,%al
 855:	04 00                	add    $0x0,%al
 857:	00 10                	add    %dl,(%eax)
 859:	00 00                	add    %al,(%eax)
 85b:	00 ff                	add    %bh,%bh
 85d:	ff                   	(bad)  
 85e:	ff                   	(bad)  
 85f:	ff 01                	incl   (%ecx)
 861:	00 01                	add    %al,(%ecx)
 863:	7c 08                	jl     86d <thread_run-0xfff793>
 865:	0c 04                	or     $0x4,%al
 867:	04 88                	add    $0x88,%al
 869:	01 00                	add    %eax,(%eax)
 86b:	00 28                	add    %ch,(%eax)
 86d:	00 00                	add    %al,(%eax)
 86f:	00 58 08             	add    %bl,0x8(%eax)
 872:	00 00                	add    %al,(%eax)
 874:	b0 1b                	mov    $0x1b,%al
 876:	00 01                	add    %al,(%ecx)
 878:	71 00                	jno    87a <thread_run-0xfff786>
 87a:	00 00                	add    %al,(%eax)
 87c:	41                   	inc    %ecx
 87d:	0e                   	push   %cs
 87e:	08 85 02 42 0d 05    	or     %al,0x50d4202(%ebp)
 884:	4f                   	dec    %edi
 885:	87 03                	xchg   %eax,(%ebx)
 887:	86 04 83             	xchg   %al,(%ebx,%eax,4)
 88a:	05 02 5d 0d 04       	add    $0x40d5d02,%eax
 88f:	c7 c6 c3 41 c5 0e    	mov    $0xec541c3,%esi
 895:	04 00                	add    $0x0,%al
 897:	00 1c 00             	add    %bl,(%eax,%eax,1)
 89a:	00 00                	add    %al,(%eax)
 89c:	58                   	pop    %eax
 89d:	08 00                	or     %al,(%eax)
 89f:	00 21                	add    %ah,(%ecx)
 8a1:	1c 00                	sbb    $0x0,%al
 8a3:	01 53 00             	add    %edx,0x0(%ebx)
 8a6:	00 00                	add    %al,(%eax)
 8a8:	41                   	inc    %ecx
 8a9:	0e                   	push   %cs
 8aa:	08 85 02 42 0d 05    	or     %al,0x50d4202(%ebp)
 8b0:	02 4f c5             	add    -0x3b(%edi),%cl
 8b3:	0c 04                	or     $0x4,%al
 8b5:	04 00                	add    $0x0,%al
 8b7:	00 10                	add    %dl,(%eax)
 8b9:	00 00                	add    %al,(%eax)
 8bb:	00 ff                	add    %bh,%bh
 8bd:	ff                   	(bad)  
 8be:	ff                   	(bad)  
 8bf:	ff 01                	incl   (%ecx)
 8c1:	00 01                	add    %al,(%ecx)
 8c3:	7c 08                	jl     8cd <thread_run-0xfff733>
 8c5:	0c 04                	or     $0x4,%al
 8c7:	04 88                	add    $0x88,%al
 8c9:	01 00                	add    %eax,(%eax)
 8cb:	00 1c 00             	add    %bl,(%eax,%eax,1)
 8ce:	00 00                	add    %al,(%eax)
 8d0:	b8 08 00 00 74       	mov    $0x74000008,%eax
 8d5:	1c 00                	sbb    $0x0,%al
 8d7:	01 0a                	add    %ecx,(%edx)
 8d9:	00 00                	add    %al,(%eax)
 8db:	00 41 0e             	add    %al,0xe(%ecx)
 8de:	08 85 02 42 0d 05    	or     %al,0x50d4202(%ebp)
 8e4:	46                   	inc    %esi
 8e5:	c5 0c 04             	lds    (%esp,%eax,1),%ecx
 8e8:	04 00                	add    $0x0,%al
 8ea:	00 00                	add    %al,(%eax)
 8ec:	1c 00                	sbb    $0x0,%al
 8ee:	00 00                	add    %al,(%eax)
 8f0:	b8 08 00 00 7e       	mov    $0x7e000008,%eax
 8f5:	1c 00                	sbb    $0x0,%al
 8f7:	01 05 00 00 00 41    	add    %eax,0x41000000
 8fd:	0e                   	push   %cs
 8fe:	08 85 02 42 0d 05    	or     %al,0x50d4202(%ebp)
 904:	41                   	inc    %ecx
 905:	c5 0c 04             	lds    (%esp,%eax,1),%ecx
 908:	04 00                	add    $0x0,%al
 90a:	00 00                	add    %al,(%eax)
 90c:	1c 00                	sbb    $0x0,%al
 90e:	00 00                	add    %al,(%eax)
 910:	b8 08 00 00 83       	mov    $0x83000008,%eax
 915:	1c 00                	sbb    $0x0,%al
 917:	01 0a                	add    %ecx,(%edx)
 919:	00 00                	add    %al,(%eax)
 91b:	00 41 0e             	add    %al,0xe(%ecx)
 91e:	08 85 02 42 0d 05    	or     %al,0x50d4202(%ebp)
 924:	46                   	inc    %esi
 925:	c5 0c 04             	lds    (%esp,%eax,1),%ecx
 928:	04 00                	add    $0x0,%al
 92a:	00 00                	add    %al,(%eax)
 92c:	1c 00                	sbb    $0x0,%al
 92e:	00 00                	add    %al,(%eax)
 930:	b8 08 00 00 8d       	mov    $0x8d000008,%eax
 935:	1c 00                	sbb    $0x0,%al
 937:	01 0a                	add    %ecx,(%edx)
 939:	00 00                	add    %al,(%eax)
 93b:	00 41 0e             	add    %al,0xe(%ecx)
 93e:	08 85 02 42 0d 05    	or     %al,0x50d4202(%ebp)
 944:	46                   	inc    %esi
 945:	c5 0c 04             	lds    (%esp,%eax,1),%ecx
 948:	04 00                	add    $0x0,%al
 94a:	00 00                	add    %al,(%eax)
 94c:	1c 00                	sbb    $0x0,%al
 94e:	00 00                	add    %al,(%eax)
 950:	b8 08 00 00 97       	mov    $0x97000008,%eax
 955:	1c 00                	sbb    $0x0,%al
 957:	01 0a                	add    %ecx,(%edx)
 959:	00 00                	add    %al,(%eax)
 95b:	00 41 0e             	add    %al,0xe(%ecx)
 95e:	08 85 02 42 0d 05    	or     %al,0x50d4202(%ebp)
 964:	46                   	inc    %esi
 965:	c5 0c 04             	lds    (%esp,%eax,1),%ecx
 968:	04 00                	add    $0x0,%al
 96a:	00 00                	add    %al,(%eax)
 96c:	1c 00                	sbb    $0x0,%al
 96e:	00 00                	add    %al,(%eax)
 970:	b8 08 00 00 a1       	mov    $0xa1000008,%eax
 975:	1c 00                	sbb    $0x0,%al
 977:	01 0a                	add    %ecx,(%edx)
 979:	00 00                	add    %al,(%eax)
 97b:	00 41 0e             	add    %al,0xe(%ecx)
 97e:	08 85 02 42 0d 05    	or     %al,0x50d4202(%ebp)
 984:	46                   	inc    %esi
 985:	c5 0c 04             	lds    (%esp,%eax,1),%ecx
 988:	04 00                	add    $0x0,%al
 98a:	00 00                	add    %al,(%eax)
 98c:	1c 00                	sbb    $0x0,%al
 98e:	00 00                	add    %al,(%eax)
 990:	b8 08 00 00 ab       	mov    $0xab000008,%eax
 995:	1c 00                	sbb    $0x0,%al
 997:	01 0a                	add    %ecx,(%edx)
 999:	00 00                	add    %al,(%eax)
 99b:	00 41 0e             	add    %al,0xe(%ecx)
 99e:	08 85 02 42 0d 05    	or     %al,0x50d4202(%ebp)
 9a4:	46                   	inc    %esi
 9a5:	c5 0c 04             	lds    (%esp,%eax,1),%ecx
 9a8:	04 00                	add    $0x0,%al
 9aa:	00 00                	add    %al,(%eax)
 9ac:	1c 00                	sbb    $0x0,%al
 9ae:	00 00                	add    %al,(%eax)
 9b0:	b8 08 00 00 b5       	mov    $0xb5000008,%eax
 9b5:	1c 00                	sbb    $0x0,%al
 9b7:	01 0a                	add    %ecx,(%edx)
 9b9:	00 00                	add    %al,(%eax)
 9bb:	00 41 0e             	add    %al,0xe(%ecx)
 9be:	08 85 02 42 0d 05    	or     %al,0x50d4202(%ebp)
 9c4:	46                   	inc    %esi
 9c5:	c5 0c 04             	lds    (%esp,%eax,1),%ecx
 9c8:	04 00                	add    $0x0,%al
 9ca:	00 00                	add    %al,(%eax)
 9cc:	1c 00                	sbb    $0x0,%al
 9ce:	00 00                	add    %al,(%eax)
 9d0:	b8 08 00 00 bf       	mov    $0xbf000008,%eax
 9d5:	1c 00                	sbb    $0x0,%al
 9d7:	01 0a                	add    %ecx,(%edx)
 9d9:	00 00                	add    %al,(%eax)
 9db:	00 41 0e             	add    %al,0xe(%ecx)
 9de:	08 85 02 42 0d 05    	or     %al,0x50d4202(%ebp)
 9e4:	46                   	inc    %esi
 9e5:	c5 0c 04             	lds    (%esp,%eax,1),%ecx
 9e8:	04 00                	add    $0x0,%al
 9ea:	00 00                	add    %al,(%eax)
 9ec:	1c 00                	sbb    $0x0,%al
 9ee:	00 00                	add    %al,(%eax)
 9f0:	b8 08 00 00 c9       	mov    $0xc9000008,%eax
 9f5:	1c 00                	sbb    $0x0,%al
 9f7:	01 0a                	add    %ecx,(%edx)
 9f9:	00 00                	add    %al,(%eax)
 9fb:	00 41 0e             	add    %al,0xe(%ecx)
 9fe:	08 85 02 42 0d 05    	or     %al,0x50d4202(%ebp)
 a04:	46                   	inc    %esi
 a05:	c5 0c 04             	lds    (%esp,%eax,1),%ecx
 a08:	04 00                	add    $0x0,%al
 a0a:	00 00                	add    %al,(%eax)
 a0c:	1c 00                	sbb    $0x0,%al
 a0e:	00 00                	add    %al,(%eax)
 a10:	b8 08 00 00 d3       	mov    $0xd3000008,%eax
 a15:	1c 00                	sbb    $0x0,%al
 a17:	01 0a                	add    %ecx,(%edx)
 a19:	00 00                	add    %al,(%eax)
 a1b:	00 41 0e             	add    %al,0xe(%ecx)
 a1e:	08 85 02 42 0d 05    	or     %al,0x50d4202(%ebp)
 a24:	46                   	inc    %esi
 a25:	c5 0c 04             	lds    (%esp,%eax,1),%ecx
 a28:	04 00                	add    $0x0,%al
 a2a:	00 00                	add    %al,(%eax)
 a2c:	1c 00                	sbb    $0x0,%al
 a2e:	00 00                	add    %al,(%eax)
 a30:	b8 08 00 00 dd       	mov    $0xdd000008,%eax
 a35:	1c 00                	sbb    $0x0,%al
 a37:	01 0a                	add    %ecx,(%edx)
 a39:	00 00                	add    %al,(%eax)
 a3b:	00 41 0e             	add    %al,0xe(%ecx)
 a3e:	08 85 02 42 0d 05    	or     %al,0x50d4202(%ebp)
 a44:	46                   	inc    %esi
 a45:	c5 0c 04             	lds    (%esp,%eax,1),%ecx
 a48:	04 00                	add    $0x0,%al
 a4a:	00 00                	add    %al,(%eax)
 a4c:	1c 00                	sbb    $0x0,%al
 a4e:	00 00                	add    %al,(%eax)
 a50:	b8 08 00 00 e7       	mov    $0xe7000008,%eax
 a55:	1c 00                	sbb    $0x0,%al
 a57:	01 0a                	add    %ecx,(%edx)
 a59:	00 00                	add    %al,(%eax)
 a5b:	00 41 0e             	add    %al,0xe(%ecx)
 a5e:	08 85 02 42 0d 05    	or     %al,0x50d4202(%ebp)
 a64:	46                   	inc    %esi
 a65:	c5 0c 04             	lds    (%esp,%eax,1),%ecx
 a68:	04 00                	add    $0x0,%al
 a6a:	00 00                	add    %al,(%eax)
 a6c:	1c 00                	sbb    $0x0,%al
 a6e:	00 00                	add    %al,(%eax)
 a70:	b8 08 00 00 f1       	mov    $0xf1000008,%eax
 a75:	1c 00                	sbb    $0x0,%al
 a77:	01 0a                	add    %ecx,(%edx)
 a79:	00 00                	add    %al,(%eax)
 a7b:	00 41 0e             	add    %al,0xe(%ecx)
 a7e:	08 85 02 42 0d 05    	or     %al,0x50d4202(%ebp)
 a84:	46                   	inc    %esi
 a85:	c5 0c 04             	lds    (%esp,%eax,1),%ecx
 a88:	04 00                	add    $0x0,%al
 a8a:	00 00                	add    %al,(%eax)
 a8c:	14 00                	adc    $0x0,%al
 a8e:	00 00                	add    %al,(%eax)
 a90:	b8 08 00 00 fb       	mov    $0xfb000008,%eax
 a95:	1c 00                	sbb    $0x0,%al
 a97:	01 05 00 00 00 41    	add    %eax,0x41000000
 a9d:	0e                   	push   %cs
 a9e:	08 85 02 42 0d 05    	or     %al,0x50d4202(%ebp)
 aa4:	1c 00                	sbb    $0x0,%al
 aa6:	00 00                	add    %al,(%eax)
 aa8:	b8 08 00 00 00       	mov    $0x8,%eax
 aad:	1d 00 01 0a 00       	sbb    $0xa0100,%eax
 ab2:	00 00                	add    %al,(%eax)
 ab4:	41                   	inc    %ecx
 ab5:	0e                   	push   %cs
 ab6:	08 85 02 42 0d 05    	or     %al,0x50d4202(%ebp)
 abc:	46                   	inc    %esi
 abd:	c5 0c 04             	lds    (%esp,%eax,1),%ecx
 ac0:	04 00                	add    $0x0,%al
 ac2:	00 00                	add    %al,(%eax)
 ac4:	14 00                	adc    $0x0,%al
 ac6:	00 00                	add    %al,(%eax)
 ac8:	b8 08 00 00 0a       	mov    $0xa000008,%eax
 acd:	1d 00 01 05 00       	sbb    $0x50100,%eax
 ad2:	00 00                	add    %al,(%eax)
 ad4:	41                   	inc    %ecx
 ad5:	0e                   	push   %cs
 ad6:	08 85 02 42 0d 05    	or     %al,0x50d4202(%ebp)
 adc:	1c 00                	sbb    $0x0,%al
 ade:	00 00                	add    %al,(%eax)
 ae0:	b8 08 00 00 0f       	mov    $0xf000008,%eax
 ae5:	1d 00 01 0a 00       	sbb    $0xa0100,%eax
 aea:	00 00                	add    %al,(%eax)
 aec:	41                   	inc    %ecx
 aed:	0e                   	push   %cs
 aee:	08 85 02 42 0d 05    	or     %al,0x50d4202(%ebp)
 af4:	46                   	inc    %esi
 af5:	c5 0c 04             	lds    (%esp,%eax,1),%ecx
 af8:	04 00                	add    $0x0,%al
 afa:	00 00                	add    %al,(%eax)
 afc:	1c 00                	sbb    $0x0,%al
 afe:	00 00                	add    %al,(%eax)
 b00:	b8 08 00 00 19       	mov    $0x19000008,%eax
 b05:	1d 00 01 05 00       	sbb    $0x50100,%eax
 b0a:	00 00                	add    %al,(%eax)
 b0c:	41                   	inc    %ecx
 b0d:	0e                   	push   %cs
 b0e:	08 85 02 42 0d 05    	or     %al,0x50d4202(%ebp)
 b14:	41                   	inc    %ecx
 b15:	c5 0c 04             	lds    (%esp,%eax,1),%ecx
 b18:	04 00                	add    $0x0,%al
 b1a:	00 00                	add    %al,(%eax)
 b1c:	10 00                	adc    %al,(%eax)
 b1e:	00 00                	add    %al,(%eax)
 b20:	ff                   	(bad)  
 b21:	ff                   	(bad)  
 b22:	ff                   	(bad)  
 b23:	ff 01                	incl   (%ecx)
 b25:	00 01                	add    %al,(%ecx)
 b27:	7c 08                	jl     b31 <thread_run-0xfff4cf>
 b29:	0c 04                	or     $0x4,%al
 b2b:	04 88                	add    $0x88,%al
 b2d:	01 00                	add    %eax,(%eax)
 b2f:	00 24 00             	add    %ah,(%eax,%eax,1)
 b32:	00 00                	add    %al,(%eax)
 b34:	1c 0b                	sbb    $0xb,%al
 b36:	00 00                	add    %al,(%eax)
 b38:	30 1d 00 01 48 00    	xor    %bl,0x480100
 b3e:	00 00                	add    %al,(%eax)
 b40:	41                   	inc    %ecx
 b41:	0e                   	push   %cs
 b42:	08 85 02 42 0d 05    	or     %al,0x50d4202(%ebp)
 b48:	4c                   	dec    %esp
 b49:	86 03                	xchg   %al,(%ebx)
 b4b:	83 04 77 0d          	addl   $0xd,(%edi,%esi,2)
 b4f:	04 c6                	add    $0xc6,%al
 b51:	c3                   	ret    
 b52:	41                   	inc    %ecx
 b53:	c5 0e                	lds    (%esi),%ecx
 b55:	04 00                	add    $0x0,%al
 b57:	00 10                	add    %dl,(%eax)
 b59:	00 00                	add    %al,(%eax)
 b5b:	00 ff                	add    %bh,%bh
 b5d:	ff                   	(bad)  
 b5e:	ff                   	(bad)  
 b5f:	ff 01                	incl   (%ecx)
 b61:	00 01                	add    %al,(%ecx)
 b63:	7c 08                	jl     b6d <thread_run-0xfff493>
 b65:	0c 04                	or     $0x4,%al
 b67:	04 88                	add    $0x88,%al
 b69:	01 00                	add    %eax,(%eax)
 b6b:	00 28                	add    %ch,(%eax)
 b6d:	00 00                	add    %al,(%eax)
 b6f:	00 58 0b             	add    %bl,0xb(%eax)
 b72:	00 00                	add    %al,(%eax)
 b74:	10 1e                	adc    %bl,(%esi)
 b76:	00 01                	add    %al,(%ecx)
 b78:	68 00 00 00 41       	push   $0x41000000
 b7d:	0e                   	push   %cs
 b7e:	08 85 02 42 0d 05    	or     %al,0x50d4202(%ebp)
 b84:	48                   	dec    %eax
 b85:	83 05 86 04 87 03 02 	addl   $0x2,0x3870486
 b8c:	59                   	pop    %ecx
 b8d:	c3                   	ret    
 b8e:	41                   	inc    %ecx
 b8f:	c6 41 c7 41          	movb   $0x41,-0x39(%ecx)
 b93:	c5 0c 04             	lds    (%esp,%eax,1),%ecx
 b96:	04 00                	add    $0x0,%al
 b98:	28 00                	sub    %al,(%eax)
 b9a:	00 00                	add    %al,(%eax)
 b9c:	58                   	pop    %eax
 b9d:	0b 00                	or     (%eax),%eax
 b9f:	00 78 1e             	add    %bh,0x1e(%eax)
 ba2:	00 01                	add    %al,(%ecx)
 ba4:	74 04                	je     baa <thread_run-0xfff456>
 ba6:	00 00                	add    %al,(%eax)
 ba8:	41                   	inc    %ecx
 ba9:	0e                   	push   %cs
 baa:	08 85 02 42 0d 05    	or     %al,0x50d4202(%ebp)
 bb0:	49                   	dec    %ecx
 bb1:	83 05 86 04 87 03 03 	addl   $0x3,0x3870486
 bb8:	64                   	fs
 bb9:	04 c3                	add    $0xc3,%al
 bbb:	41                   	inc    %ecx
 bbc:	c6 41 c7 41          	movb   $0x41,-0x39(%ecx)
 bc0:	c5 0c 04             	lds    (%esp,%eax,1),%ecx
 bc3:	04 1c                	add    $0x1c,%al
 bc5:	00 00                	add    %al,(%eax)
 bc7:	00 58 0b             	add    %bl,0xb(%eax)
 bca:	00 00                	add    %al,(%eax)
 bcc:	ec                   	in     (%dx),%al
 bcd:	22 00                	and    (%eax),%al
 bcf:	01 38                	add    %edi,(%eax)
 bd1:	00 00                	add    %al,(%eax)
 bd3:	00 41 0e             	add    %al,0xe(%ecx)
 bd6:	08 85 02 42 0d 05    	or     %al,0x50d4202(%ebp)
 bdc:	74 c5                	je     ba3 <thread_run-0xfff45d>
 bde:	0c 04                	or     $0x4,%al
 be0:	04 00                	add    $0x0,%al
 be2:	00 00                	add    %al,(%eax)
 be4:	1c 00                	sbb    $0x0,%al
 be6:	00 00                	add    %al,(%eax)
 be8:	58                   	pop    %eax
 be9:	0b 00                	or     (%eax),%eax
 beb:	00 24 23             	add    %ah,(%ebx,%eiz,1)
 bee:	00 01                	add    %al,(%ecx)
 bf0:	30 00                	xor    %al,(%eax)
 bf2:	00 00                	add    %al,(%eax)
 bf4:	41                   	inc    %ecx
 bf5:	0e                   	push   %cs
 bf6:	08 85 02 42 0d 05    	or     %al,0x50d4202(%ebp)
 bfc:	6c                   	insb   (%dx),%es:(%edi)
 bfd:	c5 0c 04             	lds    (%esp,%eax,1),%ecx
 c00:	04 00                	add    $0x0,%al
	...

Disassembly of section .debug_str:

00000000 <.debug_str>:
   0:	5f                   	pop    %edi
   1:	5f                   	pop    %edi
   2:	46                   	inc    %esi
   3:	55                   	push   %ebp
   4:	4e                   	dec    %esi
   5:	43                   	inc    %ebx
   6:	54                   	push   %esp
   7:	49                   	dec    %ecx
   8:	4f                   	dec    %edi
   9:	4e                   	dec    %esi
   a:	5f                   	pop    %edi
   b:	5f                   	pop    %edi
   c:	00 47 4e             	add    %al,0x4e(%edi)
   f:	55                   	push   %ebp
  10:	20 43 20             	and    %al,0x20(%ebx)
  13:	34 2e                	xor    $0x2e,%al
  15:	34 2e                	xor    $0x2e,%al
  17:	36 20 32             	and    %dh,%ss:(%edx)
  1a:	30 31                	xor    %dh,(%ecx)
  1c:	32 30                	xor    (%eax),%dh
  1e:	33 30                	xor    (%eax),%esi
  20:	35 20 28 52 65       	xor    $0x65522820,%eax
  25:	64 20 48 61          	and    %cl,%fs:0x61(%eax)
  29:	74 20                	je     4b <thread_run-0xffffb5>
  2b:	34 2e                	xor    $0x2e,%al
  2d:	34 2e                	xor    $0x2e,%al
  2f:	36                   	ss
  30:	2d 34 29 00 75       	sub    $0x75002934,%eax
  35:	73 65                	jae    9c <thread_run-0xffff64>
  37:	72 2f                	jb     68 <thread_run-0xffff98>
  39:	70 72                	jo     ad <thread_run-0xffff53>
  3b:	6f                   	outsl  %ds:(%esi),(%dx)
  3c:	67 73 2f             	addr16 jae 6e <thread_run-0xffff92>
  3f:	74 65                	je     a6 <thread_run-0xffff5a>
  41:	73 74                	jae    b7 <thread_run-0xffff49>
  43:	31 2e                	xor    %ebp,(%esi)
  45:	63 00                	arpl   %ax,(%eax)
  47:	2f                   	das    
  48:	61                   	popa   
  49:	66                   	data16
  4a:	73 2f                	jae    7b <thread_run-0xffff85>
  4c:	61                   	popa   
  4d:	6e                   	outsb  %ds:(%esi),(%dx)
  4e:	64                   	fs
  4f:	72 65                	jb     b6 <thread_run-0xffff4a>
  51:	77 2e                	ja     81 <thread_run-0xffff7f>
  53:	63 6d 75             	arpl   %bp,0x75(%ebp)
  56:	2e                   	cs
  57:	65                   	gs
  58:	64                   	fs
  59:	75 2f                	jne    8a <thread_run-0xffff76>
  5b:	75 73                	jne    d0 <thread_run-0xffff30>
  5d:	72 32                	jb     91 <thread_run-0xffff6f>
  5f:	33 2f                	xor    (%edi),%ebp
  61:	61                   	popa   
  62:	6e                   	outsb  %ds:(%esi),(%dx)
  63:	6b 75 72 73          	imul   $0x73,0x72(%ebp),%esi
  67:	68 61 2f 44 65       	push   $0x65442f61
  6c:	73 6b                	jae    d9 <thread_run-0xffff27>
  6e:	74 6f                	je     df <thread_run-0xffff21>
  70:	70 2f                	jo     a1 <thread_run-0xffff5f>
  72:	73 74                	jae    e8 <thread_run-0xffff18>
  74:	75 64                	jne    da <thread_run-0xffff26>
  76:	69 65 73 2f 31 35 34 	imul   $0x3435312f,0x73(%ebp),%esp
  7d:	31 30                	xor    %esi,(%eax)
  7f:	2f                   	das    
  80:	50                   	push   %eax
  81:	32 2f                	xor    (%edi),%ch
  83:	70 32                	jo     b7 <thread_run-0xffff49>
  85:	00 74 68 72          	add    %dh,0x72(%eax,%ebp,2)
  89:	65                   	gs
  8a:	61                   	popa   
  8b:	64                   	fs
  8c:	5f                   	pop    %edi
  8d:	72 75                	jb     104 <thread_run-0xfffefc>
  8f:	6e                   	outsb  %ds:(%esi),(%dx)
  90:	00 69 6e             	add    %ch,0x6e(%ecx)
  93:	70 75                	jo     10a <thread_run-0xfffef6>
  95:	74 00                	je     97 <thread_run-0xffff69>
  97:	69 6e 70 75 74 5f 61 	imul   $0x615f7475,0x70(%esi),%ebp
  9e:	72 67                	jb     107 <thread_run-0xfffef9>
  a0:	73 00                	jae    a2 <thread_run-0xffff5e>
  a2:	5f                   	pop    %edi
  a3:	6d                   	insl   (%dx),%es:(%edi)
  a4:	61                   	popa   
  a5:	69 6e 00 34 31 30 75 	imul   $0x75303134,0x0(%esi),%ebp
  ac:	73 65                	jae    113 <thread_run-0xfffeed>
  ae:	72 2f                	jb     df <thread_run-0xffff21>
  b0:	63 72 74             	arpl   %si,0x74(%edx)
  b3:	30 2e                	xor    %ch,(%esi)
  b5:	63 00                	arpl   %ax,(%eax)
  b7:	73 74                	jae    12d <thread_run-0xfffed3>
  b9:	61                   	popa   
  ba:	63 6b 5f             	arpl   %bp,0x5f(%ebx)
  bd:	68 69 67 68 00       	push   $0x686769
  c2:	61                   	popa   
  c3:	72 67                	jb     12c <thread_run-0xfffed4>
  c5:	63 00                	arpl   %ax,(%eax)
  c7:	73 74                	jae    13d <thread_run-0xfffec3>
  c9:	61                   	popa   
  ca:	63 6b 5f             	arpl   %bp,0x5f(%ebx)
  cd:	6c                   	insb   (%dx),%es:(%edi)
  ce:	6f                   	outsl  %ds:(%esi),(%dx)
  cf:	77 00                	ja     d1 <thread_run-0xffff2f>
  d1:	61                   	popa   
  d2:	72 67                	jb     13b <thread_run-0xfffec5>
  d4:	76 00                	jbe    d6 <thread_run-0xffff2a>
  d6:	6e                   	outsb  %ds:(%esi),(%dx)
  d7:	65                   	gs
  d8:	78 74                	js     14e <thread_run-0xfffeb2>
  da:	00 74 69 64          	add    %dh,0x64(%ecx,%ebp,2)
  de:	5f                   	pop    %edi
  df:	74 00                	je     e1 <thread_run-0xffff1f>
  e1:	74 63                	je     146 <thread_run-0xfffeba>
  e3:	62 5f 73             	bound  %ebx,0x73(%edi)
  e6:	00 74 63 62          	add    %dh,0x62(%ebx,%eiz,2)
  ea:	5f                   	pop    %edi
  eb:	74 00                	je     ed <thread_run-0xffff13>
  ed:	6d                   	insl   (%dx),%es:(%edi)
  ee:	61                   	popa   
  ef:	69 6e 5f 73 74 61 63 	imul   $0x63617473,0x5f(%esi),%ebp
  f6:	6b 5f 68 69          	imul   $0x69,0x68(%edi),%ebx
  fa:	00 6e 65             	add    %ch,0x65(%esi)
  fd:	77 5f                	ja     15e <thread_run-0xfffea2>
  ff:	74 63                	je     164 <thread_run-0xfffe9c>
 101:	62 00                	bound  %eax,(%eax)
 103:	74 68                	je     16d <thread_run-0xfffe93>
 105:	72 5f                	jb     166 <thread_run-0xfffe9a>
 107:	67                   	addr16
 108:	65                   	gs
 109:	74 5f                	je     16a <thread_run-0xfffe96>
 10b:	6d                   	insl   (%dx),%es:(%edi)
 10c:	61                   	popa   
 10d:	69 6e 5f 73 74 61 63 	imul   $0x63617473,0x5f(%esi),%ebp
 114:	6b 48 00 74          	imul   $0x74,0x0(%eax),%ecx
 118:	68 72 5f 67 65       	push   $0x65675f72
 11d:	74 5f                	je     17e <thread_run-0xfffe82>
 11f:	6d                   	insl   (%dx),%es:(%edi)
 120:	61                   	popa   
 121:	69 6e 5f 73 74 61 63 	imul   $0x63617473,0x5f(%esi),%ebp
 128:	6b 4c 00 74 68       	imul   $0x68,0x74(%eax,%eax,1),%ecx
 12d:	72 5f                	jb     18e <thread_run-0xfffe72>
 12f:	69 6e 74 5f 69 6e 73 	imul   $0x736e695f,0x74(%esi),%ebp
 136:	65                   	gs
 137:	72 74                	jb     1ad <thread_run-0xfffe53>
 139:	5f                   	pop    %edi
 13a:	74 63                	je     19f <thread_run-0xfffe61>
 13c:	62 00                	bound  %eax,(%eax)
 13e:	74 68                	je     1a8 <thread_run-0xfffe58>
 140:	72 5f                	jb     1a1 <thread_run-0xfffe5f>
 142:	73 65                	jae    1a9 <thread_run-0xfffe57>
 144:	74 5f                	je     1a5 <thread_run-0xfffe5b>
 146:	6d                   	insl   (%dx),%es:(%edi)
 147:	61                   	popa   
 148:	69 6e 5f 73 74 61 63 	imul   $0x63617473,0x5f(%esi),%ebp
 14f:	6b 4c 00 6e 65       	imul   $0x65,0x6e(%eax,%eax,1),%ecx
 154:	77 5f                	ja     1b5 <thread_run-0xfffe4b>
 156:	66                   	data16
 157:	72 65                	jb     1be <thread_run-0xfffe42>
 159:	65                   	gs
 15a:	5f                   	pop    %edi
 15b:	73 74                	jae    1d1 <thread_run-0xfffe2f>
 15d:	61                   	popa   
 15e:	63 6b 5f             	arpl   %bp,0x5f(%ebx)
 161:	6c                   	insb   (%dx),%es:(%edi)
 162:	6f                   	outsl  %ds:(%esi),(%dx)
 163:	00 74 68 72          	add    %dh,0x72(%eax,%ebp,2)
 167:	65                   	gs
 168:	61                   	popa   
 169:	64                   	fs
 16a:	5f                   	pop    %edi
 16b:	72 65                	jb     1d2 <thread_run-0xfffe2e>
 16d:	75 73                	jne    1e2 <thread_run-0xfffe1e>
 16f:	65                   	gs
 170:	5f                   	pop    %edi
 171:	73 74                	jae    1e7 <thread_run-0xfffe19>
 173:	61                   	popa   
 174:	63 6b 5f             	arpl   %bp,0x5f(%ebx)
 177:	73 00                	jae    179 <thread_run-0xfffe87>
 179:	74 68                	je     1e3 <thread_run-0xfffe1d>
 17b:	72 65                	jb     1e2 <thread_run-0xfffe1e>
 17d:	61                   	popa   
 17e:	64                   	fs
 17f:	5f                   	pop    %edi
 180:	72 65                	jb     1e7 <thread_run-0xfffe19>
 182:	75 73                	jne    1f7 <thread_run-0xfffe09>
 184:	65                   	gs
 185:	5f                   	pop    %edi
 186:	73 74                	jae    1fc <thread_run-0xfffe04>
 188:	61                   	popa   
 189:	63 6b 5f             	arpl   %bp,0x5f(%ebx)
 18c:	74 00                	je     18e <thread_run-0xfffe72>
 18e:	74 63                	je     1f3 <thread_run-0xfffe0d>
 190:	62 5f 73             	bound  %ebx,0x73(%edi)
 193:	74 61                	je     1f6 <thread_run-0xfffe0a>
 195:	63 6b 5f             	arpl   %bp,0x5f(%ebx)
 198:	6c                   	insb   (%dx),%es:(%edi)
 199:	6f                   	outsl  %ds:(%esi),(%dx)
 19a:	00 6e 65             	add    %ch,0x65(%esi)
 19d:	77 5f                	ja     1fe <thread_run-0xfffe02>
 19f:	66                   	data16
 1a0:	72 65                	jb     207 <thread_run-0xfffdf9>
 1a2:	65                   	gs
 1a3:	5f                   	pop    %edi
 1a4:	73 74                	jae    21a <thread_run-0xfffde6>
 1a6:	61                   	popa   
 1a7:	63 6b 5f             	arpl   %bp,0x5f(%ebx)
 1aa:	68 69 00 63 68       	push   $0x68630069
 1af:	69 6c 64 5f 73 74 61 	imul   $0x63617473,0x5f(%esp,%eiz,2),%ebp
 1b6:	63 
 1b7:	6b 5f 68 69          	imul   $0x69,0x68(%edi),%ebx
 1bb:	00 74 68 72          	add    %dh,0x72(%eax,%ebp,2)
 1bf:	5f                   	pop    %edi
 1c0:	69 6e 74 5f 64 65 61 	imul   $0x6165645f,0x74(%esi),%ebp
 1c7:	6c                   	insb   (%dx),%es:(%edi)
 1c8:	6c                   	insb   (%dx),%es:(%edi)
 1c9:	6f                   	outsl  %ds:(%esi),(%dx)
 1ca:	63 61 74             	arpl   %sp,0x74(%ecx)
 1cd:	65                   	gs
 1ce:	5f                   	pop    %edi
 1cf:	74 69                	je     23a <thread_run-0xfffdc6>
 1d1:	64 00 74 68 72       	add    %dh,%fs:0x72(%eax,%ebp,2)
 1d6:	65                   	gs
 1d7:	61                   	popa   
 1d8:	64                   	fs
 1d9:	5f                   	pop    %edi
 1da:	67 6c                	insb   (%dx),%es:(%di)
 1dc:	62 6c 00 74          	bound  %ebp,0x74(%eax,%eax,1)
 1e0:	68 72 5f 69 6e       	push   $0x6e695f72
 1e5:	74 5f                	je     246 <thread_run-0xfffdba>
 1e7:	61                   	popa   
 1e8:	6c                   	insb   (%dx),%es:(%edi)
 1e9:	6c                   	insb   (%dx),%es:(%edi)
 1ea:	6f                   	outsl  %ds:(%esi),(%dx)
 1eb:	63 61 74             	arpl   %sp,0x74(%ecx)
 1ee:	65                   	gs
 1ef:	5f                   	pop    %edi
 1f0:	73 74                	jae    266 <thread_run-0xfffd9a>
 1f2:	61                   	popa   
 1f3:	63 6b 00             	arpl   %bp,0x0(%ebx)
 1f6:	74 68                	je     260 <thread_run-0xfffda0>
 1f8:	72 65                	jb     25f <thread_run-0xfffda1>
 1fa:	61                   	popa   
 1fb:	64                   	fs
 1fc:	5f                   	pop    %edi
 1fd:	67 6c                	insb   (%dx),%es:(%di)
 1ff:	62 6c 5f 73          	bound  %ebp,0x73(%edi,%ebx,2)
 203:	00 74 68 72          	add    %dh,0x72(%eax,%ebp,2)
 207:	65                   	gs
 208:	61                   	popa   
 209:	64                   	fs
 20a:	5f                   	pop    %edi
 20b:	67 6c                	insb   (%dx),%es:(%di)
 20d:	62 6c 5f 74          	bound  %ebp,0x74(%edi,%ebx,2)
 211:	00 74 68 72          	add    %dh,0x72(%eax,%ebp,2)
 215:	5f                   	pop    %edi
 216:	69 6e 74 5f 66 6f 72 	imul   $0x726f665f,0x74(%esi),%ebp
 21d:	6b 5f 63 5f          	imul   $0x5f,0x63(%edi),%ebx
 221:	77 72                	ja     295 <thread_run-0xfffd6b>
 223:	61                   	popa   
 224:	70 70                	jo     296 <thread_run-0xfffd6a>
 226:	65                   	gs
 227:	72 00                	jb     229 <thread_run-0xfffdd7>
 229:	74 68                	je     293 <thread_run-0xfffd6d>
 22b:	72 5f                	jb     28c <thread_run-0xfffd74>
 22d:	73 65                	jae    294 <thread_run-0xfffd6c>
 22f:	74 5f                	je     290 <thread_run-0xfffd70>
 231:	6d                   	insl   (%dx),%es:(%edi)
 232:	61                   	popa   
 233:	69 6e 5f 73 74 61 63 	imul   $0x63617473,0x5f(%esi),%ebp
 23a:	6b 48 00 66          	imul   $0x66,0x0(%eax),%ecx
 23e:	75 6e                	jne    2ae <thread_run-0xfffd52>
 240:	63 00                	arpl   %ax,(%eax)
 242:	74 68                	je     2ac <thread_run-0xfffd54>
 244:	72 5f                	jb     2a5 <thread_run-0xfffd5b>
 246:	69 6e 74 5f 63 72 65 	imul   $0x6572635f,0x74(%esi),%ebp
 24d:	61                   	popa   
 24e:	74 65                	je     2b5 <thread_run-0xfffd4b>
 250:	5f                   	pop    %edi
 251:	74 63                	je     2b6 <thread_run-0xfffd4a>
 253:	62 00                	bound  %eax,(%eax)
 255:	6d                   	insl   (%dx),%es:(%edi)
 256:	61                   	popa   
 257:	69 6e 5f 73 74 61 63 	imul   $0x63617473,0x5f(%esi),%ebp
 25e:	6b 5f 6c 6f          	imul   $0x6f,0x6c(%edi),%ebx
 262:	00 63 68             	add    %ah,0x68(%ebx)
 265:	69 6c 64 5f 72 63 00 	imul   $0x74006372,0x5f(%esp,%eiz,2),%ebp
 26c:	74 
 26d:	68 72 5f 69 6e       	push   $0x6e695f72
 272:	74 5f                	je     2d3 <thread_run-0xfffd2d>
 274:	64                   	fs
 275:	65                   	gs
 276:	61                   	popa   
 277:	6c                   	insb   (%dx),%es:(%edi)
 278:	6c                   	insb   (%dx),%es:(%edi)
 279:	6f                   	outsl  %ds:(%esi),(%dx)
 27a:	63 61 74             	arpl   %sp,0x74(%ecx)
 27d:	65                   	gs
 27e:	5f                   	pop    %edi
 27f:	73 74                	jae    2f5 <thread_run-0xfffd0b>
 281:	61                   	popa   
 282:	63 6b 00             	arpl   %bp,0x0(%ebx)
 285:	63 68 69             	arpl   %bp,0x69(%eax)
 288:	6c                   	insb   (%dx),%es:(%edi)
 289:	64                   	fs
 28a:	5f                   	pop    %edi
 28b:	73 74                	jae    301 <thread_run-0xfffcff>
 28d:	61                   	popa   
 28e:	63 6b 5f             	arpl   %bp,0x5f(%ebx)
 291:	73 69                	jae    2fc <thread_run-0xfffd04>
 293:	7a 65                	jp     2fa <thread_run-0xfffd06>
 295:	00 74 68 72          	add    %dh,0x72(%eax,%ebp,2)
 299:	5f                   	pop    %edi
 29a:	63 72 65             	arpl   %si,0x65(%edx)
 29d:	61                   	popa   
 29e:	74 65                	je     305 <thread_run-0xfffcfb>
 2a0:	00 74 68 72          	add    %dh,0x72(%eax,%ebp,2)
 2a4:	5f                   	pop    %edi
 2a5:	69 6e 69 74 00 74 68 	imul   $0x68740074,0x69(%esi),%ebp
 2ac:	72 5f                	jb     30d <thread_run-0xfffcf3>
 2ae:	69 6e 74 5f 61 6c 6c 	imul   $0x6c6c615f,0x74(%esi),%ebp
 2b5:	6f                   	outsl  %ds:(%esi),(%dx)
 2b6:	63 61 74             	arpl   %sp,0x74(%ecx)
 2b9:	65                   	gs
 2ba:	5f                   	pop    %edi
 2bb:	6e                   	outsb  %ds:(%esi),(%dx)
 2bc:	65                   	gs
 2bd:	77 5f                	ja     31e <thread_run-0xfffce2>
 2bf:	74 69                	je     32a <thread_run-0xfffcd6>
 2c1:	64 00 62 61          	add    %ah,%fs:0x61(%edx)
 2c5:	73 65                	jae    32c <thread_run-0xfffcd4>
 2c7:	00 74 73 74          	add    %dh,0x74(%ebx,%esi,2)
 2cb:	61                   	popa   
 2cc:	63 6b 5f             	arpl   %bp,0x5f(%ebx)
 2cf:	73 69                	jae    33a <thread_run-0xfffcc6>
 2d1:	7a 65                	jp     338 <thread_run-0xfffcc8>
 2d3:	00 72 65             	add    %dh,0x65(%edx)
 2d6:	75 73                	jne    34b <thread_run-0xfffcb5>
 2d8:	65                   	gs
 2d9:	5f                   	pop    %edi
 2da:	73 74                	jae    350 <thread_run-0xfffcb0>
 2dc:	61                   	popa   
 2dd:	63 6b 73             	arpl   %bp,0x73(%ebx)
 2e0:	00 63 68             	add    %ah,0x68(%ebx)
 2e3:	69 6c 64 5f 74 69 64 	imul   $0x646974,0x5f(%esp,%eiz,2),%ebp
 2ea:	00 
 2eb:	73 74                	jae    361 <thread_run-0xfffc9f>
 2ed:	61                   	popa   
 2ee:	63 6b 5f             	arpl   %bp,0x5f(%ebx)
 2f1:	70 74                	jo     367 <thread_run-0xfffc99>
 2f3:	72 00                	jb     2f5 <thread_run-0xfffd0b>
 2f5:	75 73                	jne    36a <thread_run-0xfffc96>
 2f7:	65                   	gs
 2f8:	72 2f                	jb     329 <thread_run-0xfffcd7>
 2fa:	6c                   	insb   (%dx),%es:(%edi)
 2fb:	69 62 74 68 72 65 61 	imul   $0x61657268,0x74(%edx),%esp
 302:	64                   	fs
 303:	2f                   	das    
 304:	74 68                	je     36e <thread_run-0xfffc92>
 306:	72 65                	jb     36d <thread_run-0xfffc93>
 308:	61                   	popa   
 309:	64 2e 63 00          	fs arpl %ax,%cs:%fs:(%eax)
 30d:	69 6e 70 5f 73 69 7a 	imul   $0x7a69735f,0x70(%esi),%ebp
 314:	65 00 74 63 62       	add    %dh,%gs:0x62(%ebx,%eiz,2)
 319:	5f                   	pop    %edi
 31a:	73 74                	jae    390 <thread_run-0xfffc70>
 31c:	61                   	popa   
 31d:	63 6b 5f             	arpl   %bp,0x5f(%ebx)
 320:	68 69 00 72 65       	push   $0x65720069
 325:	75 73                	jne    39a <thread_run-0xfffc66>
 327:	65                   	gs
 328:	5f                   	pop    %edi
 329:	73 74                	jae    39f <thread_run-0xfffc61>
 32b:	61                   	popa   
 32c:	63 6b 00             	arpl   %bp,0x0(%ebx)
 32f:	5f                   	pop    %edi
 330:	5f                   	pop    %edi
 331:	73 69                	jae    39c <thread_run-0xfffc64>
 333:	7a 65                	jp     39a <thread_run-0xfffc66>
 335:	00 73 69             	add    %dh,0x69(%ebx)
 338:	7a 65                	jp     39f <thread_run-0xfffc61>
 33a:	5f                   	pop    %edi
 33b:	74 00                	je     33d <thread_run-0xfffcc3>
 33d:	5f                   	pop    %edi
 33e:	5f                   	pop    %edi
 33f:	6e                   	outsb  %ds:(%esi),(%dx)
 340:	65                   	gs
 341:	77 5f                	ja     3a2 <thread_run-0xfffc5e>
 343:	73 69                	jae    3ae <thread_run-0xfffc52>
 345:	7a 65                	jp     3ac <thread_run-0xfffc54>
 347:	00 5f 5f             	add    %bl,0x5f(%edi)
 34a:	62 75 66             	bound  %esi,0x66(%ebp)
 34d:	00 75 73             	add    %dh,0x73(%ebp)
 350:	65                   	gs
 351:	72 2f                	jb     382 <thread_run-0xfffc7e>
 353:	6c                   	insb   (%dx),%es:(%edi)
 354:	69 62 74 68 72 65 61 	imul   $0x61657268,0x74(%edx),%esp
 35b:	64                   	fs
 35c:	2f                   	das    
 35d:	6d                   	insl   (%dx),%es:(%edi)
 35e:	61                   	popa   
 35f:	6c                   	insb   (%dx),%es:(%edi)
 360:	6c                   	insb   (%dx),%es:(%edi)
 361:	6f                   	outsl  %ds:(%esi),(%dx)
 362:	63 2e                	arpl   %bp,(%esi)
 364:	63 00                	arpl   %ax,(%eax)
 366:	5f                   	pop    %edi
 367:	5f                   	pop    %edi
 368:	6e                   	outsb  %ds:(%esi),(%dx)
 369:	65                   	gs
 36a:	6c                   	insb   (%dx),%es:(%edi)
 36b:	74 00                	je     36d <thread_run-0xfffc93>
 36d:	5f                   	pop    %edi
 36e:	5f                   	pop    %edi
 36f:	65                   	gs
 370:	6c                   	insb   (%dx),%es:(%edi)
 371:	74 73                	je     3e6 <thread_run-0xfffc1a>
 373:	69 7a 65 00 5f 5f 62 	imul   $0x625f5f00,0x65(%edx),%edi
 37a:	75 69                	jne    3e5 <thread_run-0xfffc1b>
 37c:	6c                   	insb   (%dx),%es:(%edi)
 37d:	74 69                	je     3e8 <thread_run-0xfffc18>
 37f:	6e                   	outsb  %ds:(%esi),(%dx)
 380:	5f                   	pop    %edi
 381:	76 61                	jbe    3e4 <thread_run-0xfffc1c>
 383:	5f                   	pop    %edi
 384:	6c                   	insb   (%dx),%es:(%edi)
 385:	69 73 74 00 6d 61 67 	imul   $0x67616d00,0x74(%ebx),%esi
 38c:	69 63 5f 72 65 61 64 	imul   $0x64616572,0x5f(%ebx),%esp
 393:	6c                   	insb   (%dx),%es:(%edi)
 394:	69 6e 65 00 73 69 6d 	imul   $0x6d697300,0x65(%esi),%ebp
 39b:	5f                   	pop    %edi
 39c:	70 75                	jo     413 <thread_run-0xfffbed>
 39e:	74 73                	je     413 <thread_run-0xfffbed>
 3a0:	00 73 69             	add    %dh,0x69(%ebx)
 3a3:	6d                   	insl   (%dx),%es:(%edi)
 3a4:	5f                   	pop    %edi
 3a5:	69 6e 5f 73 69 6d 69 	imul   $0x696d6973,0x5f(%esi),%ebp
 3ac:	63 73 00             	arpl   %si,0x0(%ebx)
 3af:	73 69                	jae    41a <thread_run-0xfffbe6>
 3b1:	6d                   	insl   (%dx),%es:(%edi)
 3b2:	5f                   	pop    %edi
 3b3:	68 61 6c 74 00       	push   $0x746c61
 3b8:	73 69                	jae    423 <thread_run-0xfffbdd>
 3ba:	6d                   	insl   (%dx),%es:(%edi)
 3bb:	5f                   	pop    %edi
 3bc:	66                   	data16
 3bd:	72 5f                	jb     41e <thread_run-0xfffbe2>
 3bf:	70 72                	jo     433 <thread_run-0xfffbcd>
 3c1:	6f                   	outsl  %ds:(%esi),(%dx)
 3c2:	67 00 34             	add    %dh,(%si)
 3c5:	31 30                	xor    %esi,(%eax)
 3c7:	75 73                	jne    43c <thread_run-0xfffbc4>
 3c9:	65                   	gs
 3ca:	72 2f                	jb     3fb <thread_run-0xfffc05>
 3cc:	6c                   	insb   (%dx),%es:(%edi)
 3cd:	69 62 73 69 6d 69 63 	imul   $0x63696d69,0x73(%edx),%esp
 3d4:	73 2f                	jae    405 <thread_run-0xfffbfb>
 3d6:	73 69                	jae    441 <thread_run-0xfffbbf>
 3d8:	6d                   	insl   (%dx),%es:(%edi)
 3d9:	69 63 73 5f 63 2e 63 	imul   $0x632e635f,0x73(%ebx),%esp
 3e0:	00 73 69             	add    %dh,0x69(%ebx)
 3e3:	6d                   	insl   (%dx),%es:(%edi)
 3e4:	5f                   	pop    %edi
 3e5:	6d                   	insl   (%dx),%es:(%edi)
 3e6:	65                   	gs
 3e7:	6d                   	insl   (%dx),%es:(%edi)
 3e8:	73 69                	jae    453 <thread_run-0xfffbad>
 3ea:	7a 65                	jp     451 <thread_run-0xfffbaf>
 3ec:	00 73 69             	add    %dh,0x69(%ebx)
 3ef:	6d                   	insl   (%dx),%es:(%edi)
 3f0:	5f                   	pop    %edi
 3f1:	70 72                	jo     465 <thread_run-0xfffb9b>
 3f3:	69 6e 74 66 00 73 69 	imul   $0x69730066,0x74(%esi),%ebp
 3fa:	6d                   	insl   (%dx),%es:(%edi)
 3fb:	5f                   	pop    %edi
 3fc:	63 6b 31             	arpl   %bp,0x31(%ebx)
 3ff:	00 73 69             	add    %dh,0x69(%ebx)
 402:	6d                   	insl   (%dx),%es:(%edi)
 403:	5f                   	pop    %edi
 404:	66                   	data16
 405:	72 5f                	jb     466 <thread_run-0xfffb9a>
 407:	68 65 72 65 00       	push   $0x657265
 40c:	73 69                	jae    477 <thread_run-0xfffb89>
 40e:	6d                   	insl   (%dx),%es:(%edi)
 40f:	5f                   	pop    %edi
 410:	62 72 65             	bound  %esi,0x65(%edx)
 413:	61                   	popa   
 414:	6b 70 6f 69          	imul   $0x69,0x6f(%eax),%esi
 418:	6e                   	outsb  %ds:(%esi),(%dx)
 419:	74 00                	je     41b <thread_run-0xfffbe5>
 41b:	34 31                	xor    $0x31,%al
 41d:	30 75 73             	xor    %dh,0x73(%ebp)
 420:	65                   	gs
 421:	72 2f                	jb     452 <thread_run-0xfffbae>
 423:	6c                   	insb   (%dx),%es:(%edi)
 424:	69 62 73 74 64 69 6f 	imul   $0x6f696474,0x73(%edx),%esp
 42b:	2f                   	das    
 42c:	73 70                	jae    49e <thread_run-0xfffb62>
 42e:	72 69                	jb     499 <thread_run-0xfffb67>
 430:	6e                   	outsb  %ds:(%esi),(%dx)
 431:	74 66                	je     499 <thread_run-0xfffb67>
 433:	2e 63 00             	arpl   %ax,%cs:(%eax)
 436:	76 73                	jbe    4ab <thread_run-0xfffb55>
 438:	70 72                	jo     4ac <thread_run-0xfffb54>
 43a:	69 6e 74 66 00 76 73 	imul   $0x73760066,0x74(%esi),%ebp
 441:	6e                   	outsb  %ds:(%esi),(%dx)
 442:	70 72                	jo     4b6 <thread_run-0xfffb4a>
 444:	69 6e 74 66 00 73 61 	imul   $0x61730066,0x74(%esi),%ebp
 44b:	76 65                	jbe    4b2 <thread_run-0xfffb4e>
 44d:	63 68 61             	arpl   %bp,0x61(%eax)
 450:	72 00                	jb     452 <thread_run-0xfffbae>
 452:	73 70                	jae    4c4 <thread_run-0xfffb3c>
 454:	72 69                	jb     4bf <thread_run-0xfffb41>
 456:	6e                   	outsb  %ds:(%esi),(%dx)
 457:	74 66                	je     4bf <thread_run-0xfffb41>
 459:	5f                   	pop    %edi
 45a:	73 74                	jae    4d0 <thread_run-0xfffb30>
 45c:	61                   	popa   
 45d:	74 65                	je     4c4 <thread_run-0xfffb3c>
 45f:	00 6c 6f 6e          	add    %ch,0x6e(%edi,%ebp,2)
 463:	67 20 6c 6f          	and    %ch,0x6f(%si)
 467:	6e                   	outsb  %ds:(%esi),(%dx)
 468:	67 20 69 6e          	and    %ch,0x6e(%bx,%di)
 46c:	74 00                	je     46e <thread_run-0xfffb92>
 46e:	62 6f 6f             	bound  %ebp,0x6f(%edi)
 471:	6c                   	insb   (%dx),%es:(%edi)
 472:	65                   	gs
 473:	61                   	popa   
 474:	6e                   	outsb  %ds:(%esi),(%dx)
 475:	5f                   	pop    %edi
 476:	74 00                	je     478 <thread_run-0xfffb88>
 478:	70 75                	jo     4ef <thread_run-0xfffb11>
 47a:	74 63                	je     4df <thread_run-0xfffb21>
 47c:	5f                   	pop    %edi
 47d:	61                   	popa   
 47e:	72 67                	jb     4e7 <thread_run-0xfffb19>
 480:	00 70 72             	add    %dh,0x72(%eax)
 483:	69 6e 74 5f 73 69 67 	imul   $0x6769735f,0x74(%esi),%ebp
 48a:	6e                   	outsb  %ds:(%esi),(%dx)
 48b:	65 64 00 72 61       	gs add %dh,%fs:%gs:0x61(%edx)
 490:	64 69 78 00 61 6c 74 	imul   $0x66746c61,%fs:0x0(%eax),%edi
 497:	66 
 498:	6d                   	insl   (%dx),%es:(%edi)
 499:	74 00                	je     49b <thread_run-0xfffb65>
 49b:	64 69 67 69 74 73 00 	imul   $0x64007374,%fs:0x69(%edi),%esp
 4a2:	64 
 4a3:	69 67 73 00 70 61 64 	imul   $0x64617000,0x73(%edi),%esp
 4aa:	63 00                	arpl   %ax,(%eax)
 4ac:	70 72                	jo     520 <thread_run-0xfffae0>
 4ae:	69 6e 74 5f 75 6e 73 	imul   $0x736e755f,0x74(%esi),%ebp
 4b5:	69 67 6e 65 64 00 6c 	imul   $0x6c006465,0x6e(%edi),%esp
 4bc:	61                   	popa   
 4bd:	64                   	fs
 4be:	6a 75                	push   $0x75
 4c0:	73 74                	jae    536 <thread_run-0xfffaca>
 4c2:	00 46 41             	add    %al,0x41(%esi)
 4c5:	4c                   	dec    %esp
 4c6:	53                   	push   %ebx
 4c7:	45                   	inc    %ebp
 4c8:	00 70 72             	add    %dh,0x72(%eax)
 4cb:	65 63 00             	arpl   %ax,%gs:(%eax)
 4ce:	76 65                	jbe    535 <thread_run-0xfffacb>
 4d0:	72 73                	jb     545 <thread_run-0xfffabb>
 4d2:	69 6f 6e 5f 6c 6f 77 	imul   $0x776f6c5f,0x6e(%edi),%ebp
 4d9:	00 6c 68 5f          	add    %ch,0x5f(%eax,%ebp,2)
 4dd:	74 00                	je     4df <thread_run-0xfffb21>
 4df:	70 72                	jo     553 <thread_run-0xfffaad>
 4e1:	65 66 69 78 00 76 65 	imul   $0x6576,%gs:0x0(%eax),%di
 4e8:	72 73                	jb     55d <thread_run-0xfffaa3>
 4ea:	69 6f 6e 5f 68 69 67 	imul   $0x6769685f,0x6e(%edi),%ebp
 4f1:	68 00 34 31 30       	push   $0x30313400
 4f6:	75 73                	jne    56b <thread_run-0xfffa95>
 4f8:	65                   	gs
 4f9:	72 2f                	jb     52a <thread_run-0xfffad6>
 4fb:	6c                   	insb   (%dx),%es:(%edi)
 4fc:	69 62 73 74 64 69 6f 	imul   $0x6f696474,0x73(%edx),%esp
 503:	2f                   	das    
 504:	64 6f                	outsl  %fs:(%esi),(%dx)
 506:	70 72                	jo     57a <thread_run-0xfffa86>
 508:	6e                   	outsb  %ds:(%esi),(%dx)
 509:	74 2e                	je     539 <thread_run-0xfffac7>
 50b:	63 00                	arpl   %ax,(%eax)
 50d:	70 6c                	jo     57b <thread_run-0xfffa85>
 50f:	75 73                	jne    584 <thread_run-0xfffa7c>
 511:	5f                   	pop    %edi
 512:	73 69                	jae    57d <thread_run-0xfffa83>
 514:	67 6e                	outsb  %ds:(%si),(%dx)
 516:	00 5f 64             	add    %bl,0x64(%edi)
 519:	6f                   	outsl  %ds:(%esi),(%dx)
 51a:	70 72                	jo     58e <thread_run-0xfffa72>
 51c:	6e                   	outsb  %ds:(%esi),(%dx)
 51d:	74 00                	je     51f <thread_run-0xfffae1>
 51f:	73 69                	jae    58a <thread_run-0xfffa76>
 521:	67 6e                	outsb  %ds:(%si),(%dx)
 523:	5f                   	pop    %edi
 524:	63 68 61             	arpl   %bp,0x61(%eax)
 527:	72 00                	jb     529 <thread_run-0xfffad7>
 529:	6e                   	outsb  %ds:(%esi),(%dx)
 52a:	65                   	gs
 52b:	73 74                	jae    5a1 <thread_run-0xfffa5f>
 52d:	00 63 68             	add    %ah,0x68(%ebx)
 530:	69 65 66 00 70 72 69 	imul   $0x69727000,0x66(%ebp),%esp
 537:	6e                   	outsb  %ds:(%esi),(%dx)
 538:	74 6e                	je     5a8 <thread_run-0xfffa58>
 53a:	75 6d                	jne    5a9 <thread_run-0xfffa57>
 53c:	5f                   	pop    %edi
 53d:	31 36                	xor    %esi,(%esi)
 53f:	00 5f 64             	add    %bl,0x64(%edi)
 542:	6f                   	outsl  %ds:(%esi),(%dx)
 543:	70 72                	jo     5b7 <thread_run-0xfffa49>
 545:	6e                   	outsb  %ds:(%esi),(%dx)
 546:	74 5f                	je     5a7 <thread_run-0xfffa59>
 548:	74 72                	je     5bc <thread_run-0xfffa44>
 54a:	75 6e                	jne    5ba <thread_run-0xfffa46>
 54c:	63 61 74             	arpl   %sp,0x74(%ecx)
 54f:	65                   	gs
 550:	73 00                	jae    552 <thread_run-0xfffaae>
 552:	70 72                	jo     5c6 <thread_run-0xfffa3a>
 554:	69 6e 74 6e 75 6d 00 	imul   $0x6d756e,0x74(%esi),%ebp
 55b:	70 75                	jo     5d2 <thread_run-0xfffa2e>
 55d:	74 63                	je     5c2 <thread_run-0xfffa3e>
 55f:	00 54 52 55          	add    %dl,0x55(%edx,%edx,2)
 563:	45                   	inc    %ebp
 564:	00 74 61 73          	add    %dh,0x73(%ecx,%eiz,2)
 568:	6b 00 74             	imul   $0x74,(%eax),%eax
 56b:	72 75                	jb     5e2 <thread_run-0xfffa1e>
 56d:	6e                   	outsb  %ds:(%esi),(%dx)
 56e:	63 61 74             	arpl   %sp,0x74(%ecx)
 571:	65 00 70 72          	add    %dh,%gs:0x72(%eax)
 575:	69 6e 74 5f 6e 75 6d 	imul   $0x6d756e5f,0x74(%esi),%ebp
 57c:	00 6c 6f 6e          	add    %ch,0x6e(%edi,%ebp,2)
 580:	67 6f                	outsl  %ds:(%si),(%dx)
 582:	70 74                	jo     5f8 <thread_run-0xfffa08>
 584:	00 6c 74 68          	add    %ch,0x68(%esp,%esi,2)
 588:	72 65                	jb     5ef <thread_run-0xfffa11>
 58a:	61                   	popa   
 58b:	64 00 6c 65 6e       	add    %ch,%fs:0x6e(%ebp,%eiz,2)
 590:	67 74 68             	addr16 je 5fb <thread_run-0xfffa05>
 593:	00 6c 6f 6e          	add    %ch,0x6e(%edi,%ebp,2)
 597:	67 20 6c 6f          	and    %ch,0x6f(%si)
 59b:	6e                   	outsb  %ds:(%esi),(%dx)
 59c:	67 20 75 6e          	and    %dh,0x6e(%di)
 5a0:	73 69                	jae    60b <thread_run-0xfff9f5>
 5a2:	67 6e                	outsb  %ds:(%si),(%dx)
 5a4:	65 64 20 69 6e       	gs and %ch,%fs:%gs:0x6e(%ecx)
 5a9:	74 00                	je     5ab <thread_run-0xfffa55>
 5ab:	73 69                	jae    616 <thread_run-0xfff9ea>
 5ad:	74 65                	je     614 <thread_run-0xfff9ec>
 5af:	00 65 78             	add    %ah,0x78(%ebp)
 5b2:	69 74 00 34 31 30 75 	imul   $0x73753031,0x34(%eax,%eax,1),%esi
 5b9:	73 
 5ba:	65                   	gs
 5bb:	72 2f                	jb     5ec <thread_run-0xfffa14>
 5bd:	6c                   	insb   (%dx),%es:(%edi)
 5be:	69 62 73 74 64 6c 69 	imul   $0x696c6474,0x73(%edx),%esp
 5c5:	62 2f                	bound  %ebp,(%edi)
 5c7:	65                   	gs
 5c8:	78 69                	js     633 <thread_run-0xfff9cd>
 5ca:	74 2e                	je     5fa <thread_run-0xfffa06>
 5cc:	63 00                	arpl   %ax,(%eax)
 5ce:	34 31                	xor    $0x31,%al
 5d0:	30 75 73             	xor    %dh,0x73(%ebp)
 5d3:	65                   	gs
 5d4:	72 2f                	jb     605 <thread_run-0xfff9fb>
 5d6:	6c                   	insb   (%dx),%es:(%edi)
 5d7:	69 62 73 74 72 69 6e 	imul   $0x6e697274,0x73(%edx),%esp
 5de:	67 2f                	addr16 das 
 5e0:	6d                   	insl   (%dx),%es:(%edi)
 5e1:	65                   	gs
 5e2:	6d                   	insl   (%dx),%es:(%edi)
 5e3:	73 65                	jae    64a <thread_run-0xfff9b6>
 5e5:	74 2e                	je     615 <thread_run-0xfff9eb>
 5e7:	63 00                	arpl   %ax,(%eax)
 5e9:	6d                   	insl   (%dx),%es:(%edi)
 5ea:	65                   	gs
 5eb:	6d                   	insl   (%dx),%es:(%edi)
 5ec:	73 65                	jae    653 <thread_run-0xfff9ad>
 5ee:	74 00                	je     5f0 <thread_run-0xfffa10>
 5f0:	73 74                	jae    666 <thread_run-0xfff99a>
 5f2:	72 69                	jb     65d <thread_run-0xfff9a3>
 5f4:	6e                   	outsb  %ds:(%esi),(%dx)
 5f5:	67 00 73 74          	add    %dh,0x74(%bp,%di)
 5f9:	72 6c                	jb     667 <thread_run-0xfff999>
 5fb:	65 6e                	outsb  %gs:(%esi),(%dx)
 5fd:	00 34 31             	add    %dh,(%ecx,%esi,1)
 600:	30 75 73             	xor    %dh,0x73(%ebp)
 603:	65                   	gs
 604:	72 2f                	jb     635 <thread_run-0xfff9cb>
 606:	6c                   	insb   (%dx),%es:(%edi)
 607:	69 62 73 74 72 69 6e 	imul   $0x6e697274,0x73(%edx),%esp
 60e:	67 2f                	addr16 das 
 610:	73 74                	jae    686 <thread_run-0xfff97a>
 612:	72 6c                	jb     680 <thread_run-0xfff980>
 614:	65 6e                	outsb  %gs:(%esi),(%dx)
 616:	2e 63 00             	arpl   %ax,%cs:(%eax)
 619:	69 6e 69 74 65 64 00 	imul   $0x646574,0x69(%esi),%ebp
 620:	5f                   	pop    %edi
 621:	63 61 6c             	arpl   %sp,0x6c(%ecx)
 624:	6c                   	insb   (%dx),%es:(%edi)
 625:	6f                   	outsl  %ds:(%esi),(%dx)
 626:	63 00                	arpl   %ax,(%eax)
 628:	34 31                	xor    $0x31,%al
 62a:	30 75 73             	xor    %dh,0x73(%ebp)
 62d:	65                   	gs
 62e:	72 2f                	jb     65f <thread_run-0xfff9a1>
 630:	6c                   	insb   (%dx),%es:(%edi)
 631:	69 62 6d 61 6c 6c 6f 	imul   $0x6f6c6c61,0x6d(%edx),%esp
 638:	63 2f                	arpl   %bp,(%edi)
 63a:	6d                   	insl   (%dx),%es:(%edi)
 63b:	61                   	popa   
 63c:	6c                   	insb   (%dx),%es:(%edi)
 63d:	6c                   	insb   (%dx),%es:(%edi)
 63e:	6f                   	outsl  %ds:(%esi),(%dx)
 63f:	63 2e                	arpl   %bp,(%esi)
 641:	63 00                	arpl   %ax,(%eax)
 643:	63 73 69             	arpl   %si,0x69(%ebx)
 646:	7a 65                	jp     6ad <thread_run-0xfff953>
 648:	00 65 78             	add    %ah,0x78(%ebp)
 64b:	74 65                	je     6b2 <thread_run-0xfff94e>
 64d:	6e                   	outsb  %ds:(%esi),(%dx)
 64e:	64                   	fs
 64f:	73 69                	jae    6ba <thread_run-0xfff946>
 651:	7a 65                	jp     6b8 <thread_run-0xfff948>
 653:	00 76 65             	add    %dh,0x65(%esi)
 656:	72 62                	jb     6ba <thread_run-0xfff946>
 658:	6f                   	outsl  %ds:(%esi),(%dx)
 659:	73 65                	jae    6c0 <thread_run-0xfff940>
 65b:	00 6d 6d             	add    %ch,0x6d(%ebp)
 65e:	5f                   	pop    %edi
 65f:	69 6e 69 74 00 34 31 	imul   $0x31340074,0x69(%esi),%ebp
 666:	30 75 73             	xor    %dh,0x73(%ebp)
 669:	65                   	gs
 66a:	72 2f                	jb     69b <thread_run-0xfff965>
 66c:	6c                   	insb   (%dx),%es:(%edi)
 66d:	69 62 6d 61 6c 6c 6f 	imul   $0x6f6c6c61,0x6d(%edx),%esp
 674:	63 2f                	arpl   %bp,(%edi)
 676:	6d                   	insl   (%dx),%es:(%edi)
 677:	6d                   	insl   (%dx),%es:(%edi)
 678:	5f                   	pop    %edi
 679:	6d                   	insl   (%dx),%es:(%edi)
 67a:	61                   	popa   
 67b:	6c                   	insb   (%dx),%es:(%edi)
 67c:	6c                   	insb   (%dx),%es:(%edi)
 67d:	6f                   	outsl  %ds:(%esi),(%dx)
 67e:	63 2e                	arpl   %bp,(%esi)
 680:	63 00                	arpl   %ax,(%eax)
 682:	6d                   	insl   (%dx),%es:(%edi)
 683:	6d                   	insl   (%dx),%es:(%edi)
 684:	5f                   	pop    %edi
 685:	72 65                	jb     6ec <thread_run-0xfff914>
 687:	61                   	popa   
 688:	6c                   	insb   (%dx),%es:(%edi)
 689:	6c                   	insb   (%dx),%es:(%edi)
 68a:	6f                   	outsl  %ds:(%esi),(%dx)
 68b:	63 00                	arpl   %ax,(%eax)
 68d:	68 73 69 7a 65       	push   $0x657a6973
 692:	00 68 65             	add    %ch,0x65(%eax)
 695:	61                   	popa   
 696:	70 5f                	jo     6f7 <thread_run-0xfff909>
 698:	6c                   	insb   (%dx),%es:(%edi)
 699:	69 73 74 70 00 6e 65 	imul   $0x656e0070,0x74(%ebx),%esi
 6a0:	78 74                	js     716 <thread_run-0xfff8ea>
 6a2:	5f                   	pop    %edi
 6a3:	61                   	popa   
 6a4:	6c                   	insb   (%dx),%es:(%edi)
 6a5:	6c                   	insb   (%dx),%es:(%edi)
 6a6:	6f                   	outsl  %ds:(%esi),(%dx)
 6a7:	63 00                	arpl   %ax,(%eax)
 6a9:	68 61 6c 6c 6f       	push   $0x6f6c6c61
 6ae:	63 00                	arpl   %ax,(%eax)
 6b0:	6e                   	outsb  %ds:(%esi),(%dx)
 6b1:	65                   	gs
 6b2:	77 5f                	ja     713 <thread_run-0xfff8ed>
 6b4:	63 68 75             	arpl   %bp,0x75(%eax)
 6b7:	6e                   	outsb  %ds:(%esi),(%dx)
 6b8:	6b 00 66             	imul   $0x66,(%eax),%eax
 6bb:	69 6e 64 5f 66 69 74 	imul   $0x7469665f,0x64(%esi),%ebp
 6c2:	00 61 73             	add    %ah,0x73(%ecx)
 6c5:	69 7a 65 00 77 6f 72 	imul   $0x726f7700,0x65(%edx),%edi
 6cc:	64                   	fs
 6cd:	73 00                	jae    6cf <thread_run-0xfff931>
 6cf:	6d                   	insl   (%dx),%es:(%edi)
 6d0:	6d                   	insl   (%dx),%es:(%edi)
 6d1:	5f                   	pop    %edi
 6d2:	6d                   	insl   (%dx),%es:(%edi)
 6d3:	61                   	popa   
 6d4:	6c                   	insb   (%dx),%es:(%edi)
 6d5:	6c                   	insb   (%dx),%es:(%edi)
 6d6:	6f                   	outsl  %ds:(%esi),(%dx)
 6d7:	63 00                	arpl   %ax,(%eax)
 6d9:	6d                   	insl   (%dx),%es:(%edi)
 6da:	6d                   	insl   (%dx),%es:(%edi)
 6db:	5f                   	pop    %edi
 6dc:	66                   	data16
 6dd:	72 65                	jb     744 <thread_run-0xfff8bc>
 6df:	65 00 70 72          	add    %dh,%gs:0x72(%eax)
 6e3:	65                   	gs
 6e4:	76 5f                	jbe    745 <thread_run-0xfff8bb>
 6e6:	61                   	popa   
 6e7:	6c                   	insb   (%dx),%es:(%edi)
 6e8:	6c                   	insb   (%dx),%es:(%edi)
 6e9:	6f                   	outsl  %ds:(%esi),(%dx)
 6ea:	63 00                	arpl   %ax,(%eax)
 6ec:	66 61                	popaw  
 6ee:	6c                   	insb   (%dx),%es:(%edi)
 6ef:	6c                   	insb   (%dx),%es:(%edi)
 6f0:	6f                   	outsl  %ds:(%esi),(%dx)
 6f1:	63 00                	arpl   %ax,(%eax)
 6f3:	66                   	data16
 6f4:	73 69                	jae    75f <thread_run-0xfff8a1>
 6f6:	7a 65                	jp     75d <thread_run-0xfff8a3>
 6f8:	00 70 6c             	add    %dh,0x6c(%eax)
 6fb:	61                   	popa   
 6fc:	63 65 00             	arpl   %sp,0x0(%ebp)
 6ff:	6f                   	outsl  %ds:(%esi),(%dx)
 700:	6c                   	insb   (%dx),%es:(%edi)
 701:	64                   	fs
 702:	5f                   	pop    %edi
 703:	73 69                	jae    76e <thread_run-0xfff892>
 705:	7a 65                	jp     76c <thread_run-0xfff894>
 707:	00 63 6f             	add    %ah,0x6f(%ebx)
 70a:	61                   	popa   
 70b:	6c                   	insb   (%dx),%es:(%edi)
 70c:	65                   	gs
 70d:	73 63                	jae    772 <thread_run-0xfff88e>
 70f:	65 00 63 68          	add    %ah,%gs:0x68(%ebx)
 713:	65 63 6b 62          	arpl   %bp,%gs:0x62(%ebx)
 717:	6c                   	insb   (%dx),%es:(%edi)
 718:	6f                   	outsl  %ds:(%esi),(%dx)
 719:	63 6b 00             	arpl   %bp,0x0(%ebx)
 71c:	6d                   	insl   (%dx),%es:(%edi)
 71d:	6d                   	insl   (%dx),%es:(%edi)
 71e:	5f                   	pop    %edi
 71f:	63 68 65             	arpl   %bp,0x65(%eax)
 722:	63 6b 68             	arpl   %bp,0x68(%ebx)
 725:	65                   	gs
 726:	61                   	popa   
 727:	70 00                	jo     729 <thread_run-0xfff8d7>
 729:	70 72                	jo     79d <thread_run-0xfff863>
 72b:	69 6e 74 62 6c 6f 63 	imul   $0x636f6c62,0x74(%esi),%ebp
 732:	6b 00 65             	imul   $0x65,(%eax),%eax
 735:	78 74                	js     7ab <thread_run-0xfff855>
 737:	65 6e                	outsb  %gs:(%esi),(%dx)
 739:	64                   	fs
 73a:	5f                   	pop    %edi
 73b:	68 65 61 70 00       	push   $0x706165
 740:	34 31                	xor    $0x31,%al
 742:	30 75 73             	xor    %dh,0x73(%ebp)
 745:	65                   	gs
 746:	72 2f                	jb     777 <thread_run-0xfff889>
 748:	6c                   	insb   (%dx),%es:(%edi)
 749:	69 62 6d 61 6c 6c 6f 	imul   $0x6f6c6c61,0x6d(%edx),%esp
 750:	63 2f                	arpl   %bp,(%edi)
 752:	6d                   	insl   (%dx),%es:(%edi)
 753:	65                   	gs
 754:	6d                   	insl   (%dx),%es:(%edi)
 755:	6c                   	insb   (%dx),%es:(%edi)
 756:	69 62 2e 63 00 6d 65 	imul   $0x656d0063,0x2e(%edx),%esp
 75d:	6d                   	insl   (%dx),%es:(%edi)
 75e:	5f                   	pop    %edi
 75f:	62 72 6b             	bound  %esi,0x6b(%edx)
 762:	70 00                	jo     764 <thread_run-0xfff89c>
 764:	6d                   	insl   (%dx),%es:(%edi)
 765:	65                   	gs
 766:	6d                   	insl   (%dx),%es:(%edi)
 767:	5f                   	pop    %edi
 768:	61                   	popa   
 769:	6c                   	insb   (%dx),%es:(%edi)
 76a:	6c                   	insb   (%dx),%es:(%edi)
 76b:	6f                   	outsl  %ds:(%esi),(%dx)
 76c:	63 74 6f 70          	arpl   %si,0x70(%edi,%ebp,2)
 770:	00 6d 65             	add    %ch,0x65(%ebp)
 773:	6d                   	insl   (%dx),%es:(%edi)
 774:	5f                   	pop    %edi
 775:	69 6e 69 74 00 61 6c 	imul   $0x6c610074,0x69(%esi),%ebp
 77c:	6c                   	insb   (%dx),%es:(%edi)
 77d:	6f                   	outsl  %ds:(%esi),(%dx)
 77e:	63 69 6e             	arpl   %bp,0x6e(%ecx)
 781:	63 72 00             	arpl   %si,0x0(%edx)
 784:	5f                   	pop    %edi
 785:	65 6e                	outsb  %gs:(%esi),(%dx)
 787:	64 00 6f 6c          	add    %ch,%fs:0x6c(%edi)
 78b:	64                   	fs
 78c:	5f                   	pop    %edi
 78d:	62 72 6b             	bound  %esi,0x6b(%edx)
 790:	00 6d 61             	add    %ch,0x61(%ebp)
 793:	78 5f                	js     7f4 <thread_run-0xfff80c>
 795:	68 65 61 70 5f       	push   $0x5f706165
 79a:	61                   	popa   
 79b:	64                   	fs
 79c:	64                   	fs
 79d:	72 00                	jb     79f <thread_run-0xfff861>
 79f:	6d                   	insl   (%dx),%es:(%edi)
 7a0:	65                   	gs
 7a1:	6d                   	insl   (%dx),%es:(%edi)
 7a2:	5f                   	pop    %edi
 7a3:	73 62                	jae    807 <thread_run-0xfff7f9>
 7a5:	72 6b                	jb     812 <thread_run-0xfff7ee>
 7a7:	00 6d 65             	add    %ch,0x65(%ebp)
 7aa:	6d                   	insl   (%dx),%es:(%edi)
 7ab:	5f                   	pop    %edi
 7ac:	6d                   	insl   (%dx),%es:(%edi)
 7ad:	61                   	popa   
 7ae:	78 5f                	js     80f <thread_run-0xfff7f1>
 7b0:	61                   	popa   
 7b1:	64                   	fs
 7b2:	64                   	fs
 7b3:	72 00                	jb     7b5 <thread_run-0xfff84b>
 7b5:	65                   	gs
 7b6:	72 72                	jb     82a <thread_run-0xfff7d6>
 7b8:	6f                   	outsl  %ds:(%esi),(%dx)
 7b9:	72 5f                	jb     81a <thread_run-0xfff7e6>
 7bb:	63 6f 64             	arpl   %bp,0x64(%edi)
 7be:	65 00 75 72          	add    %dh,%gs:0x72(%ebp)
 7c2:	65                   	gs
 7c3:	67 5f                	addr16 pop %edi
 7c5:	74 00                	je     7c7 <thread_run-0xfff839>
 7c7:	6f                   	outsl  %ds:(%esi),(%dx)
 7c8:	66                   	data16
 7c9:	66                   	data16
 7ca:	73 65                	jae    831 <thread_run-0xfff7cf>
 7cc:	74 00                	je     7ce <thread_run-0xfff832>
 7ce:	75 73                	jne    843 <thread_run-0xfff7bd>
 7d0:	65                   	gs
 7d1:	72 2f                	jb     802 <thread_run-0xfff7fe>
 7d3:	6c                   	insb   (%dx),%es:(%edi)
 7d4:	69 62 73 79 73 63 61 	imul   $0x61637379,0x73(%edx),%esp
 7db:	6c                   	insb   (%dx),%es:(%edi)
 7dc:	6c                   	insb   (%dx),%es:(%edi)
 7dd:	2f                   	das    
 7de:	73 79                	jae    859 <thread_run-0xfff7a7>
 7e0:	73 63                	jae    845 <thread_run-0xfff7bb>
 7e2:	61                   	popa   
 7e3:	6c                   	insb   (%dx),%es:(%edi)
 7e4:	6c                   	insb   (%dx),%es:(%edi)
 7e5:	2e 63 00             	arpl   %ax,%cs:(%eax)
 7e8:	74 61                	je     84b <thread_run-0xfff7b5>
 7ea:	73 6b                	jae    857 <thread_run-0xfff7a9>
 7ec:	5f                   	pop    %edi
 7ed:	76 61                	jbe    850 <thread_run-0xfff7b0>
 7ef:	6e                   	outsb  %ds:(%esi),(%dx)
 7f0:	69 73 68 00 73 65 74 	imul   $0x74657300,0x68(%ebx),%esi
 7f7:	5f                   	pop    %edi
 7f8:	73 74                	jae    86e <thread_run-0xfff792>
 7fa:	61                   	popa   
 7fb:	74 75                	je     872 <thread_run-0xfff78e>
 7fd:	73 00                	jae    7ff <thread_run-0xfff801>
 7ff:	6e                   	outsb  %ds:(%esi),(%dx)
 800:	65                   	gs
 801:	77 75                	ja     878 <thread_run-0xfff788>
 803:	72 65                	jb     86a <thread_run-0xfff796>
 805:	67 00 67 65          	add    %ah,0x65(%bx)
 809:	74 5f                	je     86a <thread_run-0xfff796>
 80b:	63 75 72             	arpl   %si,0x72(%ebp)
 80e:	73 6f                	jae    87f <thread_run-0xfff781>
 810:	72 5f                	jb     871 <thread_run-0xfff78f>
 812:	70 6f                	jo     883 <thread_run-0xfff77d>
 814:	73 00                	jae    816 <thread_run-0xfff7ea>
 816:	65                   	gs
 817:	73 70                	jae    889 <thread_run-0xfff777>
 819:	33 00                	xor    (%eax),%eax
 81b:	7a 65                	jp     882 <thread_run-0xfff77e>
 81d:	72 6f                	jb     88e <thread_run-0xfff772>
 81f:	00 73 77             	add    %dh,0x77(%ebx)
 822:	65                   	gs
 823:	78 6e                	js     893 <thread_run-0xfff76d>
 825:	00 65 78             	add    %ah,0x78(%ebp)
 828:	65 63 6e 61          	arpl   %bp,%gs:0x61(%esi)
 82c:	6d                   	insl   (%dx),%es:(%edi)
 82d:	65 00 72 65          	add    %dh,%gs:0x65(%edx)
 831:	61                   	popa   
 832:	64 66 69 6c 65 00 79 	imul   $0x6979,%fs:0x0(%ebp,%eiz,2),%bp
 839:	69 
 83a:	65                   	gs
 83b:	6c                   	insb   (%dx),%es:(%edi)
 83c:	64 00 73 74          	add    %dh,%fs:0x74(%ebx)
 840:	61                   	popa   
 841:	74 75                	je     8b8 <thread_run-0xfff748>
 843:	73 5f                	jae    8a4 <thread_run-0xfff75c>
 845:	70 74                	jo     8bb <thread_run-0xfff745>
 847:	72 00                	jb     849 <thread_run-0xfff7b7>
 849:	67                   	addr16
 84a:	65                   	gs
 84b:	74 74                	je     8c1 <thread_run-0xfff73f>
 84d:	69 64 00 64 65 73 63 	imul   $0x68637365,0x64(%eax,%eax,1),%esp
 854:	68 
 855:	65                   	gs
 856:	64                   	fs
 857:	75 6c                	jne    8c5 <thread_run-0xfff73b>
 859:	65 00 61 72          	add    %ah,%gs:0x72(%ecx)
 85d:	67 76 65             	addr16 jbe 8c5 <thread_run-0xfff73b>
 860:	63 00                	arpl   %ax,(%eax)
 862:	77 61                	ja     8c5 <thread_run-0xfff73b>
 864:	69 74 00 66 6c 61 67 	imul   $0x67616c,0x66(%eax,%eax,1),%esi
 86b:	00 
 86c:	65                   	gs
 86d:	78 65                	js     8d4 <thread_run-0xfff72c>
 86f:	63 00                	arpl   %ax,(%eax)
 871:	6d                   	insl   (%dx),%es:(%edi)
 872:	69 73 62 65 68 61 76 	imul   $0x76616865,0x62(%ebx),%esi
 879:	65 00 67 65          	add    %ah,%gs:0x65(%edi)
 87d:	74 63                	je     8e2 <thread_run-0xfff71e>
 87f:	68 61 72 00 63       	push   $0x63007261
 884:	61                   	popa   
 885:	75 73                	jne    8fa <thread_run-0xfff706>
 887:	65 00 73 65          	add    %dh,%gs:0x65(%ebx)
 88b:	74 5f                	je     8ec <thread_run-0xfff714>
 88d:	63 75 72             	arpl   %si,0x72(%ebp)
 890:	73 6f                	jae    901 <thread_run-0xfff6ff>
 892:	72 5f                	jb     8f3 <thread_run-0xfff70d>
 894:	70 6f                	jo     905 <thread_run-0xfff6fb>
 896:	73 00                	jae    898 <thread_run-0xfff768>
 898:	65                   	gs
 899:	66                   	data16
 89a:	6c                   	insb   (%dx),%es:(%edi)
 89b:	61                   	popa   
 89c:	67 73 00             	addr16 jae 89f <thread_run-0xfff761>
 89f:	70 72                	jo     913 <thread_run-0xfff6ed>
 8a1:	69 6e 74 00 6d 6f 64 	imul   $0x646f6d00,0x74(%esi),%ebp
 8a8:	65 00 63 6f          	add    %ah,%gs:0x6f(%ebx)
 8ac:	75 6e                	jne    91c <thread_run-0xfff6e4>
 8ae:	74 00                	je     8b0 <thread_run-0xfff750>
 8b0:	66 69 6c 65 6e 61 6d 	imul   $0x6d61,0x6e(%ebp,%eiz,2),%bp
 8b7:	65 00 6d 61          	add    %ch,%gs:0x61(%ebp)
 8bb:	6b 65 5f 72          	imul   $0x72,0x5f(%ebp),%esp
 8bf:	75 6e                	jne    92f <thread_run-0xfff6d1>
 8c1:	6e                   	outsb  %ds:(%esi),(%dx)
 8c2:	61                   	popa   
 8c3:	62 6c 65 00          	bound  %ebp,0x0(%ebp,%eiz,2)
 8c7:	73 65                	jae    92e <thread_run-0xfff6d2>
 8c9:	74 5f                	je     92a <thread_run-0xfff6d6>
 8cb:	74 65                	je     932 <thread_run-0xfff6ce>
 8cd:	72 6d                	jb     93c <thread_run-0xfff6c4>
 8cf:	5f                   	pop    %edi
 8d0:	63 6f 6c             	arpl   %bp,0x6c(%edi)
 8d3:	6f                   	outsl  %ds:(%esi),(%dx)
 8d4:	72 00                	jb     8d6 <thread_run-0xfff72a>
 8d6:	73 77                	jae    94f <thread_run-0xfff6b1>
 8d8:	65                   	gs
 8d9:	78 6e                	js     949 <thread_run-0xfff6b7>
 8db:	5f                   	pop    %edi
 8dc:	68 61 6e 64 6c       	push   $0x6c646e61
 8e1:	65                   	gs
 8e2:	72 5f                	jb     943 <thread_run-0xfff6bd>
 8e4:	74 00                	je     8e6 <thread_run-0xfff71a>
 8e6:	72 65                	jb     94d <thread_run-0xfff6b3>
 8e8:	6d                   	insl   (%dx),%es:(%edi)
 8e9:	6f                   	outsl  %ds:(%esi),(%dx)
 8ea:	76 65                	jbe    951 <thread_run-0xfff6af>
 8ec:	5f                   	pop    %edi
 8ed:	70 61                	jo     950 <thread_run-0xfff6b0>
 8ef:	67                   	addr16
 8f0:	65                   	gs
 8f1:	73 00                	jae    8f3 <thread_run-0xfff70d>
 8f3:	75 73                	jne    968 <thread_run-0xfff698>
 8f5:	65                   	gs
 8f6:	72 2f                	jb     927 <thread_run-0xfff6d9>
 8f8:	61                   	popa   
 8f9:	75 74                	jne    96f <thread_run-0xfff691>
 8fb:	6f                   	outsl  %ds:(%esi),(%dx)
 8fc:	73 74                	jae    972 <thread_run-0xfff68e>
 8fe:	61                   	popa   
 8ff:	63 6b 2e             	arpl   %bp,0x2e(%ebx)
 902:	63 00                	arpl   %ax,(%eax)
 904:	69 6e 73 74 61 6c 6c 	imul   $0x6c6c6174,0x73(%esi),%ebp
 90b:	5f                   	pop    %edi
 90c:	61                   	popa   
 90d:	75 74                	jne    983 <thread_run-0xfff67d>
 90f:	6f                   	outsl  %ds:(%esi),(%dx)
 910:	73 74                	jae    986 <thread_run-0xfff67a>
 912:	61                   	popa   
 913:	63 6b 00             	arpl   %bp,0x0(%ebx)
 916:	5f                   	pop    %edi
 917:	5f                   	pop    %edi
 918:	75 6d                	jne    987 <thread_run-0xfff679>
 91a:	6f                   	outsl  %ds:(%esi),(%dx)
 91b:	64 64 69 33 00 71 68 	fs imul $0x61687100,%fs:(%ebx),%esi
 922:	61 
 923:	74 00                	je     925 <thread_run-0xfff6db>
 925:	75 73                	jne    99a <thread_run-0xfff666>
 927:	70 61                	jo     98a <thread_run-0xfff676>
 929:	63 65 00             	arpl   %sp,0x0(%ebp)
 92c:	71 73                	jno    9a1 <thread_run-0xfff65f>
 92e:	70 61                	jo     991 <thread_run-0xfff66f>
 930:	63 65 00             	arpl   %sp,0x0(%ebp)
 933:	75 5f                	jne    994 <thread_run-0xfff66c>
 935:	71 75                	jno    9ac <thread_run-0xfff654>
 937:	61                   	popa   
 938:	64                   	fs
 939:	5f                   	pop    %edi
 93a:	74 00                	je     93c <thread_run-0xfff6c4>
 93c:	71 68                	jno    9a6 <thread_run-0xfff65a>
 93e:	61                   	popa   
 93f:	74 5f                	je     9a0 <thread_run-0xfff660>
 941:	74 6f                	je     9b2 <thread_run-0xfff64e>
 943:	6f                   	outsl  %ds:(%esi),(%dx)
 944:	5f                   	pop    %edi
 945:	62 69 67             	bound  %ebp,0x67(%ecx)
 948:	00 5f 5f             	add    %bl,0x5f(%edi)
 94b:	71 64                	jno    9b1 <thread_run-0xfff64f>
 94d:	69 76 72 65 6d 00 64 	imul   $0x64006d65,0x72(%esi),%esi
 954:	69 67 69 74 00 72 68 	imul   $0x68720074,0x69(%edi),%esp
 95b:	61                   	popa   
 95c:	74 00                	je     95e <thread_run-0xfff6a2>
 95e:	5f                   	pop    %edi
 95f:	5f                   	pop    %edi
 960:	75 64                	jne    9c6 <thread_run-0xfff63a>
 962:	69 76 64 69 33 00 75 	imul   $0x75003369,0x64(%esi),%esi
 969:	5f                   	pop    %edi
 96a:	69 6e 74 00 34 31 30 	imul   $0x30313400,0x74(%esi),%ebp
 971:	75 73                	jne    9e6 <thread_run-0xfff61a>
 973:	65                   	gs
 974:	72 2f                	jb     9a5 <thread_run-0xfff65b>
 976:	6c                   	insb   (%dx),%es:(%edi)
 977:	69 62 78 38 36 2f 67 	imul   $0x672f3638,0x78(%edx),%esp
 97e:	63 63 69             	arpl   %sp,0x69(%ebx)
 981:	73 6d                	jae    9f0 <thread_run-0xfff610>
 983:	73 2e                	jae    9b3 <thread_run-0xfff64d>
 985:	63 00                	arpl   %ax,(%eax)
 987:	76 73                	jbe    9fc <thread_run-0xfff604>
 989:	70 61                	jo     9ec <thread_run-0xfff614>
 98b:	63 65 00             	arpl   %sp,0x0(%ebp)

Disassembly of section .debug_loc:

00000000 <.debug_loc>:
       0:	00 00                	add    %al,(%eax)
       2:	00 00                	add    %al,(%eax)
       4:	01 00                	add    %eax,(%eax)
       6:	00 00                	add    %al,(%eax)
       8:	02 00                	add    (%eax),%al
       a:	74 04                	je     10 <thread_run-0xfffff0>
       c:	01 00                	add    %eax,(%eax)
       e:	00 00                	add    %al,(%eax)
      10:	03 00                	add    (%eax),%eax
      12:	00 00                	add    %al,(%eax)
      14:	02 00                	add    (%eax),%al
      16:	74 08                	je     20 <thread_run-0xffffe0>
      18:	03 00                	add    (%eax),%eax
      1a:	00 00                	add    %al,(%eax)
      1c:	1d 00 00 00 02       	sbb    $0x2000000,%eax
      21:	00 75 08             	add    %dh,0x8(%ebp)
	...
      2c:	06                   	push   %es
      2d:	00 00                	add    %al,(%eax)
      2f:	00 1a                	add    %bl,(%edx)
      31:	00 00                	add    %al,(%eax)
      33:	00 03                	add    %al,(%ebx)
      35:	00 91 00 06 00 00    	add    %dl,0x600(%ecx)
      3b:	00 00                	add    %al,(%eax)
      3d:	00 00                	add    %al,(%eax)
      3f:	00 00                	add    %al,(%eax)
      41:	1d 00 00 00 1e       	sbb    $0x1e000000,%eax
      46:	00 00                	add    %al,(%eax)
      48:	00 02                	add    %al,(%edx)
      4a:	00 74 04 1e          	add    %dh,0x1e(%esp,%eax,1)
      4e:	00 00                	add    %al,(%eax)
      50:	00 20                	add    %ah,(%eax)
      52:	00 00                	add    %al,(%eax)
      54:	00 02                	add    %al,(%edx)
      56:	00 74 08 20          	add    %dh,0x20(%eax,%ecx,1)
      5a:	00 00                	add    %al,(%eax)
      5c:	00 83 00 00 00 02    	add    %al,0x2000000(%ebx)
      62:	00 75 08             	add    %dh,0x8(%ebp)
	...
      6d:	23 00                	and    (%eax),%eax
      6f:	00 00                	add    %al,(%eax)
      71:	36 00 00             	add    %al,%ss:(%eax)
      74:	00 02                	add    %al,(%edx)
      76:	00 30                	add    %dh,(%eax)
      78:	9f                   	lahf   
      79:	36 00 00             	add    %al,%ss:(%eax)
      7c:	00 55 00             	add    %dl,0x0(%ebp)
      7f:	00 00                	add    %al,(%eax)
      81:	01 00                	add    %eax,(%eax)
      83:	50                   	push   %eax
	...
      8c:	23 00                	and    (%eax),%eax
      8e:	00 00                	add    %al,(%eax)
      90:	69 00 00 00 02 00    	imul   $0x20000,(%eax),%eax
      96:	30 9f 69 00 00 00    	xor    %bl,0x69(%edi)
      9c:	80 00 00             	addb   $0x0,(%eax)
      9f:	00 01                	add    %al,(%ecx)
      a1:	00 50 00             	add    %dl,0x0(%eax)
	...
      ac:	00 00                	add    %al,(%eax)
      ae:	00 01                	add    %al,(%ecx)
      b0:	00 00                	add    %al,(%eax)
      b2:	00 02                	add    %al,(%edx)
      b4:	00 74 04 01          	add    %dh,0x1(%esp,%eax,1)
      b8:	00 00                	add    %al,(%eax)
      ba:	00 03                	add    %al,(%ebx)
      bc:	00 00                	add    %al,(%eax)
      be:	00 02                	add    %al,(%edx)
      c0:	00 74 08 03          	add    %dh,0x3(%eax,%ecx,1)
      c4:	00 00                	add    %al,(%eax)
      c6:	00 32                	add    %dh,(%edx)
      c8:	00 00                	add    %al,(%eax)
      ca:	00 02                	add    %al,(%edx)
      cc:	00 75 08             	add    %dh,0x8(%ebp)
	...
      db:	01 00                	add    %eax,(%eax)
      dd:	00 00                	add    %al,(%eax)
      df:	02 00                	add    (%eax),%al
      e1:	74 04                	je     e7 <thread_run-0xffff19>
      e3:	01 00                	add    %eax,(%eax)
      e5:	00 00                	add    %al,(%eax)
      e7:	03 00                	add    (%eax),%eax
      e9:	00 00                	add    %al,(%eax)
      eb:	02 00                	add    (%eax),%al
      ed:	74 08                	je     f7 <thread_run-0xffff09>
      ef:	03 00                	add    (%eax),%eax
      f1:	00 00                	add    %al,(%eax)
      f3:	0c 00                	or     $0x0,%al
      f5:	00 00                	add    %al,(%eax)
      f7:	02 00                	add    (%eax),%al
      f9:	75 08                	jne    103 <thread_run-0xfffefd>
      fb:	0c 00                	or     $0x0,%al
      fd:	00 00                	add    %al,(%eax)
      ff:	0d 00 00 00 02       	or     $0x2000000,%eax
     104:	00 74 04 00          	add    %dh,0x0(%esp,%eax,1)
     108:	00 00                	add    %al,(%eax)
     10a:	00 00                	add    %al,(%eax)
     10c:	00 00                	add    %al,(%eax)
     10e:	00 0d 00 00 00 0e    	add    %cl,0xe000000
     114:	00 00                	add    %al,(%eax)
     116:	00 02                	add    %al,(%edx)
     118:	00 74 04 0e          	add    %dh,0xe(%esp,%eax,1)
     11c:	00 00                	add    %al,(%eax)
     11e:	00 10                	add    %dl,(%eax)
     120:	00 00                	add    %al,(%eax)
     122:	00 02                	add    %al,(%edx)
     124:	00 74 08 10          	add    %dh,0x10(%eax,%ecx,1)
     128:	00 00                	add    %al,(%eax)
     12a:	00 19                	add    %bl,(%ecx)
     12c:	00 00                	add    %al,(%eax)
     12e:	00 02                	add    %al,(%edx)
     130:	00 75 08             	add    %dh,0x8(%ebp)
     133:	19 00                	sbb    %eax,(%eax)
     135:	00 00                	add    %al,(%eax)
     137:	1a 00                	sbb    (%eax),%al
     139:	00 00                	add    %al,(%eax)
     13b:	02 00                	add    (%eax),%al
     13d:	74 04                	je     143 <thread_run-0xfffebd>
	...
     147:	1a 00                	sbb    (%eax),%al
     149:	00 00                	add    %al,(%eax)
     14b:	1b 00                	sbb    (%eax),%eax
     14d:	00 00                	add    %al,(%eax)
     14f:	02 00                	add    (%eax),%al
     151:	74 04                	je     157 <thread_run-0xfffea9>
     153:	1b 00                	sbb    (%eax),%eax
     155:	00 00                	add    %al,(%eax)
     157:	1d 00 00 00 02       	sbb    $0x2000000,%eax
     15c:	00 74 08 1d          	add    %dh,0x1d(%eax,%ecx,1)
     160:	00 00                	add    %al,(%eax)
     162:	00 23                	add    %ah,(%ebx)
     164:	00 00                	add    %al,(%eax)
     166:	00 02                	add    %al,(%edx)
     168:	00 75 08             	add    %dh,0x8(%ebp)
     16b:	23 00                	and    (%eax),%eax
     16d:	00 00                	add    %al,(%eax)
     16f:	24 00                	and    $0x0,%al
     171:	00 00                	add    %al,(%eax)
     173:	02 00                	add    (%eax),%al
     175:	74 04                	je     17b <thread_run-0xfffe85>
	...
     17f:	24 00                	and    $0x0,%al
     181:	00 00                	add    %al,(%eax)
     183:	25 00 00 00 02       	and    $0x2000000,%eax
     188:	00 74 04 25          	add    %dh,0x25(%esp,%eax,1)
     18c:	00 00                	add    %al,(%eax)
     18e:	00 27                	add    %ah,(%edi)
     190:	00 00                	add    %al,(%eax)
     192:	00 02                	add    %al,(%edx)
     194:	00 74 08 27          	add    %dh,0x27(%eax,%ecx,1)
     198:	00 00                	add    %al,(%eax)
     19a:	00 2d 00 00 00 02    	add    %ch,0x2000000
     1a0:	00 75 08             	add    %dh,0x8(%ebp)
     1a3:	2d 00 00 00 2e       	sub    $0x2e000000,%eax
     1a8:	00 00                	add    %al,(%eax)
     1aa:	00 02                	add    %al,(%edx)
     1ac:	00 74 04 00          	add    %dh,0x0(%esp,%eax,1)
     1b0:	00 00                	add    %al,(%eax)
     1b2:	00 00                	add    %al,(%eax)
     1b4:	00 00                	add    %al,(%eax)
     1b6:	00 2e                	add    %ch,(%esi)
     1b8:	00 00                	add    %al,(%eax)
     1ba:	00 2f                	add    %ch,(%edi)
     1bc:	00 00                	add    %al,(%eax)
     1be:	00 02                	add    %al,(%edx)
     1c0:	00 74 04 2f          	add    %dh,0x2f(%esp,%eax,1)
     1c4:	00 00                	add    %al,(%eax)
     1c6:	00 31                	add    %dh,(%ecx)
     1c8:	00 00                	add    %al,(%eax)
     1ca:	00 02                	add    %al,(%edx)
     1cc:	00 74 08 31          	add    %dh,0x31(%eax,%ecx,1)
     1d0:	00 00                	add    %al,(%eax)
     1d2:	00 32                	add    %dh,(%edx)
     1d4:	00 00                	add    %al,(%eax)
     1d6:	00 02                	add    %al,(%edx)
     1d8:	00 75 08             	add    %dh,0x8(%ebp)
     1db:	32 00                	xor    (%eax),%al
     1dd:	00 00                	add    %al,(%eax)
     1df:	33 00                	xor    (%eax),%eax
     1e1:	00 00                	add    %al,(%eax)
     1e3:	02 00                	add    (%eax),%al
     1e5:	74 04                	je     1eb <thread_run-0xfffe15>
	...
     1ef:	33 00                	xor    (%eax),%eax
     1f1:	00 00                	add    %al,(%eax)
     1f3:	34 00                	xor    $0x0,%al
     1f5:	00 00                	add    %al,(%eax)
     1f7:	02 00                	add    (%eax),%al
     1f9:	74 04                	je     1ff <thread_run-0xfffe01>
     1fb:	34 00                	xor    $0x0,%al
     1fd:	00 00                	add    %al,(%eax)
     1ff:	36 00 00             	add    %al,%ss:(%eax)
     202:	00 02                	add    %al,(%edx)
     204:	00 74 08 36          	add    %dh,0x36(%eax,%ecx,1)
     208:	00 00                	add    %al,(%eax)
     20a:	00 3c 00             	add    %bh,(%eax,%eax,1)
     20d:	00 00                	add    %al,(%eax)
     20f:	02 00                	add    (%eax),%al
     211:	75 08                	jne    21b <thread_run-0xfffde5>
     213:	3c 00                	cmp    $0x0,%al
     215:	00 00                	add    %al,(%eax)
     217:	3d 00 00 00 02       	cmp    $0x2000000,%eax
     21c:	00 74 04 00          	add    %dh,0x0(%esp,%eax,1)
     220:	00 00                	add    %al,(%eax)
     222:	00 00                	add    %al,(%eax)
     224:	00 00                	add    %al,(%eax)
     226:	00 3d 00 00 00 3e    	add    %bh,0x3e000000
     22c:	00 00                	add    %al,(%eax)
     22e:	00 02                	add    %al,(%edx)
     230:	00 74 04 3e          	add    %dh,0x3e(%esp,%eax,1)
     234:	00 00                	add    %al,(%eax)
     236:	00 40 00             	add    %al,0x0(%eax)
     239:	00 00                	add    %al,(%eax)
     23b:	02 00                	add    (%eax),%al
     23d:	74 08                	je     247 <thread_run-0xfffdb9>
     23f:	40                   	inc    %eax
     240:	00 00                	add    %al,(%eax)
     242:	00 46 00             	add    %al,0x0(%esi)
     245:	00 00                	add    %al,(%eax)
     247:	02 00                	add    (%eax),%al
     249:	75 08                	jne    253 <thread_run-0xfffdad>
     24b:	46                   	inc    %esi
     24c:	00 00                	add    %al,(%eax)
     24e:	00 47 00             	add    %al,0x0(%edi)
     251:	00 00                	add    %al,(%eax)
     253:	02 00                	add    (%eax),%al
     255:	74 04                	je     25b <thread_run-0xfffda5>
	...
     25f:	47                   	inc    %edi
     260:	00 00                	add    %al,(%eax)
     262:	00 48 00             	add    %cl,0x0(%eax)
     265:	00 00                	add    %al,(%eax)
     267:	02 00                	add    (%eax),%al
     269:	74 04                	je     26f <thread_run-0xfffd91>
     26b:	48                   	dec    %eax
     26c:	00 00                	add    %al,(%eax)
     26e:	00 4a 00             	add    %cl,0x0(%edx)
     271:	00 00                	add    %al,(%eax)
     273:	02 00                	add    (%eax),%al
     275:	74 08                	je     27f <thread_run-0xfffd81>
     277:	4a                   	dec    %edx
     278:	00 00                	add    %al,(%eax)
     27a:	00 4b 00             	add    %cl,0x0(%ebx)
     27d:	00 00                	add    %al,(%eax)
     27f:	02 00                	add    (%eax),%al
     281:	75 08                	jne    28b <thread_run-0xfffd75>
     283:	4b                   	dec    %ebx
     284:	00 00                	add    %al,(%eax)
     286:	00 4c 00 00          	add    %cl,0x0(%eax,%eax,1)
     28a:	00 02                	add    %al,(%edx)
     28c:	00 74 04 00          	add    %dh,0x0(%esp,%eax,1)
     290:	00 00                	add    %al,(%eax)
     292:	00 00                	add    %al,(%eax)
     294:	00 00                	add    %al,(%eax)
     296:	00 4c 00 00          	add    %cl,0x0(%eax,%eax,1)
     29a:	00 4d 00             	add    %cl,0x0(%ebp)
     29d:	00 00                	add    %al,(%eax)
     29f:	02 00                	add    (%eax),%al
     2a1:	74 04                	je     2a7 <thread_run-0xfffd59>
     2a3:	4d                   	dec    %ebp
     2a4:	00 00                	add    %al,(%eax)
     2a6:	00 4f 00             	add    %cl,0x0(%edi)
     2a9:	00 00                	add    %al,(%eax)
     2ab:	02 00                	add    (%eax),%al
     2ad:	74 08                	je     2b7 <thread_run-0xfffd49>
     2af:	4f                   	dec    %edi
     2b0:	00 00                	add    %al,(%eax)
     2b2:	00 a7 00 00 00 02    	add    %ah,0x2000000(%edi)
     2b8:	00 75 08             	add    %dh,0x8(%ebp)
     2bb:	a7                   	cmpsl  %es:(%edi),%ds:(%esi)
     2bc:	00 00                	add    %al,(%eax)
     2be:	00 a8 00 00 00 02    	add    %ch,0x2000000(%eax)
     2c4:	00 74 04 00          	add    %dh,0x0(%esp,%eax,1)
     2c8:	00 00                	add    %al,(%eax)
     2ca:	00 00                	add    %al,(%eax)
     2cc:	00 00                	add    %al,(%eax)
     2ce:	00 54 00 00          	add    %dl,0x0(%eax,%eax,1)
     2d2:	00 69 00             	add    %ch,0x0(%ecx)
     2d5:	00 00                	add    %al,(%eax)
     2d7:	02 00                	add    (%eax),%al
     2d9:	30 9f 69 00 00 00    	xor    %bl,0x69(%edi)
     2df:	80 00 00             	addb   $0x0,(%eax)
     2e2:	00 01                	add    %al,(%ecx)
     2e4:	00 50 80             	add    %dl,-0x80(%eax)
     2e7:	00 00                	add    %al,(%eax)
     2e9:	00 a5 00 00 00 01    	add    %ah,0x1000000(%ebp)
     2ef:	00 53 a5             	add    %dl,-0x5b(%ebx)
     2f2:	00 00                	add    %al,(%eax)
     2f4:	00 a8 00 00 00 01    	add    %ch,0x1000000(%eax)
     2fa:	00 50 00             	add    %dl,0x0(%eax)
     2fd:	00 00                	add    %al,(%eax)
     2ff:	00 00                	add    %al,(%eax)
     301:	00 00                	add    %al,(%eax)
     303:	00 54 00 00          	add    %dl,0x0(%eax,%eax,1)
     307:	00 5b 00             	add    %bl,0x0(%ebx)
     30a:	00 00                	add    %al,(%eax)
     30c:	02 00                	add    (%eax),%al
     30e:	30 9f 5b 00 00 00    	xor    %bl,0x5b(%edi)
     314:	66                   	data16
     315:	00 00                	add    %al,(%eax)
     317:	00 01                	add    %al,(%ecx)
     319:	00 50 66             	add    %dl,0x66(%eax)
     31c:	00 00                	add    %al,(%eax)
     31e:	00 a6 00 00 00 01    	add    %ah,0x1000000(%esi)
     324:	00 56 00             	add    %dl,0x0(%esi)
     327:	00 00                	add    %al,(%eax)
     329:	00 00                	add    %al,(%eax)
     32b:	00 00                	add    %al,(%eax)
     32d:	00 a8 00 00 00 a9    	add    %ch,-0x57000000(%eax)
     333:	00 00                	add    %al,(%eax)
     335:	00 02                	add    %al,(%edx)
     337:	00 74 04 a9          	add    %dh,-0x57(%esp,%eax,1)
     33b:	00 00                	add    %al,(%eax)
     33d:	00 ab 00 00 00 02    	add    %ch,0x2000000(%ebx)
     343:	00 74 08 ab          	add    %dh,-0x55(%eax,%ecx,1)
     347:	00 00                	add    %al,(%eax)
     349:	00 a3 01 00 00 02    	add    %ah,0x2000001(%ebx)
     34f:	00 75 08             	add    %dh,0x8(%ebp)
     352:	a3 01 00 00 a4       	mov    %eax,0xa4000001
     357:	01 00                	add    %eax,(%eax)
     359:	00 02                	add    %al,(%edx)
     35b:	00 74 08 a4          	add    %dh,-0x5c(%eax,%ecx,1)
     35f:	01 00                	add    %eax,(%eax)
     361:	00 a5 01 00 00 02    	add    %ah,0x2000001(%ebp)
     367:	00 74 04 00          	add    %dh,0x0(%esp,%eax,1)
     36b:	00 00                	add    %al,(%eax)
     36d:	00 00                	add    %al,(%eax)
     36f:	00 00                	add    %al,(%eax)
     371:	00 ba 00 00 00 fd    	add    %bh,-0x3000000(%edx)
     377:	00 00                	add    %al,(%eax)
     379:	00 02                	add    %al,(%edx)
     37b:	00 30                	add    %dh,(%eax)
     37d:	9f                   	lahf   
     37e:	fd                   	std    
     37f:	00 00                	add    %al,(%eax)
     381:	00 07                	add    %al,(%edi)
     383:	01 00                	add    %eax,(%eax)
     385:	00 03                	add    %al,(%ebx)
     387:	00 09                	add    %cl,(%ecx)
     389:	ff 9f 07 01 00 00    	lcall  *0x107(%edi)
     38f:	98                   	cwtl   
     390:	01 00                	add    %eax,(%eax)
     392:	00 02                	add    %al,(%edx)
     394:	00 30                	add    %dh,(%eax)
     396:	9f                   	lahf   
	...
     39f:	ba 00 00 00 d3       	mov    $0xd3000000,%edx
     3a4:	00 00                	add    %al,(%eax)
     3a6:	00 02                	add    %al,(%edx)
     3a8:	00 30                	add    %dh,(%eax)
     3aa:	9f                   	lahf   
     3ab:	d3 00                	roll   %cl,(%eax)
     3ad:	00 00                	add    %al,(%eax)
     3af:	fc                   	cld    
     3b0:	00 00                	add    %al,(%eax)
     3b2:	00 05 00 03 1c 39    	add    %al,0x391c0300
     3b8:	00 01                	add    %al,(%ecx)
     3ba:	07                   	pop    %es
     3bb:	01 00                	add    %eax,(%eax)
     3bd:	00 22                	add    %ah,(%edx)
     3bf:	01 00                	add    %eax,(%eax)
     3c1:	00 01                	add    %al,(%ecx)
     3c3:	00 50 00             	add    %dl,0x0(%eax)
     3c6:	00 00                	add    %al,(%eax)
     3c8:	00 00                	add    %al,(%eax)
     3ca:	00 00                	add    %al,(%eax)
     3cc:	00 ba 00 00 00 d9    	add    %bh,-0x27000000(%edx)
     3d2:	00 00                	add    %al,(%eax)
     3d4:	00 02                	add    %al,(%edx)
     3d6:	00 30                	add    %dh,(%eax)
     3d8:	9f                   	lahf   
     3d9:	d9 00                	flds   (%eax)
     3db:	00 00                	add    %al,(%eax)
     3dd:	fc                   	cld    
     3de:	00 00                	add    %al,(%eax)
     3e0:	00 05 00 03 20 39    	add    %al,0x39200300
     3e6:	00 01                	add    %al,(%ecx)
     3e8:	fc                   	cld    
     3e9:	00 00                	add    %al,(%eax)
     3eb:	00 65 01             	add    %ah,0x1(%ebp)
     3ee:	00 00                	add    %al,(%eax)
     3f0:	01 00                	add    %eax,(%eax)
     3f2:	53                   	push   %ebx
     3f3:	65 01 00             	add    %eax,%gs:(%eax)
     3f6:	00 98 01 00 00 05    	add    %bl,0x5000001(%eax)
     3fc:	00 73 84             	add    %dh,-0x7c(%ebx)
     3ff:	c0 00 9f             	rolb   $0x9f,(%eax)
	...
     40a:	ba 00 00 00 65       	mov    $0x65000000,%edx
     40f:	01 00                	add    %eax,(%eax)
     411:	00 02                	add    %al,(%edx)
     413:	00 30                	add    %dh,(%eax)
     415:	9f                   	lahf   
     416:	65 01 00             	add    %eax,%gs:(%eax)
     419:	00 98 01 00 00 01    	add    %bl,0x1000001(%eax)
     41f:	00 53 00             	add    %dl,0x0(%ebx)
     422:	00 00                	add    %al,(%eax)
     424:	00 00                	add    %al,(%eax)
     426:	00 00                	add    %al,(%eax)
     428:	00 ba 00 00 00 6c    	add    %bh,0x6c000000(%edx)
     42e:	01 00                	add    %eax,(%eax)
     430:	00 02                	add    %al,(%edx)
     432:	00 30                	add    %dh,(%eax)
     434:	9f                   	lahf   
     435:	6c                   	insb   (%dx),%es:(%edi)
     436:	01 00                	add    %eax,(%eax)
     438:	00 92 01 00 00 01    	add    %dl,0x1000001(%edx)
     43e:	00 50 92             	add    %dl,-0x6e(%eax)
     441:	01 00                	add    %eax,(%eax)
     443:	00 98 01 00 00 08    	add    %bl,0x8000001(%eax)
     449:	00 73 00             	add    %dh,0x0(%ebx)
     44c:	76 00                	jbe    44e <thread_run-0xfffbb2>
     44e:	1c 23                	sbb    $0x23,%al
     450:	04 9f                	add    $0x9f,%al
	...
     45a:	ba 00 00 00 41       	mov    $0x41000000,%edx
     45f:	01 00                	add    %eax,(%eax)
     461:	00 02                	add    %al,(%edx)
     463:	00 30                	add    %dh,(%eax)
     465:	9f                   	lahf   
     466:	41                   	inc    %ecx
     467:	01 00                	add    %eax,(%eax)
     469:	00 98 01 00 00 01    	add    %bl,0x1000001(%eax)
     46f:	00 56 00             	add    %dl,0x0(%esi)
     472:	00 00                	add    %al,(%eax)
     474:	00 00                	add    %al,(%eax)
     476:	00 00                	add    %al,(%eax)
     478:	00 a5 01 00 00 a6    	add    %ah,-0x59ffffff(%ebp)
     47e:	01 00                	add    %eax,(%eax)
     480:	00 02                	add    %al,(%edx)
     482:	00 74 04 a6          	add    %dh,-0x5a(%esp,%eax,1)
     486:	01 00                	add    %eax,(%eax)
     488:	00 a8 01 00 00 02    	add    %ch,0x2000001(%eax)
     48e:	00 74 08 a8          	add    %dh,-0x58(%eax,%ecx,1)
     492:	01 00                	add    %eax,(%eax)
     494:	00 ef                	add    %ch,%bh
     496:	01 00                	add    %eax,(%eax)
     498:	00 02                	add    %al,(%edx)
     49a:	00 75 08             	add    %dh,0x8(%ebp)
     49d:	ef                   	out    %eax,(%dx)
     49e:	01 00                	add    %eax,(%eax)
     4a0:	00 f0                	add    %dh,%al
     4a2:	01 00                	add    %eax,(%eax)
     4a4:	00 02                	add    %al,(%edx)
     4a6:	00 74 08 f0          	add    %dh,-0x10(%eax,%ecx,1)
     4aa:	01 00                	add    %eax,(%eax)
     4ac:	00 f1                	add    %dh,%cl
     4ae:	01 00                	add    %eax,(%eax)
     4b0:	00 02                	add    %al,(%edx)
     4b2:	00 74 04 00          	add    %dh,0x0(%esp,%eax,1)
     4b6:	00 00                	add    %al,(%eax)
     4b8:	00 00                	add    %al,(%eax)
     4ba:	00 00                	add    %al,(%eax)
     4bc:	00 b4 01 00 00 da 01 	add    %dh,0x1da0000(%ecx,%eax,1)
     4c3:	00 00                	add    %al,(%eax)
     4c5:	02 00                	add    (%eax),%al
     4c7:	30 9f da 01 00 00    	xor    %bl,0x1da(%edi)
     4cd:	e1 01                	loope  4d0 <thread_run-0xfffb30>
     4cf:	00 00                	add    %al,(%eax)
     4d1:	01 00                	add    %eax,(%eax)
     4d3:	50                   	push   %eax
	...
     4dc:	b4 01                	mov    $0x1,%ah
     4de:	00 00                	add    %al,(%eax)
     4e0:	ba 01 00 00 02       	mov    $0x2000001,%edx
     4e5:	00 30                	add    %dh,(%eax)
     4e7:	9f                   	lahf   
     4e8:	ba 01 00 00 d1       	mov    $0xd1000001,%edx
     4ed:	01 00                	add    %eax,(%eax)
     4ef:	00 03                	add    %al,(%ebx)
     4f1:	00 91 00 06 d1 01    	add    %dl,0x1d10600(%ecx)
     4f7:	00 00                	add    %al,(%eax)
     4f9:	e7 01                	out    %eax,$0x1
     4fb:	00 00                	add    %al,(%eax)
     4fd:	01 00                	add    %eax,(%eax)
     4ff:	56                   	push   %esi
	...
     508:	b4 01                	mov    $0x1,%ah
     50a:	00 00                	add    %al,(%eax)
     50c:	de 01                	fiadd  (%ecx)
     50e:	00 00                	add    %al,(%eax)
     510:	02 00                	add    (%eax),%al
     512:	30 9f de 01 00 00    	xor    %bl,0x1de(%edi)
     518:	e6 01                	out    %al,$0x1
     51a:	00 00                	add    %al,(%eax)
     51c:	05 00 91 00 06       	add    $0x6009100,%eax
     521:	23 0c 00             	and    (%eax,%eax,1),%ecx
     524:	00 00                	add    %al,(%eax)
     526:	00 00                	add    %al,(%eax)
     528:	00 00                	add    %al,(%eax)
     52a:	00 b4 01 00 00 de 01 	add    %dh,0x1de0000(%ecx,%eax,1)
     531:	00 00                	add    %al,(%eax)
     533:	02 00                	add    (%eax),%al
     535:	30 9f de 01 00 00    	xor    %bl,0x1de(%edi)
     53b:	e6 01                	out    %al,$0x1
     53d:	00 00                	add    %al,(%eax)
     53f:	05 00 91 00 06       	add    $0x6009100,%eax
     544:	23 10                	and    (%eax),%edx
	...
     54e:	b4 01                	mov    $0x1,%ah
     550:	00 00                	add    %al,(%eax)
     552:	e7 01                	out    %eax,$0x1
     554:	00 00                	add    %al,(%eax)
     556:	02 00                	add    (%eax),%al
     558:	30 9f 00 00 00 00    	xor    %bl,0x0(%edi)
     55e:	00 00                	add    %al,(%eax)
     560:	00 00                	add    %al,(%eax)
     562:	f1                   	icebp  
     563:	01 00                	add    %eax,(%eax)
     565:	00 f2                	add    %dh,%dl
     567:	01 00                	add    %eax,(%eax)
     569:	00 02                	add    %al,(%edx)
     56b:	00 74 04 f2          	add    %dh,-0xe(%esp,%eax,1)
     56f:	01 00                	add    %eax,(%eax)
     571:	00 f4                	add    %dh,%ah
     573:	01 00                	add    %eax,(%eax)
     575:	00 02                	add    %al,(%edx)
     577:	00 74 08 f4          	add    %dh,-0xc(%eax,%ecx,1)
     57b:	01 00                	add    %eax,(%eax)
     57d:	00 71 02             	add    %dh,0x2(%ecx)
     580:	00 00                	add    %al,(%eax)
     582:	02 00                	add    (%eax),%al
     584:	75 08                	jne    58e <thread_run-0xfffa72>
     586:	71 02                	jno    58a <thread_run-0xfffa76>
     588:	00 00                	add    %al,(%eax)
     58a:	72 02                	jb     58e <thread_run-0xfffa72>
     58c:	00 00                	add    %al,(%eax)
     58e:	02 00                	add    (%eax),%al
     590:	74 04                	je     596 <thread_run-0xfffa6a>
	...
     59a:	f8                   	clc    
     59b:	01 00                	add    %eax,(%eax)
     59d:	00 12                	add    %dl,(%edx)
     59f:	02 00                	add    (%eax),%al
     5a1:	00 02                	add    %al,(%edx)
     5a3:	00 30                	add    %dh,(%eax)
     5a5:	9f                   	lahf   
     5a6:	12 02                	adc    (%edx),%al
     5a8:	00 00                	add    %al,(%eax)
     5aa:	22 02                	and    (%edx),%al
     5ac:	00 00                	add    %al,(%eax)
     5ae:	05 00 03 28 39       	add    $0x39280300,%eax
     5b3:	00 01                	add    %al,(%ecx)
     5b5:	22 02                	and    (%edx),%al
     5b7:	00 00                	add    %al,(%eax)
     5b9:	65 02 00             	add    %gs:(%eax),%al
     5bc:	00 01                	add    %al,(%ecx)
     5be:	00 53 65             	add    %dl,0x65(%ebx)
     5c1:	02 00                	add    (%eax),%al
     5c3:	00 6a 02             	add    %ch,0x2(%edx)
     5c6:	00 00                	add    %al,(%eax)
     5c8:	02 00                	add    (%eax),%al
     5ca:	30 9f 6a 02 00 00    	xor    %bl,0x26a(%edi)
     5d0:	70 02                	jo     5d4 <thread_run-0xfffa2c>
     5d2:	00 00                	add    %al,(%eax)
     5d4:	01 00                	add    %eax,(%eax)
     5d6:	53                   	push   %ebx
     5d7:	70 02                	jo     5db <thread_run-0xfffa25>
     5d9:	00 00                	add    %al,(%eax)
     5db:	72 02                	jb     5df <thread_run-0xfffa21>
     5dd:	00 00                	add    %al,(%eax)
     5df:	01 00                	add    %eax,(%eax)
     5e1:	50                   	push   %eax
	...
     5ea:	f8                   	clc    
     5eb:	01 00                	add    %eax,(%eax)
     5ed:	00 49 02             	add    %cl,0x2(%ecx)
     5f0:	00 00                	add    %al,(%eax)
     5f2:	02 00                	add    (%eax),%al
     5f4:	30 9f 49 02 00 00    	xor    %bl,0x249(%edi)
     5fa:	64 02 00             	add    %fs:(%eax),%al
     5fd:	00 01                	add    %al,(%ecx)
     5ff:	00 50 00             	add    %dl,0x0(%eax)
     602:	00 00                	add    %al,(%eax)
     604:	00 00                	add    %al,(%eax)
     606:	00 00                	add    %al,(%eax)
     608:	00 f8                	add    %bh,%al
     60a:	01 00                	add    %eax,(%eax)
     60c:	00 fd                	add    %bh,%ch
     60e:	01 00                	add    %eax,(%eax)
     610:	00 02                	add    %al,(%edx)
     612:	00 30                	add    %dh,(%eax)
     614:	9f                   	lahf   
     615:	fd                   	std    
     616:	01 00                	add    %eax,(%eax)
     618:	00 39                	add    %bh,(%ecx)
     61a:	02 00                	add    (%eax),%al
     61c:	00 05 00 03 30 39    	add    %al,0x39300300
     622:	00 01                	add    %al,(%ecx)
	...
     62c:	f8                   	clc    
     62d:	01 00                	add    %eax,(%eax)
     62f:	00 15 02 00 00 02    	add    %dl,0x2000002
     635:	00 30                	add    %dh,(%eax)
     637:	9f                   	lahf   
     638:	15 02 00 00 1d       	adc    $0x1d000002,%eax
     63d:	02 00                	add    (%eax),%al
     63f:	00 0c 00             	add    %cl,(%eax,%eax,1)
     642:	71 00                	jno    644 <thread_run-0xfff9bc>
     644:	03 2c 39             	add    (%ecx,%edi,1),%ebp
     647:	00 01                	add    %al,(%ecx)
     649:	06                   	push   %es
     64a:	1c 23                	sbb    $0x23,%al
     64c:	04 9f                	add    $0x9f,%al
     64e:	1d 02 00 00 22       	sbb    $0x22000002,%eax
     653:	02 00                	add    (%eax),%al
     655:	00 10                	add    %dl,(%eax)
     657:	00 03                	add    %al,(%ebx)
     659:	24 39                	and    $0x39,%al
     65b:	00 01                	add    %al,(%ecx)
     65d:	06                   	push   %es
     65e:	03 2c 39             	add    (%ecx,%edi,1),%ebp
     661:	00 01                	add    %al,(%ecx)
     663:	06                   	push   %es
     664:	1c 23                	sbb    $0x23,%al
     666:	04 9f                	add    $0x9f,%al
	...
     670:	f8                   	clc    
     671:	01 00                	add    %eax,(%eax)
     673:	00 15 02 00 00 02    	add    %dl,0x2000002
     679:	00 30                	add    %dh,(%eax)
     67b:	9f                   	lahf   
     67c:	15 02 00 00 1d       	adc    $0x1d000002,%eax
     681:	02 00                	add    (%eax),%al
     683:	00 01                	add    %al,(%ecx)
     685:	00 51 1d             	add    %dl,0x1d(%ecx)
     688:	02 00                	add    (%eax),%al
     68a:	00 22                	add    %ah,(%edx)
     68c:	02 00                	add    (%eax),%al
     68e:	00 05 00 03 24 39    	add    %al,0x39240300
     694:	00 01                	add    %al,(%ecx)
	...
     69e:	fd                   	std    
     69f:	01 00                	add    %eax,(%eax)
     6a1:	00 39                	add    %bh,(%ecx)
     6a3:	02 00                	add    (%eax),%al
     6a5:	00 05 00 03 2c 39    	add    %al,0x392c0300
     6ab:	00 01                	add    %al,(%ecx)
	...
     6b5:	72 02                	jb     6b9 <thread_run-0xfff947>
     6b7:	00 00                	add    %al,(%eax)
     6b9:	73 02                	jae    6bd <thread_run-0xfff943>
     6bb:	00 00                	add    %al,(%eax)
     6bd:	02 00                	add    (%eax),%al
     6bf:	74 04                	je     6c5 <thread_run-0xfff93b>
     6c1:	73 02                	jae    6c5 <thread_run-0xfff93b>
     6c3:	00 00                	add    %al,(%eax)
     6c5:	75 02                	jne    6c9 <thread_run-0xfff937>
     6c7:	00 00                	add    %al,(%eax)
     6c9:	02 00                	add    (%eax),%al
     6cb:	74 08                	je     6d5 <thread_run-0xfff92b>
     6cd:	75 02                	jne    6d1 <thread_run-0xfff92f>
     6cf:	00 00                	add    %al,(%eax)
     6d1:	a1 03 00 00 02       	mov    0x2000003,%eax
     6d6:	00 75 08             	add    %dh,0x8(%ebp)
     6d9:	a1 03 00 00 a2       	mov    0xa2000003,%eax
     6de:	03 00                	add    (%eax),%eax
     6e0:	00 02                	add    %al,(%edx)
     6e2:	00 74 08 a2          	add    %dh,-0x5e(%eax,%ecx,1)
     6e6:	03 00                	add    (%eax),%eax
     6e8:	00 a3 03 00 00 02    	add    %ah,0x2000003(%ebx)
     6ee:	00 74 04 00          	add    %dh,0x0(%esp,%eax,1)
     6f2:	00 00                	add    %al,(%eax)
     6f4:	00 00                	add    %al,(%eax)
     6f6:	00 00                	add    %al,(%eax)
     6f8:	00 81 02 00 00 f5    	add    %al,-0xafffffe(%ecx)
     6fe:	02 00                	add    (%eax),%al
     700:	00 02                	add    %al,(%edx)
     702:	00 30                	add    %dh,(%eax)
     704:	9f                   	lahf   
     705:	f5                   	cmc    
     706:	02 00                	add    (%eax),%al
     708:	00 ff                	add    %bh,%bh
     70a:	02 00                	add    (%eax),%al
     70c:	00 03                	add    %al,(%ebx)
     70e:	00 09                	add    %cl,(%ecx)
     710:	ff 9f ff 02 00 00    	lcall  *0x2ff(%edi)
     716:	57                   	push   %edi
     717:	03 00                	add    (%eax),%eax
     719:	00 02                	add    %al,(%edx)
     71b:	00 30                	add    %dh,(%eax)
     71d:	9f                   	lahf   
     71e:	57                   	push   %edi
     71f:	03 00                	add    (%eax),%eax
     721:	00 5e 03             	add    %bl,0x3(%esi)
     724:	00 00                	add    %al,(%eax)
     726:	03 00                	add    (%eax),%eax
     728:	09 ff                	or     %edi,%edi
     72a:	9f                   	lahf   
     72b:	5e                   	pop    %esi
     72c:	03 00                	add    (%eax),%eax
     72e:	00 69 03             	add    %ch,0x3(%ecx)
     731:	00 00                	add    %al,(%eax)
     733:	02 00                	add    (%eax),%al
     735:	30 9f 69 03 00 00    	xor    %bl,0x369(%edi)
     73b:	84 03                	test   %al,(%ebx)
     73d:	00 00                	add    %al,(%eax)
     73f:	01 00                	add    %eax,(%eax)
     741:	50                   	push   %eax
     742:	85 03                	test   %eax,(%ebx)
     744:	00 00                	add    %al,(%eax)
     746:	8c 03                	mov    %es,(%ebx)
     748:	00 00                	add    %al,(%eax)
     74a:	03 00                	add    (%eax),%eax
     74c:	09 ff                	or     %edi,%edi
     74e:	9f                   	lahf   
     74f:	8c 03                	mov    %es,(%ebx)
     751:	00 00                	add    %al,(%eax)
     753:	93                   	xchg   %eax,%ebx
     754:	03 00                	add    (%eax),%eax
     756:	00 01                	add    %al,(%ecx)
     758:	00 50 00             	add    %dl,0x0(%eax)
     75b:	00 00                	add    %al,(%eax)
     75d:	00 00                	add    %al,(%eax)
     75f:	00 00                	add    %al,(%eax)
     761:	00 81 02 00 00 dd    	add    %al,-0x22fffffe(%ecx)
     767:	02 00                	add    (%eax),%al
     769:	00 02                	add    %al,(%edx)
     76b:	00 30                	add    %dh,(%eax)
     76d:	9f                   	lahf   
     76e:	dd 02                	fldl   (%edx)
     770:	00 00                	add    %al,(%eax)
     772:	f4                   	hlt    
     773:	02 00                	add    (%eax),%al
     775:	00 01                	add    %al,(%ecx)
     777:	00 50 f4             	add    %dl,-0xc(%eax)
     77a:	02 00                	add    (%eax),%al
     77c:	00 61 03             	add    %ah,0x3(%ecx)
     77f:	00 00                	add    %al,(%eax)
     781:	01 00                	add    %eax,(%eax)
     783:	56                   	push   %esi
	...
     78c:	81 02 00 00 03 03    	addl   $0x3030000,(%edx)
     792:	00 00                	add    %al,(%eax)
     794:	02 00                	add    (%eax),%al
     796:	30 9f 03 03 00 00    	xor    %bl,0x303(%edi)
     79c:	3f                   	aas    
     79d:	03 00                	add    (%eax),%eax
     79f:	00 01                	add    %al,(%ecx)
     7a1:	00 53 00             	add    %dl,0x0(%ebx)
     7a4:	00 00                	add    %al,(%eax)
     7a6:	00 00                	add    %al,(%eax)
     7a8:	00 00                	add    %al,(%eax)
     7aa:	00 81 02 00 00 3f    	add    %al,0x3f000002(%ecx)
     7b0:	03 00                	add    (%eax),%eax
     7b2:	00 02                	add    %al,(%edx)
     7b4:	00 30                	add    %dh,(%eax)
     7b6:	9f                   	lahf   
     7b7:	3f                   	aas    
     7b8:	03 00                	add    (%eax),%eax
     7ba:	00 56 03             	add    %dl,0x3(%esi)
     7bd:	00 00                	add    %al,(%eax)
     7bf:	01 00                	add    %eax,(%eax)
     7c1:	50                   	push   %eax
     7c2:	56                   	push   %esi
     7c3:	03 00                	add    (%eax),%eax
     7c5:	00 96 03 00 00 01    	add    %dl,0x1000003(%esi)
     7cb:	00 53 00             	add    %dl,0x0(%ebx)
     7ce:	00 00                	add    %al,(%eax)
     7d0:	00 00                	add    %al,(%eax)
     7d2:	00 00                	add    %al,(%eax)
     7d4:	00 81 02 00 00 61    	add    %al,0x61000002(%ecx)
     7da:	03 00                	add    (%eax),%eax
     7dc:	00 02                	add    %al,(%edx)
     7de:	00 30                	add    %dh,(%eax)
     7e0:	9f                   	lahf   
     7e1:	61                   	popa   
     7e2:	03 00                	add    (%eax),%eax
     7e4:	00 68 03             	add    %ch,0x3(%eax)
     7e7:	00 00                	add    %al,(%eax)
     7e9:	02 00                	add    (%eax),%al
     7eb:	73 08                	jae    7f5 <thread_run-0xfff80b>
     7ed:	68 03 00 00 96       	push   $0x96000003
     7f2:	03 00                	add    (%eax),%eax
     7f4:	00 01                	add    %al,(%ecx)
     7f6:	00 56 00             	add    %dl,0x0(%esi)
     7f9:	00 00                	add    %al,(%eax)
     7fb:	00 00                	add    %al,(%eax)
     7fd:	00 00                	add    %al,(%eax)
     7ff:	00 81 02 00 00 d3    	add    %al,-0x2cfffffe(%ecx)
     805:	02 00                	add    (%eax),%al
     807:	00 02                	add    %al,(%edx)
     809:	00 30                	add    %dh,(%eax)
     80b:	9f                   	lahf   
     80c:	d3 02                	roll   %cl,(%edx)
     80e:	00 00                	add    %al,(%eax)
     810:	da 02                	fiaddl (%edx)
     812:	00 00                	add    %al,(%eax)
     814:	05 00 03 2c 39       	add    $0x392c0300,%eax
     819:	00 01                	add    %al,(%ecx)
     81b:	da 02                	fiaddl (%edx)
     81d:	00 00                	add    %al,(%eax)
     81f:	96                   	xchg   %eax,%esi
     820:	03 00                	add    (%eax),%eax
     822:	00 01                	add    %al,(%ecx)
     824:	00 57 00             	add    %dl,0x0(%edi)
	...
     82f:	00 00                	add    %al,(%eax)
     831:	00 01                	add    %al,(%ecx)
     833:	00 00                	add    %al,(%eax)
     835:	00 02                	add    %al,(%edx)
     837:	00 74 04 01          	add    %dh,0x1(%esp,%eax,1)
     83b:	00 00                	add    %al,(%eax)
     83d:	00 03                	add    %al,(%ebx)
     83f:	00 00                	add    %al,(%eax)
     841:	00 02                	add    %al,(%edx)
     843:	00 74 08 03          	add    %dh,0x3(%eax,%ecx,1)
     847:	00 00                	add    %al,(%eax)
     849:	00 12                	add    %dl,(%edx)
     84b:	00 00                	add    %al,(%eax)
     84d:	00 02                	add    %al,(%edx)
     84f:	00 75 08             	add    %dh,0x8(%ebp)
     852:	12 00                	adc    (%eax),%al
     854:	00 00                	add    %al,(%eax)
     856:	13 00                	adc    (%eax),%eax
     858:	00 00                	add    %al,(%eax)
     85a:	02 00                	add    (%eax),%al
     85c:	74 04                	je     862 <thread_run-0xfff79e>
	...
     866:	13 00                	adc    (%eax),%eax
     868:	00 00                	add    %al,(%eax)
     86a:	14 00                	adc    $0x0,%al
     86c:	00 00                	add    %al,(%eax)
     86e:	02 00                	add    (%eax),%al
     870:	74 04                	je     876 <thread_run-0xfff78a>
     872:	14 00                	adc    $0x0,%al
     874:	00 00                	add    %al,(%eax)
     876:	16                   	push   %ss
     877:	00 00                	add    %al,(%eax)
     879:	00 02                	add    %al,(%edx)
     87b:	00 74 08 16          	add    %dh,0x16(%eax,%ecx,1)
     87f:	00 00                	add    %al,(%eax)
     881:	00 2c 00             	add    %ch,(%eax,%eax,1)
     884:	00 00                	add    %al,(%eax)
     886:	02 00                	add    (%eax),%al
     888:	75 08                	jne    892 <thread_run-0xfff76e>
     88a:	2c 00                	sub    $0x0,%al
     88c:	00 00                	add    %al,(%eax)
     88e:	2d 00 00 00 02       	sub    $0x2000000,%eax
     893:	00 74 04 00          	add    %dh,0x0(%esp,%eax,1)
     897:	00 00                	add    %al,(%eax)
     899:	00 00                	add    %al,(%eax)
     89b:	00 00                	add    %al,(%eax)
     89d:	00 19                	add    %bl,(%ecx)
     89f:	00 00                	add    %al,(%eax)
     8a1:	00 2b                	add    %ch,(%ebx)
     8a3:	00 00                	add    %al,(%eax)
     8a5:	00 02                	add    %al,(%edx)
     8a7:	00 30                	add    %dh,(%eax)
     8a9:	9f                   	lahf   
     8aa:	2b 00                	sub    (%eax),%eax
     8ac:	00 00                	add    %al,(%eax)
     8ae:	2d 00 00 00 01       	sub    $0x1000000,%eax
     8b3:	00 50 00             	add    %dl,0x0(%eax)
     8b6:	00 00                	add    %al,(%eax)
     8b8:	00 00                	add    %al,(%eax)
     8ba:	00 00                	add    %al,(%eax)
     8bc:	00 2d 00 00 00 2e    	add    %ch,0x2e000000
     8c2:	00 00                	add    %al,(%eax)
     8c4:	00 02                	add    %al,(%edx)
     8c6:	00 74 04 2e          	add    %dh,0x2e(%esp,%eax,1)
     8ca:	00 00                	add    %al,(%eax)
     8cc:	00 30                	add    %dh,(%eax)
     8ce:	00 00                	add    %al,(%eax)
     8d0:	00 02                	add    %al,(%edx)
     8d2:	00 74 08 30          	add    %dh,0x30(%eax,%ecx,1)
     8d6:	00 00                	add    %al,(%eax)
     8d8:	00 46 00             	add    %al,0x0(%esi)
     8db:	00 00                	add    %al,(%eax)
     8dd:	02 00                	add    (%eax),%al
     8df:	75 08                	jne    8e9 <thread_run-0xfff717>
     8e1:	46                   	inc    %esi
     8e2:	00 00                	add    %al,(%eax)
     8e4:	00 47 00             	add    %al,0x0(%edi)
     8e7:	00 00                	add    %al,(%eax)
     8e9:	02 00                	add    (%eax),%al
     8eb:	74 04                	je     8f1 <thread_run-0xfff70f>
	...
     8f5:	33 00                	xor    (%eax),%eax
     8f7:	00 00                	add    %al,(%eax)
     8f9:	45                   	inc    %ebp
     8fa:	00 00                	add    %al,(%eax)
     8fc:	00 02                	add    %al,(%edx)
     8fe:	00 30                	add    %dh,(%eax)
     900:	9f                   	lahf   
     901:	45                   	inc    %ebp
     902:	00 00                	add    %al,(%eax)
     904:	00 47 00             	add    %al,0x0(%edi)
     907:	00 00                	add    %al,(%eax)
     909:	01 00                	add    %eax,(%eax)
     90b:	50                   	push   %eax
	...
     914:	47                   	inc    %edi
     915:	00 00                	add    %al,(%eax)
     917:	00 48 00             	add    %cl,0x0(%eax)
     91a:	00 00                	add    %al,(%eax)
     91c:	02 00                	add    (%eax),%al
     91e:	74 04                	je     924 <thread_run-0xfff6dc>
     920:	48                   	dec    %eax
     921:	00 00                	add    %al,(%eax)
     923:	00 4a 00             	add    %cl,0x0(%edx)
     926:	00 00                	add    %al,(%eax)
     928:	02 00                	add    (%eax),%al
     92a:	74 08                	je     934 <thread_run-0xfff6cc>
     92c:	4a                   	dec    %edx
     92d:	00 00                	add    %al,(%eax)
     92f:	00 59 00             	add    %bl,0x0(%ecx)
     932:	00 00                	add    %al,(%eax)
     934:	02 00                	add    (%eax),%al
     936:	75 08                	jne    940 <thread_run-0xfff6c0>
     938:	59                   	pop    %ecx
     939:	00 00                	add    %al,(%eax)
     93b:	00 5a 00             	add    %bl,0x0(%edx)
     93e:	00 00                	add    %al,(%eax)
     940:	02 00                	add    (%eax),%al
     942:	74 04                	je     948 <thread_run-0xfff6b8>
	...
     94c:	4d                   	dec    %ebp
     94d:	00 00                	add    %al,(%eax)
     94f:	00 58 00             	add    %bl,0x0(%eax)
     952:	00 00                	add    %al,(%eax)
     954:	02 00                	add    (%eax),%al
     956:	30 9f 58 00 00 00    	xor    %bl,0x58(%edi)
     95c:	5a                   	pop    %edx
     95d:	00 00                	add    %al,(%eax)
     95f:	00 01                	add    %al,(%ecx)
     961:	00 50 00             	add    %dl,0x0(%eax)
	...
     96c:	00 00                	add    %al,(%eax)
     96e:	00 01                	add    %al,(%ecx)
     970:	00 00                	add    %al,(%eax)
     972:	00 02                	add    %al,(%edx)
     974:	00 74 04 01          	add    %dh,0x1(%esp,%eax,1)
     978:	00 00                	add    %al,(%eax)
     97a:	00 03                	add    %al,(%ebx)
     97c:	00 00                	add    %al,(%eax)
     97e:	00 02                	add    %al,(%edx)
     980:	00 74 08 03          	add    %dh,0x3(%eax,%ecx,1)
     984:	00 00                	add    %al,(%eax)
     986:	00 13                	add    %dl,(%ebx)
     988:	00 00                	add    %al,(%eax)
     98a:	00 02                	add    %al,(%edx)
     98c:	00 75 08             	add    %dh,0x8(%ebp)
     98f:	13 00                	adc    (%eax),%eax
     991:	00 00                	add    %al,(%eax)
     993:	14 00                	adc    $0x0,%al
     995:	00 00                	add    %al,(%eax)
     997:	02 00                	add    (%eax),%al
     999:	74 04                	je     99f <thread_run-0xfff661>
	...
     9a3:	14 00                	adc    $0x0,%al
     9a5:	00 00                	add    %al,(%eax)
     9a7:	15 00 00 00 02       	adc    $0x2000000,%eax
     9ac:	00 74 04 15          	add    %dh,0x15(%esp,%eax,1)
     9b0:	00 00                	add    %al,(%eax)
     9b2:	00 17                	add    %dl,(%edi)
     9b4:	00 00                	add    %al,(%eax)
     9b6:	00 02                	add    %al,(%edx)
     9b8:	00 74 08 17          	add    %dh,0x17(%eax,%ecx,1)
     9bc:	00 00                	add    %al,(%eax)
     9be:	00 2e                	add    %ch,(%esi)
     9c0:	00 00                	add    %al,(%eax)
     9c2:	00 02                	add    %al,(%edx)
     9c4:	00 75 08             	add    %dh,0x8(%ebp)
     9c7:	2e 00 00             	add    %al,%cs:(%eax)
     9ca:	00 2f                	add    %ch,(%edi)
     9cc:	00 00                	add    %al,(%eax)
     9ce:	00 02                	add    %al,(%edx)
     9d0:	00 74 04 00          	add    %dh,0x0(%esp,%eax,1)
     9d4:	00 00                	add    %al,(%eax)
     9d6:	00 00                	add    %al,(%eax)
     9d8:	00 00                	add    %al,(%eax)
     9da:	00 2f                	add    %ch,(%edi)
     9dc:	00 00                	add    %al,(%eax)
     9de:	00 30                	add    %dh,(%eax)
     9e0:	00 00                	add    %al,(%eax)
     9e2:	00 02                	add    %al,(%edx)
     9e4:	00 74 04 30          	add    %dh,0x30(%esp,%eax,1)
     9e8:	00 00                	add    %al,(%eax)
     9ea:	00 32                	add    %dh,(%edx)
     9ec:	00 00                	add    %al,(%eax)
     9ee:	00 02                	add    %al,(%edx)
     9f0:	00 74 08 32          	add    %dh,0x32(%eax,%ecx,1)
     9f4:	00 00                	add    %al,(%eax)
     9f6:	00 42 00             	add    %al,0x0(%edx)
     9f9:	00 00                	add    %al,(%eax)
     9fb:	02 00                	add    (%eax),%al
     9fd:	75 08                	jne    a07 <thread_run-0xfff5f9>
     9ff:	42                   	inc    %edx
     a00:	00 00                	add    %al,(%eax)
     a02:	00 43 00             	add    %al,0x0(%ebx)
     a05:	00 00                	add    %al,(%eax)
     a07:	02 00                	add    (%eax),%al
     a09:	74 04                	je     a0f <thread_run-0xfff5f1>
	...
     a13:	43                   	inc    %ebx
     a14:	00 00                	add    %al,(%eax)
     a16:	00 44 00 00          	add    %al,0x0(%eax,%eax,1)
     a1a:	00 02                	add    %al,(%edx)
     a1c:	00 74 04 44          	add    %dh,0x44(%esp,%eax,1)
     a20:	00 00                	add    %al,(%eax)
     a22:	00 46 00             	add    %al,0x0(%esi)
     a25:	00 00                	add    %al,(%eax)
     a27:	02 00                	add    (%eax),%al
     a29:	74 08                	je     a33 <thread_run-0xfff5cd>
     a2b:	46                   	inc    %esi
     a2c:	00 00                	add    %al,(%eax)
     a2e:	00 56 00             	add    %dl,0x0(%esi)
     a31:	00 00                	add    %al,(%eax)
     a33:	02 00                	add    (%eax),%al
     a35:	75 08                	jne    a3f <thread_run-0xfff5c1>
     a37:	56                   	push   %esi
     a38:	00 00                	add    %al,(%eax)
     a3a:	00 57 00             	add    %dl,0x0(%edi)
     a3d:	00 00                	add    %al,(%eax)
     a3f:	02 00                	add    (%eax),%al
     a41:	74 04                	je     a47 <thread_run-0xfff5b9>
	...
     a4b:	57                   	push   %edi
     a4c:	00 00                	add    %al,(%eax)
     a4e:	00 58 00             	add    %bl,0x0(%eax)
     a51:	00 00                	add    %al,(%eax)
     a53:	02 00                	add    (%eax),%al
     a55:	74 04                	je     a5b <thread_run-0xfff5a5>
     a57:	58                   	pop    %eax
     a58:	00 00                	add    %al,(%eax)
     a5a:	00 5a 00             	add    %bl,0x0(%edx)
     a5d:	00 00                	add    %al,(%eax)
     a5f:	02 00                	add    (%eax),%al
     a61:	74 08                	je     a6b <thread_run-0xfff595>
     a63:	5a                   	pop    %edx
     a64:	00 00                	add    %al,(%eax)
     a66:	00 6a 00             	add    %ch,0x0(%edx)
     a69:	00 00                	add    %al,(%eax)
     a6b:	02 00                	add    (%eax),%al
     a6d:	75 08                	jne    a77 <thread_run-0xfff589>
     a6f:	6a 00                	push   $0x0
     a71:	00 00                	add    %al,(%eax)
     a73:	6b 00 00             	imul   $0x0,(%eax),%eax
     a76:	00 02                	add    %al,(%edx)
     a78:	00 74 04 00          	add    %dh,0x0(%esp,%eax,1)
     a7c:	00 00                	add    %al,(%eax)
     a7e:	00 00                	add    %al,(%eax)
     a80:	00 00                	add    %al,(%eax)
     a82:	00 6b 00             	add    %ch,0x0(%ebx)
     a85:	00 00                	add    %al,(%eax)
     a87:	6c                   	insb   (%dx),%es:(%edi)
     a88:	00 00                	add    %al,(%eax)
     a8a:	00 02                	add    %al,(%edx)
     a8c:	00 74 04 6c          	add    %dh,0x6c(%esp,%eax,1)
     a90:	00 00                	add    %al,(%eax)
     a92:	00 6e 00             	add    %ch,0x0(%esi)
     a95:	00 00                	add    %al,(%eax)
     a97:	02 00                	add    (%eax),%al
     a99:	74 08                	je     aa3 <thread_run-0xfff55d>
     a9b:	6e                   	outsb  %ds:(%esi),(%dx)
     a9c:	00 00                	add    %al,(%eax)
     a9e:	00 85 00 00 00 02    	add    %al,0x2000000(%ebp)
     aa4:	00 75 08             	add    %dh,0x8(%ebp)
     aa7:	85 00                	test   %eax,(%eax)
     aa9:	00 00                	add    %al,(%eax)
     aab:	86 00                	xchg   %al,(%eax)
     aad:	00 00                	add    %al,(%eax)
     aaf:	02 00                	add    (%eax),%al
     ab1:	74 04                	je     ab7 <thread_run-0xfff549>
	...
     abb:	86 00                	xchg   %al,(%eax)
     abd:	00 00                	add    %al,(%eax)
     abf:	87 00                	xchg   %eax,(%eax)
     ac1:	00 00                	add    %al,(%eax)
     ac3:	02 00                	add    (%eax),%al
     ac5:	74 04                	je     acb <thread_run-0xfff535>
     ac7:	87 00                	xchg   %eax,(%eax)
     ac9:	00 00                	add    %al,(%eax)
     acb:	89 00                	mov    %eax,(%eax)
     acd:	00 00                	add    %al,(%eax)
     acf:	02 00                	add    (%eax),%al
     ad1:	74 08                	je     adb <thread_run-0xfff525>
     ad3:	89 00                	mov    %eax,(%eax)
     ad5:	00 00                	add    %al,(%eax)
     ad7:	99                   	cltd   
     ad8:	00 00                	add    %al,(%eax)
     ada:	00 02                	add    %al,(%edx)
     adc:	00 75 08             	add    %dh,0x8(%ebp)
     adf:	99                   	cltd   
     ae0:	00 00                	add    %al,(%eax)
     ae2:	00 9a 00 00 00 02    	add    %bl,0x2000000(%edx)
     ae8:	00 74 04 00          	add    %dh,0x0(%esp,%eax,1)
     aec:	00 00                	add    %al,(%eax)
     aee:	00 00                	add    %al,(%eax)
     af0:	00 00                	add    %al,(%eax)
     af2:	00 9a 00 00 00 9b    	add    %bl,-0x65000000(%edx)
     af8:	00 00                	add    %al,(%eax)
     afa:	00 02                	add    %al,(%edx)
     afc:	00 74 04 9b          	add    %dh,-0x65(%esp,%eax,1)
     b00:	00 00                	add    %al,(%eax)
     b02:	00 9d 00 00 00 02    	add    %bl,0x2000000(%ebp)
     b08:	00 74 08 9d          	add    %dh,-0x63(%eax,%ecx,1)
     b0c:	00 00                	add    %al,(%eax)
     b0e:	00 ad 00 00 00 02    	add    %ch,0x2000000(%ebp)
     b14:	00 75 08             	add    %dh,0x8(%ebp)
     b17:	ad                   	lods   %ds:(%esi),%eax
     b18:	00 00                	add    %al,(%eax)
     b1a:	00 ae 00 00 00 02    	add    %ch,0x2000000(%esi)
     b20:	00 74 04 00          	add    %dh,0x0(%esp,%eax,1)
     b24:	00 00                	add    %al,(%eax)
     b26:	00 00                	add    %al,(%eax)
     b28:	00 00                	add    %al,(%eax)
     b2a:	00 ae 00 00 00 af    	add    %ch,-0x51000000(%esi)
     b30:	00 00                	add    %al,(%eax)
     b32:	00 02                	add    %al,(%edx)
     b34:	00 74 04 af          	add    %dh,-0x51(%esp,%eax,1)
     b38:	00 00                	add    %al,(%eax)
     b3a:	00 b1 00 00 00 02    	add    %dh,0x2000000(%ecx)
     b40:	00 74 08 b1          	add    %dh,-0x4f(%eax,%ecx,1)
     b44:	00 00                	add    %al,(%eax)
     b46:	00 d3                	add    %dl,%bl
     b48:	00 00                	add    %al,(%eax)
     b4a:	00 02                	add    %al,(%edx)
     b4c:	00 75 08             	add    %dh,0x8(%ebp)
     b4f:	d3 00                	roll   %cl,(%eax)
     b51:	00 00                	add    %al,(%eax)
     b53:	d4 00                	aam    $0x0
     b55:	00 00                	add    %al,(%eax)
     b57:	02 00                	add    (%eax),%al
     b59:	74 04                	je     b5f <thread_run-0xfff4a1>
	...
     b63:	d4 00                	aam    $0x0
     b65:	00 00                	add    %al,(%eax)
     b67:	d5 00                	aad    $0x0
     b69:	00 00                	add    %al,(%eax)
     b6b:	02 00                	add    (%eax),%al
     b6d:	74 04                	je     b73 <thread_run-0xfff48d>
     b6f:	d5 00                	aad    $0x0
     b71:	00 00                	add    %al,(%eax)
     b73:	d7                   	xlat   %ds:(%ebx)
     b74:	00 00                	add    %al,(%eax)
     b76:	00 02                	add    %al,(%edx)
     b78:	00 74 08 d7          	add    %dh,-0x29(%eax,%ecx,1)
     b7c:	00 00                	add    %al,(%eax)
     b7e:	00 12                	add    %dl,(%edx)
     b80:	01 00                	add    %eax,(%eax)
     b82:	00 02                	add    %al,(%edx)
     b84:	00 75 08             	add    %dh,0x8(%ebp)
     b87:	12 01                	adc    (%ecx),%al
     b89:	00 00                	add    %al,(%eax)
     b8b:	13 01                	adc    (%ecx),%eax
     b8d:	00 00                	add    %al,(%eax)
     b8f:	02 00                	add    (%eax),%al
     b91:	74 04                	je     b97 <thread_run-0xfff469>
	...
     b9b:	e1 00                	loope  b9d <thread_run-0xfff463>
     b9d:	00 00                	add    %al,(%eax)
     b9f:	e8 00 00 00 01       	call   1000ba4 <_doprnt+0x3e7>
     ba4:	00 50 e8             	add    %dl,-0x18(%eax)
     ba7:	00 00                	add    %al,(%eax)
     ba9:	00 01                	add    %al,(%ecx)
     bab:	01 00                	add    %eax,(%eax)
     bad:	00 02                	add    %al,(%edx)
     baf:	00 74 0c 01          	add    %dh,0x1(%esp,%ecx,1)
     bb3:	01 00                	add    %eax,(%eax)
     bb5:	00 13                	add    %dl,(%ebx)
     bb7:	01 00                	add    %eax,(%eax)
     bb9:	00 03                	add    %al,(%ebx)
     bbb:	00 91 04 9f 00 00    	add    %dl,0x9f04(%ecx)
	...
     bc9:	00 00                	add    %al,(%eax)
     bcb:	01 00                	add    %eax,(%eax)
     bcd:	00 00                	add    %al,(%eax)
     bcf:	02 00                	add    (%eax),%al
     bd1:	74 04                	je     bd7 <thread_run-0xfff429>
     bd3:	01 00                	add    %eax,(%eax)
     bd5:	00 00                	add    %al,(%eax)
     bd7:	03 00                	add    (%eax),%eax
     bd9:	00 00                	add    %al,(%eax)
     bdb:	02 00                	add    (%eax),%al
     bdd:	74 08                	je     be7 <thread_run-0xfff419>
     bdf:	03 00                	add    (%eax),%eax
     be1:	00 00                	add    %al,(%eax)
     be3:	22 00                	and    (%eax),%al
     be5:	00 00                	add    %al,(%eax)
     be7:	02 00                	add    (%eax),%al
     be9:	75 08                	jne    bf3 <thread_run-0xfff40d>
     beb:	22 00                	and    (%eax),%al
     bed:	00 00                	add    %al,(%eax)
     bef:	23 00                	and    (%eax),%eax
     bf1:	00 00                	add    %al,(%eax)
     bf3:	02 00                	add    (%eax),%al
     bf5:	74 04                	je     bfb <thread_run-0xfff405>
	...
     bff:	23 00                	and    (%eax),%eax
     c01:	00 00                	add    %al,(%eax)
     c03:	24 00                	and    $0x0,%al
     c05:	00 00                	add    %al,(%eax)
     c07:	02 00                	add    (%eax),%al
     c09:	74 04                	je     c0f <thread_run-0xfff3f1>
     c0b:	24 00                	and    $0x0,%al
     c0d:	00 00                	add    %al,(%eax)
     c0f:	26 00 00             	add    %al,%es:(%eax)
     c12:	00 02                	add    %al,(%edx)
     c14:	00 74 08 26          	add    %dh,0x26(%eax,%ecx,1)
     c18:	00 00                	add    %al,(%eax)
     c1a:	00 72 00             	add    %dh,0x0(%edx)
     c1d:	00 00                	add    %al,(%eax)
     c1f:	02 00                	add    (%eax),%al
     c21:	75 08                	jne    c2b <thread_run-0xfff3d5>
     c23:	72 00                	jb     c25 <thread_run-0xfff3db>
     c25:	00 00                	add    %al,(%eax)
     c27:	73 00                	jae    c29 <thread_run-0xfff3d7>
     c29:	00 00                	add    %al,(%eax)
     c2b:	02 00                	add    (%eax),%al
     c2d:	74 04                	je     c33 <thread_run-0xfff3cd>
	...
     c37:	73 00                	jae    c39 <thread_run-0xfff3c7>
     c39:	00 00                	add    %al,(%eax)
     c3b:	74 00                	je     c3d <thread_run-0xfff3c3>
     c3d:	00 00                	add    %al,(%eax)
     c3f:	02 00                	add    (%eax),%al
     c41:	74 04                	je     c47 <thread_run-0xfff3b9>
     c43:	74 00                	je     c45 <thread_run-0xfff3bb>
     c45:	00 00                	add    %al,(%eax)
     c47:	76 00                	jbe    c49 <thread_run-0xfff3b7>
     c49:	00 00                	add    %al,(%eax)
     c4b:	02 00                	add    (%eax),%al
     c4d:	74 08                	je     c57 <thread_run-0xfff3a9>
     c4f:	76 00                	jbe    c51 <thread_run-0xfff3af>
     c51:	00 00                	add    %al,(%eax)
     c53:	9a 00 00 00 02 00 75 	lcall  $0x7500,$0x2000000
     c5a:	08 9a 00 00 00 9b    	or     %bl,-0x65000000(%edx)
     c60:	00 00                	add    %al,(%eax)
     c62:	00 02                	add    %al,(%edx)
     c64:	00 74 04 00          	add    %dh,0x0(%esp,%eax,1)
     c68:	00 00                	add    %al,(%eax)
     c6a:	00 00                	add    %al,(%eax)
     c6c:	00 00                	add    %al,(%eax)
     c6e:	00 7c 00 00          	add    %bh,0x0(%eax,%eax,1)
     c72:	00 83 00 00 00 01    	add    %al,0x1000000(%ebx)
     c78:	00 50 83             	add    %dl,-0x7d(%eax)
     c7b:	00 00                	add    %al,(%eax)
     c7d:	00 98 00 00 00 02    	add    %bl,0x2000000(%eax)
     c83:	00 74 0c 98          	add    %dh,-0x68(%esp,%ecx,1)
     c87:	00 00                	add    %al,(%eax)
     c89:	00 9b 00 00 00 03    	add    %bl,0x3000000(%ebx)
     c8f:	00 91 0c 9f 00 00    	add    %dl,0x9f0c(%ecx)
     c95:	00 00                	add    %al,(%eax)
     c97:	00 00                	add    %al,(%eax)
     c99:	00 00                	add    %al,(%eax)
     c9b:	9b                   	fwait
     c9c:	00 00                	add    %al,(%eax)
     c9e:	00 9c 00 00 00 02 00 	add    %bl,0x20000(%eax,%eax,1)
     ca5:	74 04                	je     cab <thread_run-0xfff355>
     ca7:	9c                   	pushf  
     ca8:	00 00                	add    %al,(%eax)
     caa:	00 9e 00 00 00 02    	add    %bl,0x2000000(%esi)
     cb0:	00 74 08 9e          	add    %dh,-0x62(%eax,%ecx,1)
     cb4:	00 00                	add    %al,(%eax)
     cb6:	00 e8                	add    %ch,%al
     cb8:	00 00                	add    %al,(%eax)
     cba:	00 02                	add    %al,(%edx)
     cbc:	00 75 08             	add    %dh,0x8(%ebp)
     cbf:	e8 00 00 00 e9       	call   e9000cc4 <_end+0xe7ffd378>
     cc4:	00 00                	add    %al,(%eax)
     cc6:	00 02                	add    %al,(%edx)
     cc8:	00 74 04 00          	add    %dh,0x0(%esp,%eax,1)
     ccc:	00 00                	add    %al,(%eax)
     cce:	00 00                	add    %al,(%eax)
     cd0:	00 00                	add    %al,(%eax)
     cd2:	00 e9                	add    %ch,%cl
     cd4:	00 00                	add    %al,(%eax)
     cd6:	00 ea                	add    %ch,%dl
     cd8:	00 00                	add    %al,(%eax)
     cda:	00 02                	add    %al,(%edx)
     cdc:	00 74 04 ea          	add    %dh,-0x16(%esp,%eax,1)
     ce0:	00 00                	add    %al,(%eax)
     ce2:	00 ec                	add    %ch,%ah
     ce4:	00 00                	add    %al,(%eax)
     ce6:	00 02                	add    %al,(%edx)
     ce8:	00 74 08 ec          	add    %dh,-0x14(%eax,%ecx,1)
     cec:	00 00                	add    %al,(%eax)
     cee:	00 09                	add    %cl,(%ecx)
     cf0:	01 00                	add    %eax,(%eax)
     cf2:	00 02                	add    %al,(%edx)
     cf4:	00 75 08             	add    %dh,0x8(%ebp)
     cf7:	09 01                	or     %eax,(%ecx)
     cf9:	00 00                	add    %al,(%eax)
     cfb:	0a 01                	or     (%ecx),%al
     cfd:	00 00                	add    %al,(%eax)
     cff:	02 00                	add    (%eax),%al
     d01:	74 04                	je     d07 <thread_run-0xfff2f9>
	...
     d0b:	f2 00 00             	repnz add %al,(%eax)
     d0e:	00 f9                	add    %bh,%cl
     d10:	00 00                	add    %al,(%eax)
     d12:	00 01                	add    %al,(%ecx)
     d14:	00 50 f9             	add    %dl,-0x7(%eax)
     d17:	00 00                	add    %al,(%eax)
     d19:	00 07                	add    %al,(%edi)
     d1b:	01 00                	add    %eax,(%eax)
     d1d:	00 02                	add    %al,(%edx)
     d1f:	00 74 08 07          	add    %dh,0x7(%eax,%ecx,1)
     d23:	01 00                	add    %eax,(%eax)
     d25:	00 0a                	add    %cl,(%edx)
     d27:	01 00                	add    %eax,(%eax)
     d29:	00 03                	add    %al,(%ebx)
     d2b:	00 91 08 9f 00 00    	add    %dl,0x9f08(%ecx)
	...
     d39:	00 00                	add    %al,(%eax)
     d3b:	01 00                	add    %eax,(%eax)
     d3d:	00 00                	add    %al,(%eax)
     d3f:	02 00                	add    (%eax),%al
     d41:	74 04                	je     d47 <thread_run-0xfff2b9>
     d43:	01 00                	add    %eax,(%eax)
     d45:	00 00                	add    %al,(%eax)
     d47:	03 00                	add    (%eax),%eax
     d49:	00 00                	add    %al,(%eax)
     d4b:	02 00                	add    (%eax),%al
     d4d:	74 08                	je     d57 <thread_run-0xfff2a9>
     d4f:	03 00                	add    (%eax),%eax
     d51:	00 00                	add    %al,(%eax)
     d53:	54                   	push   %esp
     d54:	00 00                	add    %al,(%eax)
     d56:	00 02                	add    %al,(%edx)
     d58:	00 75 08             	add    %dh,0x8(%ebp)
     d5b:	54                   	push   %esp
     d5c:	00 00                	add    %al,(%eax)
     d5e:	00 55 00             	add    %dl,0x0(%ebp)
     d61:	00 00                	add    %al,(%eax)
     d63:	02 00                	add    (%eax),%al
     d65:	74 04                	je     d6b <thread_run-0xfff295>
	...
     d73:	22 00                	and    (%eax),%al
     d75:	00 00                	add    %al,(%eax)
     d77:	01 00                	add    %eax,(%eax)
     d79:	50                   	push   %eax
     d7a:	2b 00                	sub    (%eax),%eax
     d7c:	00 00                	add    %al,(%eax)
     d7e:	39 00                	cmp    %eax,(%eax)
     d80:	00 00                	add    %al,(%eax)
     d82:	01 00                	add    %eax,(%eax)
     d84:	50                   	push   %eax
	...
     d91:	1a 00                	sbb    (%eax),%al
     d93:	00 00                	add    %al,(%eax)
     d95:	01 00                	add    %eax,(%eax)
     d97:	52                   	push   %edx
     d98:	1a 00                	sbb    (%eax),%al
     d9a:	00 00                	add    %al,(%eax)
     d9c:	55                   	push   %ebp
     d9d:	00 00                	add    %al,(%eax)
     d9f:	00 02                	add    %al,(%edx)
     da1:	00 91 48 00 00 00    	add    %dl,0x48(%ecx)
	...
     daf:	00 1a                	add    %bl,(%edx)
     db1:	00 00                	add    %al,(%eax)
     db3:	00 01                	add    %al,(%ecx)
     db5:	00 51 1a             	add    %dl,0x1a(%ecx)
     db8:	00 00                	add    %al,(%eax)
     dba:	00 55 00             	add    %dl,0x0(%ebp)
     dbd:	00 00                	add    %al,(%eax)
     dbf:	02 00                	add    (%eax),%al
     dc1:	91                   	xchg   %eax,%ecx
     dc2:	44                   	inc    %esp
	...
     dcb:	12 00                	adc    (%eax),%al
     dcd:	00 00                	add    %al,(%eax)
     dcf:	1a 00                	sbb    (%eax),%al
     dd1:	00 00                	add    %al,(%eax)
     dd3:	03 00                	add    (%eax),%eax
     dd5:	91                   	xchg   %eax,%ecx
     dd6:	6b 9f 1a 00 00 00 51 	imul   $0x51,0x1a(%edi),%ebx
     ddd:	00 00                	add    %al,(%eax)
     ddf:	00 01                	add    %al,(%ecx)
     de1:	00 53 00             	add    %dl,0x0(%ebx)
     de4:	00 00                	add    %al,(%eax)
     de6:	00 00                	add    %al,(%eax)
     de8:	00 00                	add    %al,(%eax)
     dea:	00 55 00             	add    %dl,0x0(%ebp)
     ded:	00 00                	add    %al,(%eax)
     def:	56                   	push   %esi
     df0:	00 00                	add    %al,(%eax)
     df2:	00 02                	add    %al,(%edx)
     df4:	00 74 04 56          	add    %dh,0x56(%esp,%eax,1)
     df8:	00 00                	add    %al,(%eax)
     dfa:	00 58 00             	add    %bl,0x0(%eax)
     dfd:	00 00                	add    %al,(%eax)
     dff:	02 00                	add    (%eax),%al
     e01:	74 08                	je     e0b <thread_run-0xfff1f5>
     e03:	58                   	pop    %eax
     e04:	00 00                	add    %al,(%eax)
     e06:	00 ac 00 00 00 02 00 	add    %ch,0x20000(%eax,%eax,1)
     e0d:	75 08                	jne    e17 <thread_run-0xfff1e9>
     e0f:	ac                   	lods   %ds:(%esi),%al
     e10:	00 00                	add    %al,(%eax)
     e12:	00 ad 00 00 00 02    	add    %ch,0x2000000(%ebp)
     e18:	00 74 04 00          	add    %dh,0x0(%esp,%eax,1)
     e1c:	00 00                	add    %al,(%eax)
     e1e:	00 00                	add    %al,(%eax)
     e20:	00 00                	add    %al,(%eax)
     e22:	00 55 00             	add    %dl,0x0(%ebp)
     e25:	00 00                	add    %al,(%eax)
     e27:	8f 00                	popl   (%eax)
     e29:	00 00                	add    %al,(%eax)
     e2b:	01 00                	add    %eax,(%eax)
     e2d:	50                   	push   %eax
	...
     e36:	55                   	push   %ebp
     e37:	00 00                	add    %al,(%eax)
     e39:	00 6a 00             	add    %ch,0x0(%edx)
     e3c:	00 00                	add    %al,(%eax)
     e3e:	01 00                	add    %eax,(%eax)
     e40:	52                   	push   %edx
     e41:	6a 00                	push   $0x0
     e43:	00 00                	add    %al,(%eax)
     e45:	ad                   	lods   %ds:(%esi),%eax
     e46:	00 00                	add    %al,(%eax)
     e48:	00 02                	add    %al,(%edx)
     e4a:	00 91 60 00 00 00    	add    %dl,0x60(%ecx)
     e50:	00 00                	add    %al,(%eax)
     e52:	00 00                	add    %al,(%eax)
     e54:	00 55 00             	add    %dl,0x0(%ebp)
     e57:	00 00                	add    %al,(%eax)
     e59:	6f                   	outsl  %ds:(%esi),(%dx)
     e5a:	00 00                	add    %al,(%eax)
     e5c:	00 01                	add    %al,(%ecx)
     e5e:	00 51 6f             	add    %dl,0x6f(%ecx)
     e61:	00 00                	add    %al,(%eax)
     e63:	00 ad 00 00 00 02    	add    %ch,0x2000000(%ebp)
     e69:	00 91 5c 00 00 00    	add    %dl,0x5c(%ecx)
     e6f:	00 00                	add    %al,(%eax)
     e71:	00 00                	add    %al,(%eax)
     e73:	00 64 00 00          	add    %ah,0x0(%eax,%eax,1)
     e77:	00 6f 00             	add    %ch,0x0(%edi)
     e7a:	00 00                	add    %al,(%eax)
     e7c:	03 00                	add    (%eax),%eax
     e7e:	91                   	xchg   %eax,%ecx
     e7f:	6b 9f 6f 00 00 00 8f 	imul   $0xffffff8f,0x6f(%edi),%ebx
     e86:	00 00                	add    %al,(%eax)
     e88:	00 01                	add    %al,(%ecx)
     e8a:	00 52 00             	add    %dl,0x0(%edx)
     e8d:	00 00                	add    %al,(%eax)
     e8f:	00 00                	add    %al,(%eax)
     e91:	00 00                	add    %al,(%eax)
     e93:	00 64 00 00          	add    %ah,0x0(%eax,%eax,1)
     e97:	00 6f 00             	add    %ch,0x0(%edi)
     e9a:	00 00                	add    %al,(%eax)
     e9c:	02 00                	add    (%eax),%al
     e9e:	30 9f a0 00 00 00    	xor    %bl,0xa0(%edi)
     ea4:	a9 00 00 00 01       	test   $0x1000000,%eax
     ea9:	00 53 00             	add    %dl,0x0(%ebx)
     eac:	00 00                	add    %al,(%eax)
     eae:	00 00                	add    %al,(%eax)
     eb0:	00 00                	add    %al,(%eax)
     eb2:	00 ad 00 00 00 ae    	add    %ch,-0x52000000(%ebp)
     eb8:	00 00                	add    %al,(%eax)
     eba:	00 02                	add    %al,(%edx)
     ebc:	00 74 04 ae          	add    %dh,-0x52(%esp,%eax,1)
     ec0:	00 00                	add    %al,(%eax)
     ec2:	00 b0 00 00 00 02    	add    %dh,0x2000000(%eax)
     ec8:	00 74 08 b0          	add    %dh,-0x50(%eax,%ecx,1)
     ecc:	00 00                	add    %al,(%eax)
     ece:	00 d1                	add    %dl,%cl
     ed0:	0e                   	push   %cs
     ed1:	00 00                	add    %al,(%eax)
     ed3:	02 00                	add    (%eax),%al
     ed5:	75 08                	jne    edf <thread_run-0xfff121>
     ed7:	d1 0e                	rorl   (%esi)
     ed9:	00 00                	add    %al,(%eax)
     edb:	d2 0e                	rorb   %cl,(%esi)
     edd:	00 00                	add    %al,(%eax)
     edf:	02 00                	add    (%eax),%al
     ee1:	74 04                	je     ee7 <thread_run-0xfff119>
	...
     eeb:	ad                   	lods   %ds:(%esi),%eax
     eec:	00 00                	add    %al,(%eax)
     eee:	00 c4                	add    %al,%ah
     ef0:	00 00                	add    %al,(%eax)
     ef2:	00 02                	add    %al,(%edx)
     ef4:	00 91 00 c4 00 00    	add    %dl,0xc400(%ecx)
     efa:	00 e0                	add    %ah,%al
     efc:	00 00                	add    %al,(%eax)
     efe:	00 01                	add    %al,(%ecx)
     f00:	00 57 e0             	add    %dl,-0x20(%edi)
     f03:	00 00                	add    %al,(%eax)
     f05:	00 02                	add    %al,(%edx)
     f07:	01 00                	add    %eax,(%eax)
     f09:	00 03                	add    %al,(%ebx)
     f0b:	00 77 01             	add    %dh,0x1(%edi)
     f0e:	9f                   	lahf   
     f0f:	02 01                	add    (%ecx),%al
     f11:	00 00                	add    %al,(%eax)
     f13:	0c 01                	or     $0x1,%al
     f15:	00 00                	add    %al,(%eax)
     f17:	01 00                	add    %eax,(%eax)
     f19:	57                   	push   %edi
     f1a:	0f 01 00             	sgdtl  (%eax)
     f1d:	00 e1                	add    %ah,%cl
     f1f:	02 00                	add    (%eax),%al
     f21:	00 01                	add    %al,(%ecx)
     f23:	00 57 e1             	add    %dl,-0x1f(%edi)
     f26:	02 00                	add    (%eax),%al
     f28:	00 36                	add    %dh,(%esi)
     f2a:	04 00                	add    $0x0,%al
     f2c:	00 03                	add    %al,(%ebx)
     f2e:	00 91 a4 7f 36 04    	add    %dl,0x4367fa4(%ecx)
     f34:	00 00                	add    %al,(%eax)
     f36:	9d                   	popf   
     f37:	0c 00                	or     $0x0,%al
     f39:	00 01                	add    %al,(%ecx)
     f3b:	00 57 9d             	add    %dl,-0x63(%edi)
     f3e:	0c 00                	or     $0x0,%al
     f40:	00 30                	add    %dh,(%eax)
     f42:	0e                   	push   %cs
     f43:	00 00                	add    %al,(%eax)
     f45:	03 00                	add    (%eax),%eax
     f47:	91                   	xchg   %eax,%ecx
     f48:	98                   	cwtl   
     f49:	7f 30                	jg     f7b <thread_run-0xfff085>
     f4b:	0e                   	push   %cs
     f4c:	00 00                	add    %al,(%eax)
     f4e:	d0 0e                	rorb   (%esi)
     f50:	00 00                	add    %al,(%eax)
     f52:	01 00                	add    %eax,(%eax)
     f54:	57                   	push   %edi
	...
     f5d:	ad                   	lods   %ds:(%esi),%eax
     f5e:	00 00                	add    %al,(%eax)
     f60:	00 9a 01 00 00 02    	add    %bl,0x2000001(%edx)
     f66:	00 91 04 9a 01 00    	add    %dl,0x19a04(%ecx)
     f6c:	00 f9                	add    %bh,%cl
     f6e:	01 00                	add    %eax,(%eax)
     f70:	00 01                	add    %al,(%ecx)
     f72:	00 53 f9             	add    %dl,-0x7(%ebx)
     f75:	01 00                	add    %eax,(%eax)
     f77:	00 fb                	add    %bh,%bl
     f79:	01 00                	add    %eax,(%eax)
     f7b:	00 01                	add    %al,(%ecx)
     f7d:	00 56 fb             	add    %dl,-0x5(%esi)
     f80:	01 00                	add    %eax,(%eax)
     f82:	00 00                	add    %al,(%eax)
     f84:	02 00                	add    (%eax),%al
     f86:	00 03                	add    %al,(%ebx)
     f88:	00 91 bc 7f 00 02    	add    %dl,0x2007fbc(%ecx)
     f8e:	00 00                	add    %al,(%eax)
     f90:	08 02                	or     %al,(%edx)
     f92:	00 00                	add    %al,(%eax)
     f94:	01 00                	add    %eax,(%eax)
     f96:	53                   	push   %ebx
     f97:	08 02                	or     %al,(%edx)
     f99:	00 00                	add    %al,(%eax)
     f9b:	87 02                	xchg   %eax,(%edx)
     f9d:	00 00                	add    %al,(%eax)
     f9f:	03 00                	add    (%eax),%eax
     fa1:	91                   	xchg   %eax,%ecx
     fa2:	bc 7f 87 02 00       	mov    $0x2877f,%esp
     fa7:	00 97 02 00 00 07    	add    %dl,0x7000002(%edi)
     fad:	00 91 bc 7f 06 23    	add    %dl,0x23067fbc(%ecx)
     fb3:	04 9f                	add    $0x9f,%al
     fb5:	97                   	xchg   %eax,%edi
     fb6:	02 00                	add    (%eax),%al
     fb8:	00 a9 02 00 00 01    	add    %ch,0x1000002(%ecx)
     fbe:	00 50 a9             	add    %dl,-0x57(%eax)
     fc1:	02 00                	add    (%eax),%al
     fc3:	00 36                	add    %dh,(%esi)
     fc5:	04 00                	add    $0x0,%al
     fc7:	00 02                	add    %al,(%edx)
     fc9:	00 91 04 36 04 00    	add    %dl,0x43604(%ecx)
     fcf:	00 3f                	add    %bh,(%edi)
     fd1:	04 00                	add    $0x0,%al
     fd3:	00 03                	add    %al,(%ebx)
     fd5:	00 91 bc 7f 3f 04    	add    %dl,0x43f7fbc(%ecx)
     fdb:	00 00                	add    %al,(%eax)
     fdd:	57                   	push   %edi
     fde:	04 00                	add    $0x0,%al
     fe0:	00 01                	add    %al,(%ecx)
     fe2:	00 53 57             	add    %dl,0x57(%ebx)
     fe5:	04 00                	add    $0x0,%al
     fe7:	00 60 04             	add    %ah,0x4(%eax)
     fea:	00 00                	add    %al,(%eax)
     fec:	03 00                	add    (%eax),%eax
     fee:	91                   	xchg   %eax,%ecx
     fef:	bc 7f 60 04 00       	mov    $0x4607f,%esp
     ff4:	00 b0 04 00 00 01    	add    %dh,0x1000004(%eax)
     ffa:	00 52 b0             	add    %dl,-0x50(%edx)
     ffd:	04 00                	add    $0x0,%al
     fff:	00 16                	add    %dl,(%esi)
    1001:	09 00                	or     %eax,(%eax)
    1003:	00 02                	add    %al,(%edx)
    1005:	00 91 04 16 09 00    	add    %dl,0x91604(%ecx)
    100b:	00 2a                	add    %ch,(%edx)
    100d:	09 00                	or     %eax,(%eax)
    100f:	00 03                	add    %al,(%ebx)
    1011:	00 91 bc 7f 2a 09    	add    %dl,0x92a7fbc(%ecx)
    1017:	00 00                	add    %al,(%eax)
    1019:	52                   	push   %edx
    101a:	09 00                	or     %eax,(%eax)
    101c:	00 01                	add    %al,(%ecx)
    101e:	00 51 52             	add    %dl,0x52(%ecx)
    1021:	09 00                	or     %eax,(%eax)
    1023:	00 09                	add    %cl,(%ecx)
    1025:	0b 00                	or     (%eax),%eax
    1027:	00 02                	add    %al,(%edx)
    1029:	00 91 04 09 0b 00    	add    %dl,0xb0904(%ecx)
    102f:	00 c7                	add    %al,%bh
    1031:	0b 00                	or     (%eax),%eax
    1033:	00 03                	add    %al,(%ebx)
    1035:	00 91 bc 7f c7 0b    	add    %dl,0xbc77fbc(%ecx)
    103b:	00 00                	add    %al,(%eax)
    103d:	d7                   	xlat   %ds:(%ebx)
    103e:	0b 00                	or     (%eax),%eax
    1040:	00 01                	add    %al,(%ecx)
    1042:	00 52 d7             	add    %dl,-0x29(%edx)
    1045:	0b 00                	or     (%eax),%eax
    1047:	00 e0                	add    %ah,%al
    1049:	0b 00                	or     (%eax),%eax
    104b:	00 03                	add    %al,(%ebx)
    104d:	00 91 bc 7f e0 0b    	add    %dl,0xbe07fbc(%ecx)
    1053:	00 00                	add    %al,(%eax)
    1055:	e5 0b                	in     $0xb,%eax
    1057:	00 00                	add    %al,(%eax)
    1059:	01 00                	add    %eax,(%eax)
    105b:	52                   	push   %edx
    105c:	e5 0b                	in     $0xb,%eax
    105e:	00 00                	add    %al,(%eax)
    1060:	0f 0c                	(bad)  
    1062:	00 00                	add    %al,(%eax)
    1064:	02 00                	add    (%eax),%al
    1066:	91                   	xchg   %eax,%ecx
    1067:	04 0f                	add    $0xf,%al
    1069:	0c 00                	or     $0x0,%al
    106b:	00 29                	add    %ch,(%ecx)
    106d:	0c 00                	or     $0x0,%al
    106f:	00 03                	add    %al,(%ebx)
    1071:	00 91 bc 7f 29 0c    	add    %dl,0xc297fbc(%ecx)
    1077:	00 00                	add    %al,(%eax)
    1079:	3a 0c 00             	cmp    (%eax,%eax,1),%cl
    107c:	00 01                	add    %al,(%ecx)
    107e:	00 50 3a             	add    %dl,0x3a(%eax)
    1081:	0c 00                	or     $0x0,%al
    1083:	00 43 0c             	add    %al,0xc(%ebx)
    1086:	00 00                	add    %al,(%eax)
    1088:	03 00                	add    (%eax),%eax
    108a:	91                   	xchg   %eax,%ecx
    108b:	bc 7f 43 0c 00       	mov    $0xc437f,%esp
    1090:	00 48 0c             	add    %cl,0xc(%eax)
    1093:	00 00                	add    %al,(%eax)
    1095:	01 00                	add    %eax,(%eax)
    1097:	53                   	push   %ebx
    1098:	48                   	dec    %eax
    1099:	0c 00                	or     $0x0,%al
    109b:	00 30                	add    %dh,(%eax)
    109d:	0e                   	push   %cs
    109e:	00 00                	add    %al,(%eax)
    10a0:	02 00                	add    (%eax),%al
    10a2:	91                   	xchg   %eax,%ecx
    10a3:	04 30                	add    $0x30,%al
    10a5:	0e                   	push   %cs
    10a6:	00 00                	add    %al,(%eax)
    10a8:	51                   	push   %ecx
    10a9:	0e                   	push   %cs
    10aa:	00 00                	add    %al,(%eax)
    10ac:	03 00                	add    (%eax),%eax
    10ae:	91                   	xchg   %eax,%ecx
    10af:	bc 7f 51 0e 00       	mov    $0xe517f,%esp
    10b4:	00 d2                	add    %dl,%dl
    10b6:	0e                   	push   %cs
    10b7:	00 00                	add    %al,(%eax)
    10b9:	02 00                	add    (%eax),%al
    10bb:	91                   	xchg   %eax,%ecx
    10bc:	04 00                	add    $0x0,%al
    10be:	00 00                	add    %al,(%eax)
    10c0:	00 00                	add    %al,(%eax)
    10c2:	00 00                	add    %al,(%eax)
    10c4:	00 e0                	add    %ah,%al
    10c6:	00 00                	add    %al,(%eax)
    10c8:	00 68 01             	add    %ch,0x1(%eax)
    10cb:	00 00                	add    %al,(%eax)
    10cd:	02 00                	add    (%eax),%al
    10cf:	30 9f 72 01 00 00    	xor    %bl,0x172(%edi)
    10d5:	88 01                	mov    %al,(%ecx)
    10d7:	00 00                	add    %al,(%eax)
    10d9:	01 00                	add    %eax,(%eax)
    10db:	51                   	push   %ecx
    10dc:	88 01                	mov    %al,(%ecx)
    10de:	00 00                	add    %al,(%eax)
    10e0:	a2 01 00 00 02       	mov    %al,0x2000001
    10e5:	00 30                	add    %dh,(%eax)
    10e7:	9f                   	lahf   
    10e8:	a2 01 00 00 b9       	mov    %al,0xb9000001
    10ed:	01 00                	add    %eax,(%eax)
    10ef:	00 03                	add    %al,(%ebx)
    10f1:	00 91 04 06 b9 01    	add    %dl,0x1b90604(%ecx)
    10f7:	00 00                	add    %al,(%eax)
    10f9:	41                   	inc    %ecx
    10fa:	0b 00                	or     (%eax),%eax
    10fc:	00 03                	add    %al,(%ebx)
    10fe:	00 91 a8 7f 41 0b    	add    %dl,0xb417fa8(%ecx)
    1104:	00 00                	add    %al,(%eax)
    1106:	6e                   	outsb  %ds:(%esi),(%dx)
    1107:	0b 00                	or     (%eax),%eax
    1109:	00 02                	add    %al,(%edx)
    110b:	00 38                	add    %bh,(%eax)
    110d:	9f                   	lahf   
    110e:	6e                   	outsb  %ds:(%esi),(%dx)
    110f:	0b 00                	or     (%eax),%eax
    1111:	00 f6                	add    %dh,%dh
    1113:	0c 00                	or     $0x0,%al
    1115:	00 03                	add    %al,(%ebx)
    1117:	00 91 a8 7f f6 0c    	add    %dl,0xcf67fa8(%ecx)
    111d:	00 00                	add    %al,(%eax)
    111f:	21 0d 00 00 01 00    	and    %ecx,0x10000
    1125:	56                   	push   %esi
    1126:	21 0d 00 00 39 0d    	and    %ecx,0xd390000
    112c:	00 00                	add    %al,(%eax)
    112e:	03 00                	add    (%eax),%eax
    1130:	76 7f                	jbe    11b1 <thread_run-0xffee4f>
    1132:	9f                   	lahf   
    1133:	39 0d 00 00 46 0d    	cmp    %ecx,0xd460000
    1139:	00 00                	add    %al,(%eax)
    113b:	01 00                	add    %eax,(%eax)
    113d:	53                   	push   %ebx
    113e:	46                   	inc    %esi
    113f:	0d 00 00 49 0d       	or     $0xd490000,%eax
    1144:	00 00                	add    %al,(%eax)
    1146:	03 00                	add    (%eax),%eax
    1148:	73 7f                	jae    11c9 <thread_run-0xffee37>
    114a:	9f                   	lahf   
    114b:	49                   	dec    %ecx
    114c:	0d 00 00 54 0d       	or     $0xd540000,%eax
    1151:	00 00                	add    %al,(%eax)
    1153:	01 00                	add    %eax,(%eax)
    1155:	53                   	push   %ebx
    1156:	54                   	push   %esp
    1157:	0d 00 00 a8 0d       	or     $0xda80000,%eax
    115c:	00 00                	add    %al,(%eax)
    115e:	02 00                	add    (%eax),%al
    1160:	91                   	xchg   %eax,%ecx
    1161:	44                   	inc    %esp
    1162:	a8 0d                	test   $0xd,%al
    1164:	00 00                	add    %al,(%eax)
    1166:	bd 0d 00 00 06       	mov    $0x600000d,%ebp
    116b:	00 91 44 06 31 1c    	add    %dl,0x1c310644(%ecx)
    1171:	9f                   	lahf   
    1172:	bd 0d 00 00 ca       	mov    $0xca00000d,%ebp
    1177:	0d 00 00 01 00       	or     $0x10000,%eax
    117c:	53                   	push   %ebx
    117d:	ca 0d 00             	lret   $0xd
    1180:	00 cd                	add    %cl,%ch
    1182:	0d 00 00 03 00       	or     $0x30000,%eax
    1187:	73 7f                	jae    1208 <thread_run-0xffedf8>
    1189:	9f                   	lahf   
    118a:	cd 0d                	int    $0xd
    118c:	00 00                	add    %al,(%eax)
    118e:	d8 0d 00 00 01 00    	fmuls  0x10000
    1194:	53                   	push   %ebx
    1195:	d8 0d 00 00 08 0e    	fmuls  0xe080000
    119b:	00 00                	add    %al,(%eax)
    119d:	03 00                	add    (%eax),%eax
    119f:	91                   	xchg   %eax,%ecx
    11a0:	bc 7f 08 0e 00       	mov    $0xe087f,%esp
    11a5:	00 19                	add    %bl,(%ecx)
    11a7:	0e                   	push   %cs
    11a8:	00 00                	add    %al,(%eax)
    11aa:	07                   	pop    %es
    11ab:	00 91 bc 7f 06 31    	add    %dl,0x31067fbc(%ecx)
    11b1:	1c 9f                	sbb    $0x9f,%al
    11b3:	19 0e                	sbb    %ecx,(%esi)
    11b5:	00 00                	add    %al,(%eax)
    11b7:	26                   	es
    11b8:	0e                   	push   %cs
    11b9:	00 00                	add    %al,(%eax)
    11bb:	01 00                	add    %eax,(%eax)
    11bd:	53                   	push   %ebx
    11be:	26                   	es
    11bf:	0e                   	push   %cs
    11c0:	00 00                	add    %al,(%eax)
    11c2:	29 0e                	sub    %ecx,(%esi)
    11c4:	00 00                	add    %al,(%eax)
    11c6:	03 00                	add    (%eax),%eax
    11c8:	73 7f                	jae    1249 <thread_run-0xffedb7>
    11ca:	9f                   	lahf   
    11cb:	29 0e                	sub    %ecx,(%esi)
    11cd:	00 00                	add    %al,(%eax)
    11cf:	30 0e                	xor    %cl,(%esi)
    11d1:	00 00                	add    %al,(%eax)
    11d3:	01 00                	add    %eax,(%eax)
    11d5:	53                   	push   %ebx
    11d6:	30 0e                	xor    %cl,(%esi)
    11d8:	00 00                	add    %al,(%eax)
    11da:	51                   	push   %ecx
    11db:	0e                   	push   %cs
    11dc:	00 00                	add    %al,(%eax)
    11de:	03 00                	add    (%eax),%eax
    11e0:	91                   	xchg   %eax,%ecx
    11e1:	a8 7f                	test   $0x7f,%al
    11e3:	61                   	popa   
    11e4:	0e                   	push   %cs
    11e5:	00 00                	add    %al,(%eax)
    11e7:	ca 0e 00             	lret   $0xe
    11ea:	00 03                	add    %al,(%ebx)
    11ec:	00 91 a8 7f 00 00    	add    %dl,0x7fa8(%ecx)
    11f2:	00 00                	add    %al,(%eax)
    11f4:	00 00                	add    %al,(%eax)
    11f6:	00 00                	add    %al,(%eax)
    11f8:	e0 00                	loopne 11fa <thread_run-0xffee06>
    11fa:	00 00                	add    %al,(%eax)
    11fc:	d1 01                	roll   (%ecx)
    11fe:	00 00                	add    %al,(%eax)
    1200:	03 00                	add    (%eax),%eax
    1202:	09 ff                	or     %edi,%edi
    1204:	9f                   	lahf   
    1205:	db 01                	fildl  (%ecx)
    1207:	00 00                	add    %al,(%eax)
    1209:	ee                   	out    %al,(%dx)
    120a:	01 00                	add    %eax,(%eax)
    120c:	00 01                	add    %al,(%ecx)
    120e:	00 56 ee             	add    %dl,-0x12(%esi)
    1211:	01 00                	add    %eax,(%eax)
    1213:	00 fb                	add    %bh,%bl
    1215:	01 00                	add    %eax,(%eax)
    1217:	00 03                	add    %al,(%ebx)
    1219:	00 09                	add    %cl,(%ecx)
    121b:	ff 9f fb 01 00 00    	lcall  *0x1fb(%edi)
    1221:	00 02                	add    %al,(%edx)
    1223:	00 00                	add    %al,(%eax)
    1225:	02 00                	add    (%eax),%al
    1227:	73 00                	jae    1229 <thread_run-0xffedd7>
    1229:	00 02                	add    %al,(%edx)
    122b:	00 00                	add    %al,(%eax)
    122d:	08 02                	or     %al,(%edx)
    122f:	00 00                	add    %al,(%eax)
    1231:	03 00                	add    (%eax),%eax
    1233:	09 ff                	or     %edi,%edi
    1235:	9f                   	lahf   
    1236:	08 02                	or     %al,(%edx)
    1238:	00 00                	add    %al,(%eax)
    123a:	91                   	xchg   %eax,%ecx
    123b:	02 00                	add    (%eax),%al
    123d:	00 01                	add    %al,(%ecx)
    123f:	00 56 36             	add    %dl,0x36(%esi)
    1242:	04 00                	add    $0x0,%al
    1244:	00 42 04             	add    %al,0x4(%edx)
    1247:	00 00                	add    %al,(%eax)
    1249:	01 00                	add    %eax,(%eax)
    124b:	56                   	push   %esi
    124c:	57                   	push   %edi
    124d:	04 00                	add    $0x0,%al
    124f:	00 6b 04             	add    %ch,0x4(%ebx)
    1252:	00 00                	add    %al,(%eax)
    1254:	01 00                	add    %eax,(%eax)
    1256:	56                   	push   %esi
    1257:	16                   	push   %ss
    1258:	09 00                	or     %eax,(%eax)
    125a:	00 66 0a             	add    %ah,0xa(%esi)
    125d:	00 00                	add    %al,(%eax)
    125f:	01 00                	add    %eax,(%eax)
    1261:	56                   	push   %esi
    1262:	66                   	data16
    1263:	0a 00                	or     (%eax),%al
    1265:	00 9a 0a 00 00 03    	add    %bl,0x300000a(%edx)
    126b:	00 91 bc 7f 09 0b    	add    %dl,0xb097fbc(%ecx)
    1271:	00 00                	add    %al,(%eax)
    1273:	22 0b                	and    (%ebx),%cl
    1275:	00 00                	add    %al,(%eax)
    1277:	01 00                	add    %eax,(%eax)
    1279:	56                   	push   %esi
    127a:	2f                   	das    
    127b:	0b 00                	or     (%eax),%eax
    127d:	00 74 0b 00          	add    %dh,0x0(%ebx,%ecx,1)
    1281:	00 01                	add    %al,(%ecx)
    1283:	00 56 81             	add    %dl,-0x7f(%esi)
    1286:	0b 00                	or     (%eax),%eax
    1288:	00 a5 0b 00 00 01    	add    %ah,0x100000b(%ebp)
    128e:	00 56 ad             	add    %dl,-0x53(%esi)
    1291:	0b 00                	or     (%eax),%eax
    1293:	00 b9 0b 00 00 01    	add    %bh,0x100000b(%ecx)
    1299:	00 56 0f             	add    %dl,0xf(%esi)
    129c:	0c 00                	or     $0x0,%al
    129e:	00 1b                	add    %bl,(%ebx)
    12a0:	0c 00                	or     $0x0,%al
    12a2:	00 01                	add    %al,(%ecx)
    12a4:	00 56 30             	add    %dl,0x30(%esi)
    12a7:	0e                   	push   %cs
    12a8:	00 00                	add    %al,(%eax)
    12aa:	45                   	inc    %ebp
    12ab:	0e                   	push   %cs
    12ac:	00 00                	add    %al,(%eax)
    12ae:	01 00                	add    %eax,(%eax)
    12b0:	56                   	push   %esi
	...
    12b9:	e0 00                	loopne 12bb <thread_run-0xffed45>
    12bb:	00 00                	add    %al,(%eax)
    12bd:	02 01                	add    (%ecx),%al
    12bf:	00 00                	add    %al,(%eax)
    12c1:	02 00                	add    (%eax),%al
    12c3:	30 9f 02 01 00 00    	xor    %bl,0x102(%edi)
    12c9:	0c 01                	or     $0x1,%al
    12cb:	00 00                	add    %al,(%eax)
    12cd:	03 00                	add    (%eax),%eax
    12cf:	91                   	xchg   %eax,%ecx
    12d0:	b4 7f                	mov    $0x7f,%ah
    12d2:	0f 01 00             	sgdtl  (%eax)
    12d5:	00 b4 01 00 00 03 00 	add    %dh,0x30000(%ecx,%eax,1)
    12dc:	91                   	xchg   %eax,%ecx
    12dd:	b4 7f                	mov    $0x7f,%ah
    12df:	b4 01                	mov    $0x1,%ah
    12e1:	00 00                	add    %al,(%eax)
    12e3:	b9 01 00 00 01       	mov    $0x1000001,%ecx
    12e8:	00 52 b9             	add    %dl,-0x47(%edx)
    12eb:	01 00                	add    %eax,(%eax)
    12ed:	00 54 0e 00          	add    %dl,0x0(%esi,%ecx,1)
    12f1:	00 03                	add    %al,(%ebx)
    12f3:	00 91 b4 7f 61 0e    	add    %dl,0xe617fb4(%ecx)
    12f9:	00 00                	add    %al,(%eax)
    12fb:	ca 0e 00             	lret   $0xe
    12fe:	00 03                	add    %al,(%ebx)
    1300:	00 91 b4 7f 00 00    	add    %dl,0x7fb4(%ecx)
    1306:	00 00                	add    %al,(%eax)
    1308:	00 00                	add    %al,(%eax)
    130a:	00 00                	add    %al,(%eax)
    130c:	e0 00                	loopne 130e <thread_run-0xffecf2>
    130e:	00 00                	add    %al,(%eax)
    1310:	4a                   	dec    %edx
    1311:	01 00                	add    %eax,(%eax)
    1313:	00 03                	add    %al,(%ebx)
    1315:	00 08                	add    %cl,(%eax)
    1317:	20 9f 4a 01 00 00    	and    %bl,0x14a(%edi)
    131d:	51                   	push   %ecx
    131e:	01 00                	add    %eax,(%eax)
    1320:	00 03                	add    %al,(%ebx)
    1322:	00 08                	add    %cl,(%eax)
    1324:	30 9f 51 01 00 00    	xor    %bl,0x151(%edi)
    132a:	41                   	inc    %ecx
    132b:	0b 00                	or     (%eax),%eax
    132d:	00 03                	add    %al,(%ebx)
    132f:	00 91 a4 7f 41 0b    	add    %dl,0xb417fa4(%ecx)
    1335:	00 00                	add    %al,(%eax)
    1337:	6e                   	outsb  %ds:(%esi),(%dx)
    1338:	0b 00                	or     (%eax),%eax
    133a:	00 03                	add    %al,(%ebx)
    133c:	00 08                	add    %cl,(%eax)
    133e:	30 9f 6e 0b 00 00    	xor    %bl,0xb6e(%edi)
    1344:	54                   	push   %esp
    1345:	0e                   	push   %cs
    1346:	00 00                	add    %al,(%eax)
    1348:	03 00                	add    (%eax),%eax
    134a:	91                   	xchg   %eax,%ecx
    134b:	a4                   	movsb  %ds:(%esi),%es:(%edi)
    134c:	7f 61                	jg     13af <thread_run-0xffec51>
    134e:	0e                   	push   %cs
    134f:	00 00                	add    %al,(%eax)
    1351:	ca 0e 00             	lret   $0xe
    1354:	00 03                	add    %al,(%ebx)
    1356:	00 91 a4 7f 00 00    	add    %dl,0x7fa4(%ecx)
    135c:	00 00                	add    %al,(%eax)
    135e:	00 00                	add    %al,(%eax)
    1360:	00 00                	add    %al,(%eax)
    1362:	93                   	xchg   %eax,%ebx
    1363:	04 00                	add    $0x0,%al
    1365:	00 cc                	add    %cl,%ah
    1367:	04 00                	add    $0x0,%al
    1369:	00 06                	add    %al,(%esi)
    136b:	00 53 93             	add    %dl,-0x6d(%ebx)
    136e:	04 56                	add    $0x56,%al
    1370:	93                   	xchg   %eax,%ebx
    1371:	04 e5                	add    $0xe5,%al
    1373:	04 00                	add    $0x0,%al
    1375:	00 35 05 00 00 03    	add    %dh,0x3000005
    137b:	00 91 bc 7f 35 05    	add    %dl,0x5357fbc(%ecx)
    1381:	00 00                	add    %al,(%eax)
    1383:	04 06                	add    $0x6,%al
    1385:	00 00                	add    %al,(%eax)
    1387:	06                   	push   %es
    1388:	00 53 93             	add    %dl,-0x6d(%ebx)
    138b:	04 56                	add    $0x56,%al
    138d:	93                   	xchg   %eax,%ebx
    138e:	04 07                	add    $0x7,%al
    1390:	06                   	push   %es
    1391:	00 00                	add    %al,(%eax)
    1393:	1c 06                	sbb    $0x6,%al
    1395:	00 00                	add    %al,(%eax)
    1397:	06                   	push   %es
    1398:	00 53 93             	add    %dl,-0x6d(%ebx)
    139b:	04 56                	add    $0x56,%al
    139d:	93                   	xchg   %eax,%ebx
    139e:	04 36                	add    $0x36,%al
    13a0:	06                   	push   %es
    13a1:	00 00                	add    %al,(%eax)
    13a3:	75 06                	jne    13ab <thread_run-0xffec55>
    13a5:	00 00                	add    %al,(%eax)
    13a7:	06                   	push   %es
    13a8:	00 53 93             	add    %dl,-0x6d(%ebx)
    13ab:	04 56                	add    $0x56,%al
    13ad:	93                   	xchg   %eax,%ebx
    13ae:	04 b4                	add    $0xb4,%al
    13b0:	06                   	push   %es
    13b1:	00 00                	add    %al,(%eax)
    13b3:	fb                   	sti    
    13b4:	06                   	push   %es
    13b5:	00 00                	add    %al,(%eax)
    13b7:	03 00                	add    (%eax),%eax
    13b9:	91                   	xchg   %eax,%ecx
    13ba:	bc 7f 12 07 00       	mov    $0x7127f,%esp
    13bf:	00 3c 07             	add    %bh,(%edi,%eax,1)
    13c2:	00 00                	add    %al,(%eax)
    13c4:	06                   	push   %es
    13c5:	00 53 93             	add    %dl,-0x6d(%ebx)
    13c8:	04 56                	add    $0x56,%al
    13ca:	93                   	xchg   %eax,%ebx
    13cb:	04 3c                	add    $0x3c,%al
    13cd:	07                   	pop    %es
    13ce:	00 00                	add    %al,(%eax)
    13d0:	8f 07                	popl   (%edi)
    13d2:	00 00                	add    %al,(%eax)
    13d4:	03 00                	add    (%eax),%eax
    13d6:	91                   	xchg   %eax,%ecx
    13d7:	bc 7f a6 07 00       	mov    $0x7a67f,%esp
    13dc:	00 c5                	add    %al,%ch
    13de:	07                   	pop    %es
    13df:	00 00                	add    %al,(%eax)
    13e1:	06                   	push   %es
    13e2:	00 53 93             	add    %dl,-0x6d(%ebx)
    13e5:	04 56                	add    $0x56,%al
    13e7:	93                   	xchg   %eax,%ebx
    13e8:	04 c5                	add    $0xc5,%al
    13ea:	07                   	pop    %es
    13eb:	00 00                	add    %al,(%eax)
    13ed:	2b 08                	sub    (%eax),%ecx
    13ef:	00 00                	add    %al,(%eax)
    13f1:	03 00                	add    (%eax),%eax
    13f3:	91                   	xchg   %eax,%ecx
    13f4:	bc 7f 41 08 00       	mov    $0x8417f,%esp
    13f9:	00 44 08 00          	add    %al,0x0(%eax,%ecx,1)
    13fd:	00 06                	add    %al,(%esi)
    13ff:	00 53 93             	add    %dl,-0x6d(%ebx)
    1402:	04 56                	add    $0x56,%al
    1404:	93                   	xchg   %eax,%ebx
    1405:	04 5d                	add    $0x5d,%al
    1407:	08 00                	or     %al,(%eax)
    1409:	00 e0                	add    %ah,%al
    140b:	08 00                	or     %al,(%eax)
    140d:	00 03                	add    %al,(%ebx)
    140f:	00 91 bc 7f 45 09    	add    %dl,0x9457fbc(%ecx)
    1415:	00 00                	add    %al,(%eax)
    1417:	81 09 00 00 0a 00    	orl    $0xa0000,(%ecx)
    141d:	9e                   	sahf   
    141e:	08 00                	or     %al,(%eax)
    1420:	00 00                	add    %al,(%eax)
    1422:	00 00                	add    %al,(%eax)
    1424:	00 00                	add    %al,(%eax)
    1426:	00 81 09 00 00 c4    	add    %al,-0x3bfffff7(%ecx)
    142c:	09 00                	or     %eax,(%eax)
    142e:	00 0a                	add    %cl,(%edx)
    1430:	00 9e 08 01 00 00    	add    %bl,0x108(%esi)
    1436:	00 00                	add    %al,(%eax)
    1438:	00 00                	add    %al,(%eax)
    143a:	00 c4                	add    %al,%ah
    143c:	09 00                	or     %eax,(%eax)
    143e:	00 d4                	add    %dl,%ah
    1440:	09 00                	or     %eax,(%eax)
    1442:	00 0a                	add    %cl,(%edx)
    1444:	00 9e 08 00 00 00    	add    %bl,0x8(%esi)
    144a:	00 00                	add    %al,(%eax)
    144c:	00 00                	add    %al,(%eax)
    144e:	00 dc                	add    %bl,%ah
    1450:	09 00                	or     %eax,(%eax)
    1452:	00 e6                	add    %ah,%dh
    1454:	09 00                	or     %eax,(%eax)
    1456:	00 02                	add    %al,(%edx)
    1458:	00 91 44 e6 09 00    	add    %dl,0x9e644(%ecx)
    145e:	00 f4                	add    %dh,%ah
    1460:	09 00                	or     %eax,(%eax)
    1462:	00 0a                	add    %cl,(%edx)
    1464:	00 9e 08 00 00 00    	add    %bl,0x8(%esi)
    146a:	00 00                	add    %al,(%eax)
    146c:	00 00                	add    %al,(%eax)
    146e:	00 f4                	add    %dh,%ah
    1470:	09 00                	or     %eax,(%eax)
    1472:	00 80 0a 00 00 02    	add    %al,0x200000a(%eax)
    1478:	00 91 44 93 0a 00    	add    %dl,0xa9344(%ecx)
    147e:	00 09                	add    %cl,(%ecx)
    1480:	0b 00                	or     (%eax),%eax
    1482:	00 02                	add    %al,(%edx)
    1484:	00 91 44 d5 0b 00    	add    %dl,0xbd544(%ecx)
    148a:	00 d7                	add    %dl,%bh
    148c:	0b 00                	or     (%eax),%eax
    148e:	00 03                	add    %al,(%ebx)
    1490:	00 91 bc 7f f0 0b    	add    %dl,0xbf07fbc(%ecx)
    1496:	00 00                	add    %al,(%eax)
    1498:	0f 0c                	(bad)  
    149a:	00 00                	add    %al,(%eax)
    149c:	03 00                	add    (%eax),%eax
    149e:	91                   	xchg   %eax,%ecx
    149f:	bc 7f 61 0e 00       	mov    $0xe617f,%esp
    14a4:	00 75 0e             	add    %dh,0xe(%ebp)
    14a7:	00 00                	add    %al,(%eax)
    14a9:	06                   	push   %es
    14aa:	00 53 93             	add    %dl,-0x6d(%ebx)
    14ad:	04 56                	add    $0x56,%al
    14af:	93                   	xchg   %eax,%ebx
    14b0:	04 75                	add    $0x75,%al
    14b2:	0e                   	push   %cs
    14b3:	00 00                	add    %al,(%eax)
    14b5:	ca 0e 00             	lret   $0xe
    14b8:	00 03                	add    %al,(%ebx)
    14ba:	00 91 bc 7f 00 00    	add    %dl,0x7fbc(%ecx)
    14c0:	00 00                	add    %al,(%eax)
    14c2:	00 00                	add    %al,(%eax)
    14c4:	00 00                	add    %al,(%eax)
    14c6:	36                   	ss
    14c7:	06                   	push   %es
    14c8:	00 00                	add    %al,(%eax)
    14ca:	67 06                	addr16 push %es
    14cc:	00 00                	add    %al,(%eax)
    14ce:	0a 00                	or     (%eax),%al
    14d0:	9e                   	sahf   
    14d1:	08 01                	or     %al,(%ecx)
    14d3:	00 00                	add    %al,(%eax)
    14d5:	00 00                	add    %al,(%eax)
    14d7:	00 00                	add    %al,(%eax)
    14d9:	00 67 06             	add    %ah,0x6(%edi)
    14dc:	00 00                	add    %al,(%eax)
    14de:	16                   	push   %ss
    14df:	09 00                	or     %eax,(%eax)
    14e1:	00 03                	add    %al,(%ebx)
    14e3:	00 91 8c 7f 61 0e    	add    %dl,0xe617f8c(%ecx)
    14e9:	00 00                	add    %al,(%eax)
    14eb:	ca 0e 00             	lret   $0xe
    14ee:	00 03                	add    %al,(%ebx)
    14f0:	00 91 8c 7f 00 00    	add    %dl,0x7f8c(%ecx)
    14f6:	00 00                	add    %al,(%eax)
    14f8:	00 00                	add    %al,(%eax)
    14fa:	00 00                	add    %al,(%eax)
    14fc:	91                   	xchg   %eax,%ecx
    14fd:	02 00                	add    (%eax),%al
    14ff:	00 de                	add    %bl,%dh
    1501:	02 00                	add    (%eax),%al
    1503:	00 06                	add    %al,(%esi)
    1505:	00 53 93             	add    %dl,-0x6d(%ebx)
    1508:	04 56                	add    $0x56,%al
    150a:	93                   	xchg   %eax,%ebx
    150b:	04 f6                	add    $0xf6,%al
    150d:	0b 00                	or     (%eax),%eax
    150f:	00 01                	add    %al,(%ecx)
    1511:	0c 00                	or     $0x0,%al
    1513:	00 06                	add    %al,(%esi)
    1515:	00 53 93             	add    %dl,-0x6d(%ebx)
    1518:	04 56                	add    $0x56,%al
    151a:	93                   	xchg   %eax,%ebx
    151b:	04 06                	add    $0x6,%al
    151d:	0c 00                	or     $0x0,%al
    151f:	00 0f                	add    %cl,(%edi)
    1521:	0c 00                	or     $0x0,%al
    1523:	00 06                	add    %al,(%esi)
    1525:	00 53 93             	add    %dl,-0x6d(%ebx)
    1528:	04 56                	add    $0x56,%al
    152a:	93                   	xchg   %eax,%ebx
    152b:	04 31                	add    $0x31,%al
    152d:	0c 00                	or     $0x0,%al
    152f:	00 3a                	add    %bh,(%edx)
    1531:	0c 00                	or     $0x0,%al
    1533:	00 06                	add    %al,(%esi)
    1535:	00 53 93             	add    %dl,-0x6d(%ebx)
    1538:	04 56                	add    $0x56,%al
    153a:	93                   	xchg   %eax,%ebx
    153b:	04 4d                	add    $0x4d,%al
    153d:	0c 00                	or     $0x0,%al
    153f:	00 df                	add    %bl,%bh
    1541:	0c 00                	or     $0x0,%al
    1543:	00 06                	add    %al,(%esi)
    1545:	00 53 93             	add    %dl,-0x6d(%ebx)
    1548:	04 56                	add    $0x56,%al
    154a:	93                   	xchg   %eax,%ebx
    154b:	04 e1                	add    $0xe1,%al
    154d:	0c 00                	or     $0x0,%al
    154f:	00 06                	add    %al,(%esi)
    1551:	0d 00 00 06 00       	or     $0x60000,%eax
    1556:	53                   	push   %ebx
    1557:	93                   	xchg   %eax,%ebx
    1558:	04 56                	add    $0x56,%al
    155a:	93                   	xchg   %eax,%ebx
    155b:	04 00                	add    $0x0,%al
    155d:	00 00                	add    %al,(%eax)
    155f:	00 00                	add    %al,(%eax)
    1561:	00 00                	add    %al,(%eax)
    1563:	00 e0                	add    %ah,%al
    1565:	00 00                	add    %al,(%eax)
    1567:	00 02                	add    %al,(%edx)
    1569:	01 00                	add    %eax,(%eax)
    156b:	00 02                	add    %al,(%edx)
    156d:	00 30                	add    %dh,(%eax)
    156f:	9f                   	lahf   
    1570:	02 01                	add    (%ecx),%al
    1572:	00 00                	add    %al,(%eax)
    1574:	09 01                	or     %eax,(%ecx)
    1576:	00 00                	add    %al,(%eax)
    1578:	01 00                	add    %eax,(%eax)
    157a:	50                   	push   %eax
    157b:	0f 01 00             	sgdtl  (%eax)
    157e:	00 2d 01 00 00 01    	add    %ch,0x1000001
    1584:	00 50 32             	add    %dl,0x32(%eax)
    1587:	01 00                	add    %eax,(%eax)
    1589:	00 3c 01             	add    %bh,(%ecx,%eax,1)
    158c:	00 00                	add    %al,(%eax)
    158e:	01 00                	add    %eax,(%eax)
    1590:	50                   	push   %eax
    1591:	3e 01 00             	add    %eax,%ds:(%eax)
    1594:	00 8a 02 00 00 01    	add    %cl,0x1000002(%edx)
    159a:	00 50 36             	add    %dl,0x36(%eax)
    159d:	04 00                	add    $0x0,%al
    159f:	00 45 04             	add    %al,0x4(%ebp)
    15a2:	00 00                	add    %al,(%eax)
    15a4:	01 00                	add    %eax,(%eax)
    15a6:	50                   	push   %eax
    15a7:	57                   	push   %edi
    15a8:	04 00                	add    $0x0,%al
    15aa:	00 ae 04 00 00 01    	add    %ch,0x1000004(%esi)
    15b0:	00 50 1c             	add    %dl,0x1c(%eax)
    15b3:	06                   	push   %es
    15b4:	00 00                	add    %al,(%eax)
    15b6:	39 06                	cmp    %eax,(%esi)
    15b8:	00 00                	add    %al,(%eax)
    15ba:	01 00                	add    %eax,(%eax)
    15bc:	50                   	push   %eax
    15bd:	16                   	push   %ss
    15be:	09 00                	or     %eax,(%eax)
    15c0:	00 1e                	add    %bl,(%esi)
    15c2:	09 00                	or     %eax,(%eax)
    15c4:	00 01                	add    %al,(%ecx)
    15c6:	00 50 09             	add    %dl,0x9(%eax)
    15c9:	0b 00                	or     (%eax),%eax
    15cb:	00 34 0b             	add    %dh,(%ebx,%ecx,1)
    15ce:	00 00                	add    %al,(%eax)
    15d0:	01 00                	add    %eax,(%eax)
    15d2:	50                   	push   %eax
    15d3:	41                   	inc    %ecx
    15d4:	0b 00                	or     (%eax),%eax
    15d6:	00 51 0b             	add    %dl,0xb(%ecx)
    15d9:	00 00                	add    %al,(%eax)
    15db:	01 00                	add    %eax,(%eax)
    15dd:	50                   	push   %eax
    15de:	81 0b 00 00 1b 0c    	orl    $0xc1b0000,(%ebx)
    15e4:	00 00                	add    %al,(%eax)
    15e6:	01 00                	add    %eax,(%eax)
    15e8:	50                   	push   %eax
    15e9:	30 0e                	xor    %cl,(%esi)
    15eb:	00 00                	add    %al,(%eax)
    15ed:	4a                   	dec    %edx
    15ee:	0e                   	push   %cs
    15ef:	00 00                	add    %al,(%eax)
    15f1:	01 00                	add    %eax,(%eax)
    15f3:	50                   	push   %eax
	...
    15fc:	e0 00                	loopne 15fe <thread_run-0xffea02>
    15fe:	00 00                	add    %al,(%eax)
    1600:	f6                   	(bad)  
    1601:	0b 00                	or     (%eax),%eax
    1603:	00 02                	add    %al,(%edx)
    1605:	00 30                	add    %dh,(%eax)
    1607:	9f                   	lahf   
    1608:	f6                   	(bad)  
    1609:	0b 00                	or     (%eax),%eax
    160b:	00 06                	add    %al,(%esi)
    160d:	0c 00                	or     $0x0,%al
    160f:	00 01                	add    %al,(%ecx)
    1611:	00 50 06             	add    %dl,0x6(%eax)
    1614:	0c 00                	or     $0x0,%al
    1616:	00 0f                	add    %cl,(%edi)
    1618:	0c 00                	or     $0x0,%al
    161a:	00 03                	add    %al,(%ebx)
    161c:	00 08                	add    %cl,(%eax)
    161e:	2d 9f 0f 0c 00       	sub    $0xc0f9f,%eax
    1623:	00 54 0c 00          	add    %dl,0x0(%esp,%ecx,1)
    1627:	00 02                	add    %al,(%edx)
    1629:	00 30                	add    %dh,(%eax)
    162b:	9f                   	lahf   
    162c:	54                   	push   %esp
    162d:	0c 00                	or     $0x0,%al
    162f:	00 30                	add    %dh,(%eax)
    1631:	0e                   	push   %cs
    1632:	00 00                	add    %al,(%eax)
    1634:	03 00                	add    (%eax),%eax
    1636:	91                   	xchg   %eax,%ecx
    1637:	9c                   	pushf  
    1638:	7f 30                	jg     166a <thread_run-0xffe996>
    163a:	0e                   	push   %cs
    163b:	00 00                	add    %al,(%eax)
    163d:	51                   	push   %ecx
    163e:	0e                   	push   %cs
    163f:	00 00                	add    %al,(%eax)
    1641:	02 00                	add    (%eax),%al
    1643:	30 9f 61 0e 00 00    	xor    %bl,0xe61(%edi)
    1649:	ca 0e 00             	lret   $0xe
    164c:	00 02                	add    %al,(%edx)
    164e:	00 30                	add    %dh,(%eax)
    1650:	9f                   	lahf   
	...
    1659:	e0 00                	loopne 165b <thread_run-0xffe9a5>
    165b:	00 00                	add    %al,(%eax)
    165d:	02 01                	add    (%ecx),%al
    165f:	00 00                	add    %al,(%eax)
    1661:	02 00                	add    (%eax),%al
    1663:	30 9f 02 01 00 00    	xor    %bl,0x102(%edi)
    1669:	0c 01                	or     $0x1,%al
    166b:	00 00                	add    %al,(%eax)
    166d:	02 00                	add    (%eax),%al
    166f:	91                   	xchg   %eax,%ecx
    1670:	44                   	inc    %esp
    1671:	0f 01 00             	sgdtl  (%eax)
    1674:	00 54 0e 00          	add    %dl,0x0(%esi,%ecx,1)
    1678:	00 02                	add    %al,(%edx)
    167a:	00 91 44 61 0e 00    	add    %dl,0xe6144(%ecx)
    1680:	00 ca                	add    %cl,%dl
    1682:	0e                   	push   %cs
    1683:	00 00                	add    %al,(%eax)
    1685:	02 00                	add    (%eax),%al
    1687:	91                   	xchg   %eax,%ecx
    1688:	44                   	inc    %esp
	...
    1691:	23 02                	and    (%edx),%eax
    1693:	00 00                	add    %al,(%eax)
    1695:	12 0b                	adc    (%ebx),%cl
    1697:	00 00                	add    %al,(%eax)
    1699:	02 00                	add    (%eax),%al
    169b:	30 9f 12 0b 00 00    	xor    %bl,0xb12(%edi)
    16a1:	1c 0b                	sbb    $0xb,%al
    16a3:	00 00                	add    %al,(%eax)
    16a5:	05 00 03 34 39       	add    $0x39340300,%eax
    16aa:	00 01                	add    %al,(%ecx)
    16ac:	1c 0b                	sbb    $0xb,%al
    16ae:	00 00                	add    %al,(%eax)
    16b0:	25 0b 00 00 02       	and    $0x200000b,%eax
    16b5:	00 30                	add    %dh,(%eax)
    16b7:	9f                   	lahf   
    16b8:	25 0b 00 00 2f       	and    $0x2f00000b,%eax
    16bd:	0b 00                	or     (%eax),%eax
    16bf:	00 05 00 03 34 39    	add    %al,0x39340300
    16c5:	00 01                	add    %al,(%ecx)
    16c7:	2f                   	das    
    16c8:	0b 00                	or     (%eax),%eax
    16ca:	00 37                	add    %dh,(%edi)
    16cc:	0b 00                	or     (%eax),%eax
    16ce:	00 02                	add    %al,(%edx)
    16d0:	00 30                	add    %dh,(%eax)
    16d2:	9f                   	lahf   
    16d3:	37                   	aaa    
    16d4:	0b 00                	or     (%eax),%eax
    16d6:	00 41 0b             	add    %al,0xb(%ecx)
    16d9:	00 00                	add    %al,(%eax)
    16db:	05 00 03 34 39       	add    $0x39340300,%eax
    16e0:	00 01                	add    %al,(%ecx)
    16e2:	41                   	inc    %ecx
    16e3:	0b 00                	or     (%eax),%eax
    16e5:	00 77 0b             	add    %dh,0xb(%edi)
    16e8:	00 00                	add    %al,(%eax)
    16ea:	02 00                	add    (%eax),%al
    16ec:	30 9f 77 0b 00 00    	xor    %bl,0xb77(%edi)
    16f2:	81 0b 00 00 05 00    	orl    $0x50000,(%ebx)
    16f8:	03 34 39             	add    (%ecx,%edi,1),%esi
    16fb:	00 01                	add    %al,(%ecx)
    16fd:	81 0b 00 00 8a 0b    	orl    $0xb8a0000,(%ebx)
    1703:	00 00                	add    %al,(%eax)
    1705:	02 00                	add    (%eax),%al
    1707:	30 9f 8a 0b 00 00    	xor    %bl,0xb8a(%edi)
    170d:	91                   	xchg   %eax,%ecx
    170e:	0b 00                	or     (%eax),%eax
    1710:	00 05 00 03 34 39    	add    %al,0x39340300
    1716:	00 01                	add    %al,(%ecx)
    1718:	91                   	xchg   %eax,%ecx
    1719:	0b 00                	or     (%eax),%eax
    171b:	00 9a 0b 00 00 02    	add    %bl,0x200000b(%edx)
    1721:	00 30                	add    %dh,(%eax)
    1723:	9f                   	lahf   
    1724:	9a 0b 00 00 9f 0b 00 	lcall  $0xb,$0x9f00000b
    172b:	00 05 00 03 34 39    	add    %al,0x39340300
    1731:	00 01                	add    %al,(%ecx)
    1733:	9f                   	lahf   
    1734:	0b 00                	or     (%eax),%eax
    1736:	00 a8 0b 00 00 02    	add    %ch,0x200000b(%eax)
    173c:	00 30                	add    %dh,(%eax)
    173e:	9f                   	lahf   
    173f:	a8 0b                	test   $0xb,%al
    1741:	00 00                	add    %al,(%eax)
    1743:	ad                   	lods   %ds:(%esi),%eax
    1744:	0b 00                	or     (%eax),%eax
    1746:	00 05 00 03 34 39    	add    %al,0x39340300
    174c:	00 01                	add    %al,(%ecx)
    174e:	ad                   	lods   %ds:(%esi),%eax
    174f:	0b 00                	or     (%eax),%eax
    1751:	00 b9 0b 00 00 02    	add    %bh,0x200000b(%ecx)
    1757:	00 30                	add    %dh,(%eax)
    1759:	9f                   	lahf   
    175a:	b9 0b 00 00 0f       	mov    $0xf00000b,%ecx
    175f:	0c 00                	or     $0x0,%al
    1761:	00 03                	add    %al,(%ebx)
    1763:	00 91 ac 7f 0f 0c    	add    %dl,0xc0f7fac(%ecx)
    1769:	00 00                	add    %al,(%eax)
    176b:	1b 0c 00             	sbb    (%eax,%eax,1),%ecx
    176e:	00 02                	add    %al,(%edx)
    1770:	00 30                	add    %dh,(%eax)
    1772:	9f                   	lahf   
    1773:	1b 0c 00             	sbb    (%eax,%eax,1),%ecx
    1776:	00 30                	add    %dh,(%eax)
    1778:	0e                   	push   %cs
    1779:	00 00                	add    %al,(%eax)
    177b:	03 00                	add    (%eax),%eax
    177d:	91                   	xchg   %eax,%ecx
    177e:	ac                   	lods   %ds:(%esi),%al
    177f:	7f 30                	jg     17b1 <thread_run-0xffe84f>
    1781:	0e                   	push   %cs
    1782:	00 00                	add    %al,(%eax)
    1784:	51                   	push   %ecx
    1785:	0e                   	push   %cs
    1786:	00 00                	add    %al,(%eax)
    1788:	02 00                	add    (%eax),%al
    178a:	30 9f 61 0e 00 00    	xor    %bl,0xe61(%edi)
    1790:	ca 0e 00             	lret   $0xe
    1793:	00 02                	add    %al,(%edx)
    1795:	00 30                	add    %dh,(%eax)
    1797:	9f                   	lahf   
	...
    17a0:	a6                   	cmpsb  %es:(%edi),%ds:(%esi)
    17a1:	02 00                	add    (%eax),%al
    17a3:	00 bb 02 00 00 01    	add    %bh,0x1000002(%ebx)
    17a9:	00 51 bb             	add    %dl,-0x45(%ecx)
    17ac:	02 00                	add    (%eax),%al
    17ae:	00 36                	add    %dh,(%esi)
    17b0:	04 00                	add    $0x0,%al
    17b2:	00 03                	add    %al,(%ebx)
    17b4:	00 91 a8 7f b9 0b    	add    %dl,0xbb97fa8(%ecx)
    17ba:	00 00                	add    %al,(%eax)
    17bc:	0f 0c                	(bad)  
    17be:	00 00                	add    %al,(%eax)
    17c0:	01 00                	add    %eax,(%eax)
    17c2:	51                   	push   %ecx
    17c3:	1b 0c 00             	sbb    (%eax,%eax,1),%ecx
    17c6:	00 9d 0c 00 00 01    	add    %bl,0x100000c(%ebp)
    17cc:	00 51 9d             	add    %dl,-0x63(%ecx)
    17cf:	0c 00                	or     $0x0,%al
    17d1:	00 30                	add    %dh,(%eax)
    17d3:	0e                   	push   %cs
    17d4:	00 00                	add    %al,(%eax)
    17d6:	02 00                	add    (%eax),%al
    17d8:	91                   	xchg   %eax,%ecx
    17d9:	44                   	inc    %esp
	...
    17e2:	2a 03                	sub    (%ebx),%al
    17e4:	00 00                	add    %al,(%eax)
    17e6:	2e 03 00             	add    %cs:(%eax),%eax
    17e9:	00 02                	add    %al,(%edx)
    17eb:	00 73 00             	add    %dh,0x0(%ebx)
    17ee:	2e 03 00             	add    %cs:(%eax),%eax
    17f1:	00 39                	add    %bh,(%ecx)
    17f3:	03 00                	add    (%eax),%eax
    17f5:	00 01                	add    %al,(%ecx)
    17f7:	00 50 40             	add    %dl,0x40(%eax)
    17fa:	03 00                	add    (%eax),%eax
    17fc:	00 44 03 00          	add    %al,0x0(%ebx,%eax,1)
    1800:	00 02                	add    %al,(%edx)
    1802:	00 73 00             	add    %dh,0x0(%ebx)
    1805:	44                   	inc    %esp
    1806:	03 00                	add    (%eax),%eax
    1808:	00 4f 03             	add    %cl,0x3(%edi)
    180b:	00 00                	add    %al,(%eax)
    180d:	01 00                	add    %eax,(%eax)
    180f:	50                   	push   %eax
    1810:	c9                   	leave  
    1811:	03 00                	add    (%eax),%eax
    1813:	00 cf                	add    %cl,%bh
    1815:	03 00                	add    (%eax),%eax
    1817:	00 02                	add    %al,(%edx)
    1819:	00 73 00             	add    %dh,0x0(%ebx)
    181c:	e5 03                	in     $0x3,%eax
    181e:	00 00                	add    %al,(%eax)
    1820:	f0 03 00             	lock add (%eax),%eax
    1823:	00 01                	add    %al,(%ecx)
    1825:	00 50 f7             	add    %dl,-0x9(%eax)
    1828:	03 00                	add    (%eax),%eax
    182a:	00 fd                	add    %bh,%ch
    182c:	03 00                	add    (%eax),%eax
    182e:	00 02                	add    %al,(%edx)
    1830:	00 73 00             	add    %dh,0x0(%ebx)
    1833:	3f                   	aas    
    1834:	04 00                	add    $0x0,%al
    1836:	00 51 04             	add    %dl,0x4(%ecx)
    1839:	00 00                	add    %al,(%eax)
    183b:	04 00                	add    $0x0,%al
    183d:	91                   	xchg   %eax,%ecx
    183e:	bc 7f 06 00 00       	mov    $0x67f,%esp
    1843:	00 00                	add    %al,(%eax)
    1845:	00 00                	add    %al,(%eax)
    1847:	00 00                	add    %al,(%eax)
    1849:	e0 00                	loopne 184b <thread_run-0xffe7b5>
    184b:	00 00                	add    %al,(%eax)
    184d:	15 02 00 00 02       	adc    $0x2000002,%eax
    1852:	00 30                	add    %dh,(%eax)
    1854:	9f                   	lahf   
    1855:	18 02                	sbb    %al,(%edx)
    1857:	00 00                	add    %al,(%eax)
    1859:	23 02                	and    (%edx),%eax
    185b:	00 00                	add    %al,(%eax)
    185d:	01 00                	add    %eax,(%eax)
    185f:	53                   	push   %ebx
	...
    1868:	54                   	push   %esp
    1869:	0c 00                	or     $0x0,%al
    186b:	00 9d 0c 00 00 03    	add    %bl,0x300000c(%ebp)
    1871:	00 91 fc 7e 9d 0c    	add    %dl,0xc9d7efc(%ecx)
    1877:	00 00                	add    %al,(%eax)
    1879:	ed                   	in     (%dx),%eax
    187a:	0c 00                	or     $0x0,%al
    187c:	00 01                	add    %al,(%ecx)
    187e:	00 57 ed             	add    %dl,-0x13(%edi)
    1881:	0c 00                	or     $0x0,%al
    1883:	00 de                	add    %bl,%dh
    1885:	0d 00 00 03 00       	or     $0x30000,%eax
    188a:	91                   	xchg   %eax,%ecx
    188b:	ac                   	lods   %ds:(%esi),%al
    188c:	7f de                	jg     186c <thread_run-0xffe794>
    188e:	0d 00 00 0b 0e       	or     $0xe0b0000,%eax
    1893:	00 00                	add    %al,(%eax)
    1895:	01 00                	add    %eax,(%eax)
    1897:	53                   	push   %ebx
	...
    18a0:	54                   	push   %esp
    18a1:	0c 00                	or     $0x0,%al
    18a3:	00 9d 0c 00 00 02    	add    %bl,0x200000c(%ebp)
    18a9:	00 30                	add    %dh,(%eax)
    18ab:	9f                   	lahf   
    18ac:	9d                   	popf   
    18ad:	0c 00                	or     $0x0,%al
    18af:	00 83 0d 00 00 03    	add    %al,0x300000d(%ebx)
    18b5:	00 91 bc 7f 83 0d    	add    %dl,0xd837fbc(%ecx)
    18bb:	00 00                	add    %al,(%eax)
    18bd:	9c                   	pushf  
    18be:	0d 00 00 01 00       	or     $0x10000,%eax
    18c3:	53                   	push   %ebx
	...
    18cc:	a0 02 00 00 a6       	mov    0xa6000002,%al
    18d1:	02 00                	add    (%eax),%al
    18d3:	00 06                	add    %al,(%esi)
    18d5:	00 91 bc 7f 06 23    	add    %dl,0x23067fbc(%ecx)
    18db:	04 a6                	add    $0xa6,%al
    18dd:	02 00                	add    (%eax),%al
    18df:	00 bb 02 00 00 0a    	add    %bh,0xa000002(%ebx)
    18e5:	00 91 bc 7f 06 23    	add    %dl,0x23067fbc(%ecx)
    18eb:	04 06                	add    $0x6,%al
    18ed:	23 01                	and    (%ecx),%eax
    18ef:	9f                   	lahf   
    18f0:	bb 02 00 00 e9       	mov    $0xe9000002,%ebx
    18f5:	02 00                	add    (%eax),%al
    18f7:	00 06                	add    %al,(%esi)
    18f9:	00 91 44 06 23 01    	add    %dl,0x1230644(%ecx)
    18ff:	9f                   	lahf   
    1900:	e9 02 00 00 ec       	jmp    ec001907 <_end+0xeaffdfbb>
    1905:	02 00                	add    (%eax),%al
    1907:	00 03                	add    %al,(%ebx)
    1909:	00 73 01             	add    %dh,0x1(%ebx)
    190c:	9f                   	lahf   
    190d:	ec                   	in     (%dx),%al
    190e:	02 00                	add    (%eax),%al
    1910:	00 e5                	add    %ah,%ch
    1912:	03 00                	add    (%eax),%eax
    1914:	00 01                	add    %al,(%ecx)
    1916:	00 53 f4             	add    %dl,-0xc(%ebx)
    1919:	03 00                	add    (%eax),%eax
    191b:	00 fd                	add    %bh,%ch
    191d:	03 00                	add    (%eax),%eax
    191f:	00 01                	add    %al,(%ecx)
    1921:	00 53 00             	add    %dl,0x0(%ebx)
    1924:	04 00                	add    $0x0,%al
    1926:	00 0b                	add    %cl,(%ebx)
    1928:	04 00                	add    $0x0,%al
    192a:	00 01                	add    %al,(%ecx)
    192c:	00 53 0b             	add    %dl,0xb(%ebx)
    192f:	04 00                	add    $0x0,%al
    1931:	00 36                	add    %dh,(%esi)
    1933:	04 00                	add    $0x0,%al
    1935:	00 03                	add    %al,(%ebx)
    1937:	00 73 01             	add    %dh,0x1(%ebx)
    193a:	9f                   	lahf   
	...
    1943:	e9 02 00 00 17       	jmp    1700194a <_end+0x15ffdffe>
    1948:	03 00                	add    (%eax),%eax
    194a:	00 03                	add    %al,(%ebx)
    194c:	00 91 ac 7f 17 03    	add    %dl,0x3177fac(%ecx)
    1952:	00 00                	add    %al,(%eax)
    1954:	1e                   	push   %ds
    1955:	03 00                	add    (%eax),%eax
    1957:	00 02                	add    %al,(%edx)
    1959:	00 31                	add    %dh,(%ecx)
    195b:	9f                   	lahf   
    195c:	1e                   	push   %ds
    195d:	03 00                	add    (%eax),%eax
    195f:	00 dc                	add    %bl,%ah
    1961:	03 00                	add    (%eax),%eax
    1963:	00 03                	add    %al,(%ebx)
    1965:	00 91 ac 7f dc 03    	add    %dl,0x3dc7fac(%ecx)
    196b:	00 00                	add    %al,(%eax)
    196d:	e5 03                	in     $0x3,%eax
    196f:	00 00                	add    %al,(%eax)
    1971:	02 00                	add    (%eax),%al
    1973:	31 9f e5 03 00 00    	xor    %ebx,0x3e5(%edi)
    1979:	36                   	ss
    197a:	04 00                	add    $0x0,%al
    197c:	00 03                	add    %al,(%ebx)
    197e:	00 91 ac 7f 00 00    	add    %dl,0x7fac(%ecx)
    1984:	00 00                	add    %al,(%eax)
    1986:	00 00                	add    %al,(%eax)
    1988:	00 00                	add    %al,(%eax)
    198a:	e9 02 00 00 07       	jmp    7001991 <_end+0x5ffe045>
    198f:	03 00                	add    (%eax),%eax
    1991:	00 01                	add    %al,(%ecx)
    1993:	00 52 07             	add    %dl,0x7(%edx)
    1996:	03 00                	add    (%eax),%eax
    1998:	00 05 04 00 00 02    	add    %al,0x2000004
    199e:	00 91 44 0b 04 00    	add    %dl,0x40b44(%ecx)
    19a4:	00 30                	add    %dh,(%eax)
    19a6:	04 00                	add    $0x0,%al
    19a8:	00 01                	add    %al,(%ecx)
    19aa:	00 52 30             	add    %dl,0x30(%edx)
    19ad:	04 00                	add    $0x0,%al
    19af:	00 36                	add    %dh,(%esi)
    19b1:	04 00                	add    $0x0,%al
    19b3:	00 02                	add    %al,(%edx)
    19b5:	00 91 44 00 00 00    	add    %dl,0x44(%ecx)
    19bb:	00 00                	add    %al,(%eax)
    19bd:	00 00                	add    %al,(%eax)
    19bf:	00 24 03             	add    %ah,(%ebx,%eax,1)
    19c2:	00 00                	add    %al,(%eax)
    19c4:	2e 03 00             	add    %cs:(%eax),%eax
    19c7:	00 01                	add    %al,(%ecx)
    19c9:	00 52 2e             	add    %dl,0x2e(%edx)
    19cc:	03 00                	add    (%eax),%eax
    19ce:	00 93 03 00 00 03    	add    %dl,0x3000003(%ebx)
    19d4:	00 91 bc 7f 00 00    	add    %dl,0x7fbc(%ecx)
    19da:	00 00                	add    %al,(%eax)
    19dc:	00 00                	add    %al,(%eax)
    19de:	00 00                	add    %al,(%eax)
    19e0:	2f                   	das    
    19e1:	09 00                	or     %eax,(%eax)
    19e3:	00 39                	add    %bh,(%ecx)
    19e5:	09 00                	or     %eax,(%eax)
    19e7:	00 04 00             	add    %al,(%eax,%eax,1)
    19ea:	91                   	xchg   %eax,%ecx
    19eb:	bc 7f 06 39 09       	mov    $0x939067f,%esp
    19f0:	00 00                	add    %al,(%eax)
    19f2:	d4 09                	aam    $0x9
    19f4:	00 00                	add    %al,(%eax)
    19f6:	01 00                	add    %eax,(%eax)
    19f8:	53                   	push   %ebx
    19f9:	d4 09                	aam    $0x9
    19fb:	00 00                	add    %al,(%eax)
    19fd:	e6 09                	out    %al,$0x9
    19ff:	00 00                	add    %al,(%eax)
    1a01:	01 00                	add    %eax,(%eax)
    1a03:	50                   	push   %eax
    1a04:	e6 09                	out    %al,$0x9
    1a06:	00 00                	add    %al,(%eax)
    1a08:	f4                   	hlt    
    1a09:	09 00                	or     %eax,(%eax)
    1a0b:	00 01                	add    %al,(%ecx)
    1a0d:	00 53 1d             	add    %dl,0x1d(%ebx)
    1a10:	0a 00                	or     (%eax),%al
    1a12:	00 32                	add    %dh,(%edx)
    1a14:	0a 00                	or     (%eax),%al
    1a16:	00 01                	add    %al,(%ecx)
    1a18:	00 50 66             	add    %dl,0x66(%eax)
    1a1b:	0a 00                	or     (%eax),%al
    1a1d:	00 a4 0a 00 00 01 00 	add    %ah,0x10000(%edx,%ecx,1)
    1a24:	53                   	push   %ebx
	...
    1a31:	01 00                	add    %eax,(%eax)
    1a33:	00 00                	add    %al,(%eax)
    1a35:	02 00                	add    (%eax),%al
    1a37:	74 04                	je     1a3d <thread_run-0xffe5c3>
    1a39:	01 00                	add    %eax,(%eax)
    1a3b:	00 00                	add    %al,(%eax)
    1a3d:	03 00                	add    (%eax),%eax
    1a3f:	00 00                	add    %al,(%eax)
    1a41:	02 00                	add    (%eax),%al
    1a43:	74 08                	je     1a4d <thread_run-0xffe5b3>
    1a45:	03 00                	add    (%eax),%eax
    1a47:	00 00                	add    %al,(%eax)
    1a49:	16                   	push   %ss
    1a4a:	00 00                	add    %al,(%eax)
    1a4c:	00 02                	add    %al,(%edx)
    1a4e:	00 75 08             	add    %dh,0x8(%ebp)
	...
    1a5d:	01 00                	add    %eax,(%eax)
    1a5f:	00 00                	add    %al,(%eax)
    1a61:	02 00                	add    (%eax),%al
    1a63:	74 04                	je     1a69 <thread_run-0xffe597>
    1a65:	01 00                	add    %eax,(%eax)
    1a67:	00 00                	add    %al,(%eax)
    1a69:	03 00                	add    (%eax),%eax
    1a6b:	00 00                	add    %al,(%eax)
    1a6d:	02 00                	add    (%eax),%al
    1a6f:	74 08                	je     1a79 <thread_run-0xffe587>
    1a71:	03 00                	add    (%eax),%eax
    1a73:	00 00                	add    %al,(%eax)
    1a75:	22 00                	and    (%eax),%al
    1a77:	00 00                	add    %al,(%eax)
    1a79:	02 00                	add    (%eax),%al
    1a7b:	75 08                	jne    1a85 <thread_run-0xffe57b>
    1a7d:	22 00                	and    (%eax),%al
    1a7f:	00 00                	add    %al,(%eax)
    1a81:	23 00                	and    (%eax),%eax
    1a83:	00 00                	add    %al,(%eax)
    1a85:	02 00                	add    (%eax),%al
    1a87:	74 04                	je     1a8d <thread_run-0xffe573>
	...
    1a95:	0d 00 00 00 02       	or     $0x2000000,%eax
    1a9a:	00 91 08 0d 00 00    	add    %dl,0xd08(%ecx)
    1aa0:	00 16                	add    %dl,(%esi)
    1aa2:	00 00                	add    %al,(%eax)
    1aa4:	00 06                	add    %al,(%esi)
    1aa6:	00 91 08 06 31 1c    	add    %dl,0x1c310608(%ecx)
    1aac:	9f                   	lahf   
	...
    1ab5:	0d 00 00 00 16       	or     $0x16000000,%eax
    1aba:	00 00                	add    %al,(%eax)
    1abc:	00 02                	add    %al,(%edx)
    1abe:	00 91 00 00 00 00    	add    %dl,0x0(%ecx)
	...
    1acc:	00 01                	add    %al,(%ecx)
    1ace:	00 00                	add    %al,(%eax)
    1ad0:	00 02                	add    %al,(%edx)
    1ad2:	00 74 04 01          	add    %dh,0x1(%esp,%eax,1)
    1ad6:	00 00                	add    %al,(%eax)
    1ad8:	00 03                	add    %al,(%ebx)
    1ada:	00 00                	add    %al,(%eax)
    1adc:	00 02                	add    %al,(%edx)
    1ade:	00 74 08 03          	add    %dh,0x3(%eax,%ecx,1)
    1ae2:	00 00                	add    %al,(%eax)
    1ae4:	00 17                	add    %dl,(%edi)
    1ae6:	00 00                	add    %al,(%eax)
    1ae8:	00 02                	add    %al,(%edx)
    1aea:	00 75 08             	add    %dh,0x8(%ebp)
    1aed:	17                   	pop    %ss
    1aee:	00 00                	add    %al,(%eax)
    1af0:	00 18                	add    %bl,(%eax)
    1af2:	00 00                	add    %al,(%eax)
    1af4:	00 02                	add    %al,(%edx)
    1af6:	00 74 04 00          	add    %dh,0x0(%esp,%eax,1)
	...
    1b02:	00 00                	add    %al,(%eax)
    1b04:	00 08                	add    %cl,(%eax)
    1b06:	00 00                	add    %al,(%eax)
    1b08:	00 02                	add    %al,(%edx)
    1b0a:	00 91 00 08 00 00    	add    %dl,0x800(%ecx)
    1b10:	00 0b                	add    %cl,(%ebx)
    1b12:	00 00                	add    %al,(%eax)
    1b14:	00 01                	add    %al,(%ecx)
    1b16:	00 50 0b             	add    %dl,0xb(%eax)
    1b19:	00 00                	add    %al,(%eax)
    1b1b:	00 18                	add    %bl,(%eax)
    1b1d:	00 00                	add    %al,(%eax)
    1b1f:	00 01                	add    %al,(%ecx)
    1b21:	00 52 00             	add    %dl,0x0(%edx)
	...
    1b2c:	00 00                	add    %al,(%eax)
    1b2e:	00 01                	add    %al,(%ecx)
    1b30:	00 00                	add    %al,(%eax)
    1b32:	00 02                	add    %al,(%edx)
    1b34:	00 74 04 01          	add    %dh,0x1(%esp,%eax,1)
    1b38:	00 00                	add    %al,(%eax)
    1b3a:	00 03                	add    %al,(%ebx)
    1b3c:	00 00                	add    %al,(%eax)
    1b3e:	00 02                	add    %al,(%edx)
    1b40:	00 74 08 03          	add    %dh,0x3(%eax,%ecx,1)
    1b44:	00 00                	add    %al,(%eax)
    1b46:	00 1b                	add    %bl,(%ebx)
    1b48:	00 00                	add    %al,(%eax)
    1b4a:	00 02                	add    %al,(%edx)
    1b4c:	00 75 08             	add    %dh,0x8(%ebp)
    1b4f:	1b 00                	sbb    (%eax),%eax
    1b51:	00 00                	add    %al,(%eax)
    1b53:	1c 00                	sbb    $0x0,%al
    1b55:	00 00                	add    %al,(%eax)
    1b57:	02 00                	add    (%eax),%al
    1b59:	74 04                	je     1b5f <thread_run-0xffe4a1>
	...
    1b63:	1c 00                	sbb    $0x0,%al
    1b65:	00 00                	add    %al,(%eax)
    1b67:	1d 00 00 00 02       	sbb    $0x2000000,%eax
    1b6c:	00 74 04 1d          	add    %dh,0x1d(%esp,%eax,1)
    1b70:	00 00                	add    %al,(%eax)
    1b72:	00 1f                	add    %bl,(%edi)
    1b74:	00 00                	add    %al,(%eax)
    1b76:	00 02                	add    %al,(%edx)
    1b78:	00 74 08 1f          	add    %dh,0x1f(%eax,%ecx,1)
    1b7c:	00 00                	add    %al,(%eax)
    1b7e:	00 43 00             	add    %al,0x0(%ebx)
    1b81:	00 00                	add    %al,(%eax)
    1b83:	02 00                	add    (%eax),%al
    1b85:	75 08                	jne    1b8f <thread_run-0xffe471>
    1b87:	43                   	inc    %ebx
    1b88:	00 00                	add    %al,(%eax)
    1b8a:	00 44 00 00          	add    %al,0x0(%eax,%eax,1)
    1b8e:	00 02                	add    %al,(%edx)
    1b90:	00 74 04 00          	add    %dh,0x0(%esp,%eax,1)
    1b94:	00 00                	add    %al,(%eax)
    1b96:	00 00                	add    %al,(%eax)
    1b98:	00 00                	add    %al,(%eax)
    1b9a:	00 44 00 00          	add    %al,0x0(%eax,%eax,1)
    1b9e:	00 45 00             	add    %al,0x0(%ebp)
    1ba1:	00 00                	add    %al,(%eax)
    1ba3:	02 00                	add    (%eax),%al
    1ba5:	74 04                	je     1bab <thread_run-0xffe455>
    1ba7:	45                   	inc    %ebp
    1ba8:	00 00                	add    %al,(%eax)
    1baa:	00 47 00             	add    %al,0x0(%edi)
    1bad:	00 00                	add    %al,(%eax)
    1baf:	02 00                	add    (%eax),%al
    1bb1:	74 08                	je     1bbb <thread_run-0xffe445>
    1bb3:	47                   	inc    %edi
    1bb4:	00 00                	add    %al,(%eax)
    1bb6:	00 79 00             	add    %bh,0x0(%ecx)
    1bb9:	00 00                	add    %al,(%eax)
    1bbb:	02 00                	add    (%eax),%al
    1bbd:	75 08                	jne    1bc7 <thread_run-0xffe439>
    1bbf:	79 00                	jns    1bc1 <thread_run-0xffe43f>
    1bc1:	00 00                	add    %al,(%eax)
    1bc3:	7a 00                	jp     1bc5 <thread_run-0xffe43b>
    1bc5:	00 00                	add    %al,(%eax)
    1bc7:	02 00                	add    (%eax),%al
    1bc9:	74 04                	je     1bcf <thread_run-0xffe431>
	...
    1bd3:	7a 00                	jp     1bd5 <thread_run-0xffe42b>
    1bd5:	00 00                	add    %al,(%eax)
    1bd7:	7b 00                	jnp    1bd9 <thread_run-0xffe427>
    1bd9:	00 00                	add    %al,(%eax)
    1bdb:	02 00                	add    (%eax),%al
    1bdd:	74 04                	je     1be3 <thread_run-0xffe41d>
    1bdf:	7b 00                	jnp    1be1 <thread_run-0xffe41f>
    1be1:	00 00                	add    %al,(%eax)
    1be3:	7d 00                	jge    1be5 <thread_run-0xffe41b>
    1be5:	00 00                	add    %al,(%eax)
    1be7:	02 00                	add    (%eax),%al
    1be9:	74 08                	je     1bf3 <thread_run-0xffe40d>
    1beb:	7d 00                	jge    1bed <thread_run-0xffe413>
    1bed:	00 00                	add    %al,(%eax)
    1bef:	d2 00                	rolb   %cl,(%eax)
    1bf1:	00 00                	add    %al,(%eax)
    1bf3:	02 00                	add    (%eax),%al
    1bf5:	75 08                	jne    1bff <thread_run-0xffe401>
    1bf7:	d2 00                	rolb   %cl,(%eax)
    1bf9:	00 00                	add    %al,(%eax)
    1bfb:	d3 00                	roll   %cl,(%eax)
    1bfd:	00 00                	add    %al,(%eax)
    1bff:	02 00                	add    (%eax),%al
    1c01:	74 08                	je     1c0b <thread_run-0xffe3f5>
    1c03:	d3 00                	roll   %cl,(%eax)
    1c05:	00 00                	add    %al,(%eax)
    1c07:	d4 00                	aam    $0x0
    1c09:	00 00                	add    %al,(%eax)
    1c0b:	02 00                	add    (%eax),%al
    1c0d:	74 04                	je     1c13 <thread_run-0xffe3ed>
	...
    1c17:	b8 00 00 00 c7       	mov    $0xc7000000,%eax
    1c1c:	00 00                	add    %al,(%eax)
    1c1e:	00 01                	add    %al,(%ecx)
    1c20:	00 50 c7             	add    %dl,-0x39(%eax)
    1c23:	00 00                	add    %al,(%eax)
    1c25:	00 c8                	add    %cl,%al
    1c27:	00 00                	add    %al,(%eax)
    1c29:	00 01                	add    %al,(%ecx)
    1c2b:	00 53 00             	add    %dl,0x0(%ebx)
	...
    1c36:	00 00                	add    %al,(%eax)
    1c38:	00 01                	add    %al,(%ecx)
    1c3a:	00 00                	add    %al,(%eax)
    1c3c:	00 02                	add    %al,(%edx)
    1c3e:	00 74 04 01          	add    %dh,0x1(%esp,%eax,1)
    1c42:	00 00                	add    %al,(%eax)
    1c44:	00 03                	add    %al,(%ebx)
    1c46:	00 00                	add    %al,(%eax)
    1c48:	00 02                	add    %al,(%edx)
    1c4a:	00 74 08 03          	add    %dh,0x3(%eax,%ecx,1)
    1c4e:	00 00                	add    %al,(%eax)
    1c50:	00 62 00             	add    %ah,0x0(%edx)
    1c53:	00 00                	add    %al,(%eax)
    1c55:	02 00                	add    (%eax),%al
    1c57:	75 08                	jne    1c61 <thread_run-0xffe39f>
    1c59:	62 00                	bound  %eax,(%eax)
    1c5b:	00 00                	add    %al,(%eax)
    1c5d:	63 00                	arpl   %ax,(%eax)
    1c5f:	00 00                	add    %al,(%eax)
    1c61:	02 00                	add    (%eax),%al
    1c63:	74 08                	je     1c6d <thread_run-0xffe393>
    1c65:	63 00                	arpl   %ax,(%eax)
    1c67:	00 00                	add    %al,(%eax)
    1c69:	64 00 00             	add    %al,%fs:(%eax)
    1c6c:	00 02                	add    %al,(%edx)
    1c6e:	00 74 04 00          	add    %dh,0x0(%esp,%eax,1)
	...
    1c7a:	00 00                	add    %al,(%eax)
    1c7c:	00 32                	add    %dh,(%edx)
    1c7e:	00 00                	add    %al,(%eax)
    1c80:	00 01                	add    %al,(%ecx)
    1c82:	00 50 32             	add    %dl,0x32(%eax)
    1c85:	00 00                	add    %al,(%eax)
    1c87:	00 39                	add    %bh,(%ecx)
    1c89:	00 00                	add    %al,(%eax)
    1c8b:	00 0a                	add    %cl,(%edx)
    1c8d:	00 71 00             	add    %dh,0x0(%ecx)
    1c90:	06                   	push   %es
    1c91:	09 f8                	or     %edi,%eax
    1c93:	1a 70 00             	sbb    0x0(%eax),%dh
    1c96:	22 9f 39 00 00 00    	and    0x39(%edi),%bl
    1c9c:	47                   	inc    %edi
    1c9d:	00 00                	add    %al,(%eax)
    1c9f:	00 0a                	add    %cl,(%edx)
    1ca1:	00 71 00             	add    %dh,0x0(%ecx)
    1ca4:	06                   	push   %es
    1ca5:	09 f8                	or     %edi,%eax
    1ca7:	1a 77 00             	sbb    0x0(%edi),%dh
    1caa:	22 9f 47 00 00 00    	and    0x47(%edi),%bl
    1cb0:	55                   	push   %ebp
    1cb1:	00 00                	add    %al,(%eax)
    1cb3:	00 01                	add    %al,(%ecx)
    1cb5:	00 57 00             	add    %dl,0x0(%edi)
	...
    1cc0:	00 00                	add    %al,(%eax)
    1cc2:	00 27                	add    %ah,(%edi)
    1cc4:	00 00                	add    %al,(%eax)
    1cc6:	00 01                	add    %al,(%ecx)
    1cc8:	00 52 47             	add    %dl,0x47(%edx)
    1ccb:	00 00                	add    %al,(%eax)
    1ccd:	00 55 00             	add    %dl,0x0(%ebp)
    1cd0:	00 00                	add    %al,(%eax)
    1cd2:	01 00                	add    %eax,(%eax)
    1cd4:	52                   	push   %edx
	...
    1cdd:	1b 00                	sbb    (%eax),%eax
    1cdf:	00 00                	add    %al,(%eax)
    1ce1:	2b 00                	sub    (%eax),%eax
    1ce3:	00 00                	add    %al,(%eax)
    1ce5:	01 00                	add    %eax,(%eax)
    1ce7:	56                   	push   %esi
    1ce8:	47                   	inc    %edi
    1ce9:	00 00                	add    %al,(%eax)
    1ceb:	00 4a 00             	add    %cl,0x0(%edx)
    1cee:	00 00                	add    %al,(%eax)
    1cf0:	01 00                	add    %eax,(%eax)
    1cf2:	56                   	push   %esi
	...
    1cfb:	64 00 00             	add    %al,%fs:(%eax)
    1cfe:	00 65 00             	add    %ah,0x0(%ebp)
    1d01:	00 00                	add    %al,(%eax)
    1d03:	02 00                	add    (%eax),%al
    1d05:	74 04                	je     1d0b <thread_run-0xffe2f5>
    1d07:	65 00 00             	add    %al,%gs:(%eax)
    1d0a:	00 67 00             	add    %ah,0x0(%edi)
    1d0d:	00 00                	add    %al,(%eax)
    1d0f:	02 00                	add    (%eax),%al
    1d11:	74 08                	je     1d1b <thread_run-0xffe2e5>
    1d13:	67 00 00             	add    %al,(%bx,%si)
    1d16:	00 72 01             	add    %dh,0x1(%edx)
    1d19:	00 00                	add    %al,(%eax)
    1d1b:	02 00                	add    (%eax),%al
    1d1d:	75 08                	jne    1d27 <thread_run-0xffe2d9>
    1d1f:	72 01                	jb     1d22 <thread_run-0xffe2de>
    1d21:	00 00                	add    %al,(%eax)
    1d23:	73 01                	jae    1d26 <thread_run-0xffe2da>
    1d25:	00 00                	add    %al,(%eax)
    1d27:	02 00                	add    (%eax),%al
    1d29:	74 08                	je     1d33 <thread_run-0xffe2cd>
    1d2b:	73 01                	jae    1d2e <thread_run-0xffe2d2>
    1d2d:	00 00                	add    %al,(%eax)
    1d2f:	74 01                	je     1d32 <thread_run-0xffe2ce>
    1d31:	00 00                	add    %al,(%eax)
    1d33:	02 00                	add    (%eax),%al
    1d35:	74 04                	je     1d3b <thread_run-0xffe2c5>
	...
    1d3f:	64 00 00             	add    %al,%fs:(%eax)
    1d42:	00 25 01 00 00 01    	add    %ah,0x1000001
    1d48:	00 50 25             	add    %dl,0x25(%eax)
    1d4b:	01 00                	add    %eax,(%eax)
    1d4d:	00 67 01             	add    %ah,0x1(%edi)
    1d50:	00 00                	add    %al,(%eax)
    1d52:	03 00                	add    (%eax),%eax
    1d54:	71 08                	jno    1d5e <thread_run-0xffe2a2>
    1d56:	9f                   	lahf   
	...
    1d5f:	9c                   	pushf  
    1d60:	00 00                	add    %al,(%eax)
    1d62:	00 af 00 00 00 05    	add    %ch,0x5000000(%edi)
    1d68:	00 76 00             	add    %dh,0x0(%esi)
    1d6b:	31 1a                	xor    %ebx,(%edx)
    1d6d:	9f                   	lahf   
    1d6e:	af                   	scas   %es:(%edi),%eax
    1d6f:	00 00                	add    %al,(%eax)
    1d71:	00 b8 00 00 00 01    	add    %bh,0x1000000(%eax)
    1d77:	00 56 b8             	add    %dl,-0x48(%esi)
    1d7a:	00 00                	add    %al,(%eax)
    1d7c:	00 74 01 00          	add    %dh,0x0(%ecx,%eax,1)
    1d80:	00 02                	add    %al,(%edx)
    1d82:	00 91 50 00 00 00    	add    %dl,0x50(%ecx)
    1d88:	00 00                	add    %al,(%eax)
    1d8a:	00 00                	add    %al,(%eax)
    1d8c:	00 ac 00 00 00 25 01 	add    %ch,0x1250000(%eax,%eax,1)
    1d93:	00 00                	add    %al,(%eax)
    1d95:	0c 00                	or     $0x0,%al
    1d97:	70 00                	jo     1d99 <thread_run-0xffe267>
    1d99:	91                   	xchg   %eax,%ecx
    1d9a:	60                   	pusha  
    1d9b:	06                   	push   %es
    1d9c:	22 34 1c             	and    (%esp,%ebx,1),%dh
    1d9f:	06                   	push   %es
    1da0:	31 1a                	xor    %ebx,(%edx)
    1da2:	9f                   	lahf   
    1da3:	25 01 00 00 67       	and    $0x67000001,%eax
    1da8:	01 00                	add    %eax,(%eax)
    1daa:	00 0c 00             	add    %cl,(%eax,%eax,1)
    1dad:	71 00                	jno    1daf <thread_run-0xffe251>
    1daf:	91                   	xchg   %eax,%ecx
    1db0:	60                   	pusha  
    1db1:	06                   	push   %es
    1db2:	22 23                	and    (%ebx),%ah
    1db4:	04 06                	add    $0x6,%al
    1db6:	31 1a                	xor    %ebx,(%edx)
    1db8:	9f                   	lahf   
    1db9:	67 01 00             	add    %eax,(%bx,%si)
    1dbc:	00 74 01 00          	add    %dh,0x0(%ecx,%eax,1)
    1dc0:	00 06                	add    %al,(%esi)
    1dc2:	00 91 64 06 31 1a    	add    %dl,0x1a310664(%ecx)
    1dc8:	9f                   	lahf   
	...
    1dd1:	ac                   	lods   %ds:(%esi),%al
    1dd2:	00 00                	add    %al,(%eax)
    1dd4:	00 eb                	add    %ch,%bl
    1dd6:	00 00                	add    %al,(%eax)
    1dd8:	00 02                	add    %al,(%edx)
    1dda:	00 91 60 eb 00 00    	add    %dl,0xeb60(%ecx)
    1de0:	00 f8                	add    %bh,%al
    1de2:	00 00                	add    %al,(%eax)
    1de4:	00 01                	add    %al,(%ecx)
    1de6:	00 52 f8             	add    %dl,-0x8(%edx)
    1de9:	00 00                	add    %al,(%eax)
    1deb:	00 0d 01 00 00 02    	add    %cl,0x2000001
    1df1:	00 91 60 0d 01 00    	add    %dl,0x10d60(%ecx)
    1df7:	00 20                	add    %ah,(%eax)
    1df9:	01 00                	add    %eax,(%eax)
    1dfb:	00 01                	add    %al,(%ecx)
    1dfd:	00 52 20             	add    %dl,0x20(%edx)
    1e00:	01 00                	add    %eax,(%eax)
    1e02:	00 25 01 00 00 08    	add    %ah,0x8000001
    1e08:	00 70 00             	add    %dh,0x0(%eax)
    1e0b:	91                   	xchg   %eax,%ecx
    1e0c:	60                   	pusha  
    1e0d:	06                   	push   %es
    1e0e:	22 38                	and    (%eax),%bh
    1e10:	1c 25                	sbb    $0x25,%al
    1e12:	01 00                	add    %eax,(%eax)
    1e14:	00 27                	add    %ah,(%edi)
    1e16:	01 00                	add    %eax,(%eax)
    1e18:	00 02                	add    %al,(%edx)
    1e1a:	00 77 7c             	add    %dh,0x7c(%edi)
    1e1d:	27                   	daa    
    1e1e:	01 00                	add    %eax,(%eax)
    1e20:	00 49 01             	add    %cl,0x1(%ecx)
    1e23:	00 00                	add    %al,(%eax)
    1e25:	02 00                	add    (%eax),%al
    1e27:	91                   	xchg   %eax,%ecx
    1e28:	60                   	pusha  
    1e29:	49                   	dec    %ecx
    1e2a:	01 00                	add    %eax,(%eax)
    1e2c:	00 62 01             	add    %ah,0x1(%edx)
    1e2f:	00 00                	add    %al,(%eax)
    1e31:	01 00                	add    %eax,(%eax)
    1e33:	52                   	push   %edx
    1e34:	62 01                	bound  %eax,(%ecx)
    1e36:	00 00                	add    %al,(%eax)
    1e38:	67 01 00             	add    %eax,(%bx,%si)
    1e3b:	00 03                	add    %al,(%ebx)
    1e3d:	00 91 4c 06 00 00    	add    %dl,0x64c(%ecx)
    1e43:	00 00                	add    %al,(%eax)
    1e45:	00 00                	add    %al,(%eax)
    1e47:	00 00                	add    %al,(%eax)
    1e49:	74 01                	je     1e4c <thread_run-0xffe1b4>
    1e4b:	00 00                	add    %al,(%eax)
    1e4d:	75 01                	jne    1e50 <thread_run-0xffe1b0>
    1e4f:	00 00                	add    %al,(%eax)
    1e51:	02 00                	add    (%eax),%al
    1e53:	74 04                	je     1e59 <thread_run-0xffe1a7>
    1e55:	75 01                	jne    1e58 <thread_run-0xffe1a8>
    1e57:	00 00                	add    %al,(%eax)
    1e59:	77 01                	ja     1e5c <thread_run-0xffe1a4>
    1e5b:	00 00                	add    %al,(%eax)
    1e5d:	02 00                	add    (%eax),%al
    1e5f:	74 08                	je     1e69 <thread_run-0xffe197>
    1e61:	77 01                	ja     1e64 <thread_run-0xffe19c>
    1e63:	00 00                	add    %al,(%eax)
    1e65:	92                   	xchg   %eax,%edx
    1e66:	01 00                	add    %eax,(%eax)
    1e68:	00 02                	add    %al,(%edx)
    1e6a:	00 75 08             	add    %dh,0x8(%ebp)
    1e6d:	92                   	xchg   %eax,%edx
    1e6e:	01 00                	add    %eax,(%eax)
    1e70:	00 93 01 00 00 02    	add    %dl,0x2000001(%ebx)
    1e76:	00 74 04 00          	add    %dh,0x0(%esp,%eax,1)
    1e7a:	00 00                	add    %al,(%eax)
    1e7c:	00 00                	add    %al,(%eax)
    1e7e:	00 00                	add    %al,(%eax)
    1e80:	00 86 01 00 00 90    	add    %al,-0x6fffffff(%esi)
    1e86:	01 00                	add    %eax,(%eax)
    1e88:	00 01                	add    %al,(%ecx)
    1e8a:	00 52 00             	add    %dl,0x0(%edx)
    1e8d:	00 00                	add    %al,(%eax)
    1e8f:	00 00                	add    %al,(%eax)
    1e91:	00 00                	add    %al,(%eax)
    1e93:	00 93 01 00 00 94    	add    %dl,-0x6bffffff(%ebx)
    1e99:	01 00                	add    %eax,(%eax)
    1e9b:	00 02                	add    %al,(%edx)
    1e9d:	00 74 04 94          	add    %dh,-0x6c(%esp,%eax,1)
    1ea1:	01 00                	add    %eax,(%eax)
    1ea3:	00 96 01 00 00 02    	add    %dl,0x2000001(%esi)
    1ea9:	00 74 08 96          	add    %dh,-0x6a(%eax,%ecx,1)
    1ead:	01 00                	add    %eax,(%eax)
    1eaf:	00 cf                	add    %cl,%bh
    1eb1:	01 00                	add    %eax,(%eax)
    1eb3:	00 02                	add    %al,(%edx)
    1eb5:	00 75 08             	add    %dh,0x8(%ebp)
    1eb8:	cf                   	iret   
    1eb9:	01 00                	add    %eax,(%eax)
    1ebb:	00 d0                	add    %dl,%al
    1ebd:	01 00                	add    %eax,(%eax)
    1ebf:	00 02                	add    %al,(%edx)
    1ec1:	00 74 04 00          	add    %dh,0x0(%esp,%eax,1)
    1ec5:	00 00                	add    %al,(%eax)
    1ec7:	00 00                	add    %al,(%eax)
    1ec9:	00 00                	add    %al,(%eax)
    1ecb:	00 93 01 00 00 af    	add    %dl,-0x50ffffff(%ebx)
    1ed1:	01 00                	add    %eax,(%eax)
    1ed3:	00 01                	add    %al,(%ecx)
    1ed5:	00 50 af             	add    %dl,-0x51(%eax)
    1ed8:	01 00                	add    %eax,(%eax)
    1eda:	00 ce                	add    %cl,%dh
    1edc:	01 00                	add    %eax,(%eax)
    1ede:	00 01                	add    %al,(%ecx)
    1ee0:	00 53 00             	add    %dl,0x0(%ebx)
    1ee3:	00 00                	add    %al,(%eax)
    1ee5:	00 00                	add    %al,(%eax)
    1ee7:	00 00                	add    %al,(%eax)
    1ee9:	00 d0                	add    %dl,%al
    1eeb:	01 00                	add    %eax,(%eax)
    1eed:	00 d1                	add    %dl,%cl
    1eef:	01 00                	add    %eax,(%eax)
    1ef1:	00 02                	add    %al,(%edx)
    1ef3:	00 74 04 d1          	add    %dh,-0x2f(%esp,%eax,1)
    1ef7:	01 00                	add    %eax,(%eax)
    1ef9:	00 d3                	add    %dl,%bl
    1efb:	01 00                	add    %eax,(%eax)
    1efd:	00 02                	add    %al,(%edx)
    1eff:	00 74 08 d3          	add    %dh,-0x2d(%eax,%ecx,1)
    1f03:	01 00                	add    %eax,(%eax)
    1f05:	00 41 02             	add    %al,0x2(%ecx)
    1f08:	00 00                	add    %al,(%eax)
    1f0a:	02 00                	add    (%eax),%al
    1f0c:	75 08                	jne    1f16 <thread_run-0xffe0ea>
    1f0e:	41                   	inc    %ecx
    1f0f:	02 00                	add    (%eax),%al
    1f11:	00 42 02             	add    %al,0x2(%edx)
    1f14:	00 00                	add    %al,(%eax)
    1f16:	02 00                	add    (%eax),%al
    1f18:	74 04                	je     1f1e <thread_run-0xffe0e2>
	...
    1f22:	d0 01                	rolb   (%ecx)
    1f24:	00 00                	add    %al,(%eax)
    1f26:	e8 01 00 00 01       	call   1001f2c <__qdivrem+0xb4>
    1f2b:	00 50 fa             	add    %dl,-0x6(%eax)
    1f2e:	01 00                	add    %eax,(%eax)
    1f30:	00 3a                	add    %bh,(%edx)
    1f32:	02 00                	add    (%eax),%al
    1f34:	00 01                	add    %al,(%ecx)
    1f36:	00 50 00             	add    %dl,0x0(%eax)
    1f39:	00 00                	add    %al,(%eax)
    1f3b:	00 00                	add    %al,(%eax)
    1f3d:	00 00                	add    %al,(%eax)
    1f3f:	00 e0                	add    %ah,%al
    1f41:	01 00                	add    %eax,(%eax)
    1f43:	00 3f                	add    %bh,(%edi)
    1f45:	02 00                	add    (%eax),%al
    1f47:	00 01                	add    %al,(%ecx)
    1f49:	00 53 00             	add    %dl,0x0(%ebx)
    1f4c:	00 00                	add    %al,(%eax)
    1f4e:	00 00                	add    %al,(%eax)
    1f50:	00 00                	add    %al,(%eax)
    1f52:	00 e0                	add    %ah,%al
    1f54:	01 00                	add    %eax,(%eax)
    1f56:	00 f7                	add    %dh,%bh
    1f58:	01 00                	add    %eax,(%eax)
    1f5a:	00 06                	add    %al,(%esi)
    1f5c:	00 70 7c             	add    %dh,0x7c(%eax)
    1f5f:	06                   	push   %es
    1f60:	31 1a                	xor    %ebx,(%edx)
    1f62:	9f                   	lahf   
    1f63:	fa                   	cli    
    1f64:	01 00                	add    %eax,(%eax)
    1f66:	00 0d 02 00 00 05    	add    %cl,0x5000002
    1f6c:	00 72 00             	add    %dh,0x0(%edx)
    1f6f:	31 1a                	xor    %ebx,(%edx)
    1f71:	9f                   	lahf   
    1f72:	0d 02 00 00 3a       	or     $0x3a000002,%eax
    1f77:	02 00                	add    (%eax),%al
    1f79:	00 06                	add    %al,(%esi)
    1f7b:	00 70 7c             	add    %dh,0x7c(%eax)
    1f7e:	06                   	push   %es
    1f7f:	31 1a                	xor    %ebx,(%edx)
    1f81:	9f                   	lahf   
	...
    1f8a:	e4 01                	in     $0x1,%al
    1f8c:	00 00                	add    %al,(%eax)
    1f8e:	f7 01 00 00 0c 00    	testl  $0xc0000,(%ecx)
    1f94:	70 00                	jo     1f96 <thread_run-0xffe06a>
    1f96:	73 00                	jae    1f98 <thread_run-0xffe068>
    1f98:	22 38                	and    (%eax),%bh
    1f9a:	1c 06                	sbb    $0x6,%al
    1f9c:	09 f8                	or     %edi,%eax
    1f9e:	1a 9f f7 01 00 00    	sbb    0x1f7(%edi),%bl
    1fa4:	1f                   	pop    %ds
    1fa5:	02 00                	add    (%eax),%al
    1fa7:	00 06                	add    %al,(%esi)
    1fa9:	00 76 00             	add    %dh,0x0(%esi)
    1fac:	09 f8                	or     %edi,%eax
    1fae:	1a 9f 1f 02 00 00    	sbb    0x21f(%edi),%bl
    1fb4:	3a 02                	cmp    (%edx),%al
    1fb6:	00 00                	add    %al,(%eax)
    1fb8:	0c 00                	or     $0x0,%al
    1fba:	70 00                	jo     1fbc <thread_run-0xffe044>
    1fbc:	73 00                	jae    1fbe <thread_run-0xffe042>
    1fbe:	22 38                	and    (%eax),%bh
    1fc0:	1c 06                	sbb    $0x6,%al
    1fc2:	09 f8                	or     %edi,%eax
    1fc4:	1a 9f 00 00 00 00    	sbb    0x0(%edi),%bl
    1fca:	00 00                	add    %al,(%eax)
    1fcc:	00 00                	add    %al,(%eax)
    1fce:	e4 01                	in     $0x1,%al
    1fd0:	00 00                	add    %al,(%eax)
    1fd2:	f7 01 00 00 0b 00    	testl  $0xb0000,(%ecx)
    1fd8:	70 00                	jo     1fda <thread_run-0xffe026>
    1fda:	73 00                	jae    1fdc <thread_run-0xffe024>
    1fdc:	22 38                	and    (%eax),%bh
    1fde:	1c 06                	sbb    $0x6,%al
    1fe0:	31 1a                	xor    %ebx,(%edx)
    1fe2:	9f                   	lahf   
    1fe3:	f7 01 00 00 1f 02    	testl  $0x21f0000,(%ecx)
    1fe9:	00 00                	add    %al,(%eax)
    1feb:	05 00 76 00 31       	add    $0x31007600,%eax
    1ff0:	1a 9f 1f 02 00 00    	sbb    0x21f(%edi),%bl
    1ff6:	3a 02                	cmp    (%edx),%al
    1ff8:	00 00                	add    %al,(%eax)
    1ffa:	0b 00                	or     (%eax),%eax
    1ffc:	70 00                	jo     1ffe <thread_run-0xffe002>
    1ffe:	73 00                	jae    2000 <thread_run-0xffe000>
    2000:	22 38                	and    (%eax),%bh
    2002:	1c 06                	sbb    $0x6,%al
    2004:	31 1a                	xor    %ebx,(%edx)
    2006:	9f                   	lahf   
	...
    200f:	42                   	inc    %edx
    2010:	02 00                	add    (%eax),%al
    2012:	00 43 02             	add    %al,0x2(%ebx)
    2015:	00 00                	add    %al,(%eax)
    2017:	02 00                	add    (%eax),%al
    2019:	74 04                	je     201f <thread_run-0xffdfe1>
    201b:	43                   	inc    %ebx
    201c:	02 00                	add    (%eax),%al
    201e:	00 45 02             	add    %al,0x2(%ebp)
    2021:	00 00                	add    %al,(%eax)
    2023:	02 00                	add    (%eax),%al
    2025:	74 08                	je     202f <thread_run-0xffdfd1>
    2027:	45                   	inc    %ebp
    2028:	02 00                	add    (%eax),%al
    202a:	00 ea                	add    %ch,%dl
    202c:	02 00                	add    (%eax),%al
    202e:	00 02                	add    %al,(%edx)
    2030:	00 75 08             	add    %dh,0x8(%ebp)
    2033:	ea 02 00 00 eb 02 00 	ljmp   $0x2,$0xeb000002
    203a:	00 02                	add    %al,(%edx)
    203c:	00 74 04 00          	add    %dh,0x0(%esp,%eax,1)
    2040:	00 00                	add    %al,(%eax)
    2042:	00 00                	add    %al,(%eax)
    2044:	00 00                	add    %al,(%eax)
    2046:	00 4e 02             	add    %cl,0x2(%esi)
    2049:	00 00                	add    %al,(%eax)
    204b:	66                   	data16
    204c:	02 00                	add    (%eax),%al
    204e:	00 05 00 03 3c 39    	add    %al,0x393c0300
    2054:	00 01                	add    %al,(%ecx)
    2056:	93                   	xchg   %eax,%ebx
    2057:	02 00                	add    (%eax),%al
    2059:	00 9e 02 00 00 05    	add    %bl,0x5000002(%esi)
    205f:	00 03                	add    %al,(%ebx)
    2061:	3c 39                	cmp    $0x39,%al
    2063:	00 01                	add    %al,(%ecx)
    2065:	9e                   	sahf   
    2066:	02 00                	add    (%eax),%al
    2068:	00 e8                	add    %ch,%al
    206a:	02 00                	add    (%eax),%al
    206c:	00 01                	add    %al,(%ecx)
    206e:	00 56 00             	add    %dl,0x0(%esi)
    2071:	00 00                	add    %al,(%eax)
    2073:	00 00                	add    %al,(%eax)
    2075:	00 00                	add    %al,(%eax)
    2077:	00 eb                	add    %ch,%bl
    2079:	02 00                	add    (%eax),%al
    207b:	00 ec                	add    %ch,%ah
    207d:	02 00                	add    (%eax),%al
    207f:	00 02                	add    %al,(%edx)
    2081:	00 74 04 ec          	add    %dh,-0x14(%esp,%eax,1)
    2085:	02 00                	add    (%eax),%al
    2087:	00 ee                	add    %ch,%dh
    2089:	02 00                	add    (%eax),%al
    208b:	00 02                	add    %al,(%edx)
    208d:	00 74 08 ee          	add    %dh,-0x12(%eax,%ecx,1)
    2091:	02 00                	add    (%eax),%al
    2093:	00 3e                	add    %bh,(%esi)
    2095:	03 00                	add    (%eax),%eax
    2097:	00 02                	add    %al,(%edx)
    2099:	00 75 08             	add    %dh,0x8(%ebp)
    209c:	3e 03 00             	add    %ds:(%eax),%eax
    209f:	00 3f                	add    %bh,(%edi)
    20a1:	03 00                	add    (%eax),%eax
    20a3:	00 02                	add    %al,(%edx)
    20a5:	00 74 04 00          	add    %dh,0x0(%esp,%eax,1)
    20a9:	00 00                	add    %al,(%eax)
    20ab:	00 00                	add    %al,(%eax)
    20ad:	00 00                	add    %al,(%eax)
    20af:	00 eb                	add    %ch,%bl
    20b1:	02 00                	add    (%eax),%al
    20b3:	00 0b                	add    %cl,(%ebx)
    20b5:	03 00                	add    (%eax),%eax
    20b7:	00 01                	add    %al,(%ecx)
    20b9:	00 50 00             	add    %dl,0x0(%eax)
    20bc:	00 00                	add    %al,(%eax)
    20be:	00 00                	add    %al,(%eax)
    20c0:	00 00                	add    %al,(%eax)
    20c2:	00 0c 03             	add    %cl,(%ebx,%eax,1)
    20c5:	00 00                	add    %al,(%eax)
    20c7:	34 03                	xor    $0x3,%al
    20c9:	00 00                	add    %al,(%eax)
    20cb:	01 00                	add    %eax,(%eax)
    20cd:	50                   	push   %eax
	...
    20d6:	04 03                	add    $0x3,%al
    20d8:	00 00                	add    %al,(%eax)
    20da:	3d 03 00 00 01       	cmp    $0x1000003,%eax
    20df:	00 53 00             	add    %dl,0x0(%ebx)
    20e2:	00 00                	add    %al,(%eax)
    20e4:	00 00                	add    %al,(%eax)
    20e6:	00 00                	add    %al,(%eax)
    20e8:	00 3f                	add    %bh,(%edi)
    20ea:	03 00                	add    (%eax),%eax
    20ec:	00 40 03             	add    %al,0x3(%eax)
    20ef:	00 00                	add    %al,(%eax)
    20f1:	02 00                	add    (%eax),%al
    20f3:	74 04                	je     20f9 <thread_run-0xffdf07>
    20f5:	40                   	inc    %eax
    20f6:	03 00                	add    (%eax),%eax
    20f8:	00 42 03             	add    %al,0x3(%edx)
    20fb:	00 00                	add    %al,(%eax)
    20fd:	02 00                	add    (%eax),%al
    20ff:	74 08                	je     2109 <thread_run-0xffdef7>
    2101:	42                   	inc    %edx
    2102:	03 00                	add    (%eax),%eax
    2104:	00 d6                	add    %dl,%dh
    2106:	03 00                	add    (%eax),%eax
    2108:	00 02                	add    %al,(%edx)
    210a:	00 75 08             	add    %dh,0x8(%ebp)
    210d:	d6                   	(bad)  
    210e:	03 00                	add    (%eax),%eax
    2110:	00 d7                	add    %dl,%bh
    2112:	03 00                	add    (%eax),%eax
    2114:	00 02                	add    %al,(%edx)
    2116:	00 74 04 00          	add    %dh,0x0(%esp,%eax,1)
    211a:	00 00                	add    %al,(%eax)
    211c:	00 00                	add    %al,(%eax)
    211e:	00 00                	add    %al,(%eax)
    2120:	00 65 03             	add    %ah,0x3(%ebp)
    2123:	00 00                	add    %al,(%eax)
    2125:	ce                   	into   
    2126:	03 00                	add    (%eax),%eax
    2128:	00 01                	add    %al,(%ecx)
    212a:	00 53 00             	add    %dl,0x0(%ebx)
    212d:	00 00                	add    %al,(%eax)
    212f:	00 00                	add    %al,(%eax)
    2131:	00 00                	add    %al,(%eax)
    2133:	00 8e 03 00 00 9f    	add    %cl,-0x60fffffd(%esi)
    2139:	03 00                	add    (%eax),%eax
    213b:	00 01                	add    %al,(%ecx)
    213d:	00 56 bf             	add    %dl,-0x41(%esi)
    2140:	03 00                	add    (%eax),%eax
    2142:	00 c9                	add    %cl,%cl
    2144:	03 00                	add    (%eax),%eax
    2146:	00 01                	add    %al,(%ecx)
    2148:	00 50 c9             	add    %dl,-0x37(%eax)
    214b:	03 00                	add    (%eax),%eax
    214d:	00 ce                	add    %cl,%dh
    214f:	03 00                	add    (%eax),%eax
    2151:	00 01                	add    %al,(%ecx)
    2153:	00 56 00             	add    %dl,0x0(%esi)
    2156:	00 00                	add    %al,(%eax)
    2158:	00 00                	add    %al,(%eax)
    215a:	00 00                	add    %al,(%eax)
    215c:	00 65 03             	add    %ah,0x3(%ebp)
    215f:	00 00                	add    %al,(%eax)
    2161:	ce                   	into   
    2162:	03 00                	add    (%eax),%eax
    2164:	00 01                	add    %al,(%ecx)
    2166:	00 53 00             	add    %dl,0x0(%ebx)
    2169:	00 00                	add    %al,(%eax)
    216b:	00 00                	add    %al,(%eax)
    216d:	00 00                	add    %al,(%eax)
    216f:	00 6b 03             	add    %ch,0x3(%ebx)
    2172:	00 00                	add    %al,(%eax)
    2174:	75 03                	jne    2179 <thread_run-0xffde87>
    2176:	00 00                	add    %al,(%eax)
    2178:	05 00 03 3c 39       	add    $0x393c0300,%eax
    217d:	00 01                	add    %al,(%ecx)
    217f:	75 03                	jne    2184 <thread_run-0xffde7c>
    2181:	00 00                	add    %al,(%eax)
    2183:	92                   	xchg   %eax,%edx
    2184:	03 00                	add    (%eax),%eax
    2186:	00 01                	add    %al,(%ecx)
    2188:	00 56 9f             	add    %dl,-0x61(%esi)
    218b:	03 00                	add    (%eax),%eax
    218d:	00 bf 03 00 00 01    	add    %bh,0x1000003(%edi)
    2193:	00 56 00             	add    %dl,0x0(%esi)
    2196:	00 00                	add    %al,(%eax)
    2198:	00 00                	add    %al,(%eax)
    219a:	00 00                	add    %al,(%eax)
    219c:	00 d7                	add    %dl,%bh
    219e:	03 00                	add    (%eax),%eax
    21a0:	00 d8                	add    %bl,%al
    21a2:	03 00                	add    (%eax),%eax
    21a4:	00 02                	add    %al,(%edx)
    21a6:	00 74 04 d8          	add    %dh,-0x28(%esp,%eax,1)
    21aa:	03 00                	add    (%eax),%eax
    21ac:	00 da                	add    %bl,%dl
    21ae:	03 00                	add    (%eax),%eax
    21b0:	00 02                	add    %al,(%edx)
    21b2:	00 74 08 da          	add    %dh,-0x26(%eax,%ecx,1)
    21b6:	03 00                	add    (%eax),%eax
    21b8:	00 35 04 00 00 02    	add    %dh,0x2000004
    21be:	00 75 08             	add    %dh,0x8(%ebp)
    21c1:	35 04 00 00 36       	xor    $0x36000004,%eax
    21c6:	04 00                	add    $0x0,%al
    21c8:	00 02                	add    %al,(%edx)
    21ca:	00 74 08 36          	add    %dh,0x36(%eax,%ecx,1)
    21ce:	04 00                	add    $0x0,%al
    21d0:	00 37                	add    %dh,(%edi)
    21d2:	04 00                	add    $0x0,%al
    21d4:	00 02                	add    %al,(%edx)
    21d6:	00 74 04 00          	add    %dh,0x0(%esp,%eax,1)
    21da:	00 00                	add    %al,(%eax)
    21dc:	00 00                	add    %al,(%eax)
    21de:	00 00                	add    %al,(%eax)
    21e0:	00 05 04 00 00 1f    	add    %al,0x1f000004
    21e6:	04 00                	add    $0x0,%al
    21e8:	00 0a                	add    %cl,(%edx)
    21ea:	00 91 00 06 34 1c    	add    %dl,0x1c340600(%ecx)
    21f0:	06                   	push   %es
    21f1:	09 f8                	or     %edi,%eax
    21f3:	1a 9f 00 00 00 00    	sbb    0x0(%edi),%bl
    21f9:	00 00                	add    %al,(%eax)
    21fb:	00 00                	add    %al,(%eax)
    21fd:	f6 03 00             	testb  $0x0,(%ebx)
    2200:	00 fb                	add    %bh,%bl
    2202:	03 00                	add    (%eax),%eax
    2204:	00 01                	add    %al,(%ecx)
    2206:	00 50 fb             	add    %dl,-0x5(%eax)
    2209:	03 00                	add    (%eax),%eax
    220b:	00 2d 04 00 00 01    	add    %ch,0x1000004
    2211:	00 53 00             	add    %dl,0x0(%ebx)
    2214:	00 00                	add    %al,(%eax)
    2216:	00 00                	add    %al,(%eax)
    2218:	00 00                	add    %al,(%eax)
    221a:	00 05 04 00 00 2a    	add    %al,0x2a000004
    2220:	04 00                	add    $0x0,%al
    2222:	00 02                	add    %al,(%edx)
    2224:	00 91 04 00 00 00    	add    %dl,0x4(%ecx)
    222a:	00 00                	add    %al,(%eax)
    222c:	00 00                	add    %al,(%eax)
    222e:	00 05 04 00 00 1f    	add    %al,0x1f000004
    2234:	04 00                	add    $0x0,%al
    2236:	00 0a                	add    %cl,(%edx)
    2238:	00 91 00 06 34 1c    	add    %dl,0x1c340600(%ecx)
    223e:	06                   	push   %es
    223f:	09 f8                	or     %edi,%eax
    2241:	1a 9f 00 00 00 00    	sbb    0x0(%edi),%bl
    2247:	00 00                	add    %al,(%eax)
    2249:	00 00                	add    %al,(%eax)
    224b:	37                   	aaa    
    224c:	04 00                	add    $0x0,%al
    224e:	00 38                	add    %bh,(%eax)
    2250:	04 00                	add    $0x0,%al
    2252:	00 02                	add    %al,(%edx)
    2254:	00 74 04 38          	add    %dh,0x38(%esp,%eax,1)
    2258:	04 00                	add    $0x0,%al
    225a:	00 3a                	add    %bh,(%edx)
    225c:	04 00                	add    $0x0,%al
    225e:	00 02                	add    %al,(%edx)
    2260:	00 74 08 3a          	add    %dh,0x3a(%eax,%ecx,1)
    2264:	04 00                	add    $0x0,%al
    2266:	00 9c 04 00 00 02 00 	add    %bl,0x20000(%esp,%eax,1)
    226d:	75 08                	jne    2277 <thread_run-0xffdd89>
    226f:	9c                   	pushf  
    2270:	04 00                	add    $0x0,%al
    2272:	00 9d 04 00 00 02    	add    %bl,0x2000004(%ebp)
    2278:	00 74 04 00          	add    %dh,0x0(%esp,%eax,1)
	...
    2284:	00 00                	add    %al,(%eax)
    2286:	00 01                	add    %al,(%ecx)
    2288:	00 00                	add    %al,(%eax)
    228a:	00 02                	add    %al,(%edx)
    228c:	00 74 04 01          	add    %dh,0x1(%esp,%eax,1)
    2290:	00 00                	add    %al,(%eax)
    2292:	00 03                	add    %al,(%ebx)
    2294:	00 00                	add    %al,(%eax)
    2296:	00 02                	add    %al,(%edx)
    2298:	00 74 08 03          	add    %dh,0x3(%eax,%ecx,1)
    229c:	00 00                	add    %al,(%eax)
    229e:	00 6f 00             	add    %ch,0x0(%edi)
    22a1:	00 00                	add    %al,(%eax)
    22a3:	02 00                	add    (%eax),%al
    22a5:	75 08                	jne    22af <thread_run-0xffdd51>
    22a7:	6f                   	outsl  %ds:(%esi),(%dx)
    22a8:	00 00                	add    %al,(%eax)
    22aa:	00 70 00             	add    %dh,0x0(%eax)
    22ad:	00 00                	add    %al,(%eax)
    22af:	02 00                	add    (%eax),%al
    22b1:	74 08                	je     22bb <thread_run-0xffdd45>
    22b3:	70 00                	jo     22b5 <thread_run-0xffdd4b>
    22b5:	00 00                	add    %al,(%eax)
    22b7:	71 00                	jno    22b9 <thread_run-0xffdd47>
    22b9:	00 00                	add    %al,(%eax)
    22bb:	02 00                	add    (%eax),%al
    22bd:	74 04                	je     22c3 <thread_run-0xffdd3d>
	...
    22c7:	18 00                	sbb    %al,(%eax)
    22c9:	00 00                	add    %al,(%eax)
    22cb:	4a                   	dec    %edx
    22cc:	00 00                	add    %al,(%eax)
    22ce:	00 05 00 03 44 39    	add    %al,0x39440300
    22d4:	00 01                	add    %al,(%ecx)
    22d6:	4a                   	dec    %edx
    22d7:	00 00                	add    %al,(%eax)
    22d9:	00 67 00             	add    %ah,0x0(%edi)
    22dc:	00 00                	add    %al,(%eax)
    22de:	01 00                	add    %eax,(%eax)
    22e0:	53                   	push   %ebx
	...
    22e9:	31 00                	xor    %eax,(%eax)
    22eb:	00 00                	add    %al,(%eax)
    22ed:	33 00                	xor    (%eax),%eax
    22ef:	00 00                	add    %al,(%eax)
    22f1:	0a 00                	or     (%eax),%al
    22f3:	70 00                	jo     22f5 <thread_run-0xffdd0b>
    22f5:	03 48 39             	add    0x39(%eax),%ecx
    22f8:	00 01                	add    %al,(%ecx)
    22fa:	06                   	push   %es
    22fb:	1c 9f                	sbb    $0x9f,%al
    22fd:	39 00                	cmp    %eax,(%eax)
    22ff:	00 00                	add    %al,(%eax)
    2301:	55                   	push   %ebp
    2302:	00 00                	add    %al,(%eax)
    2304:	00 01                	add    %al,(%ecx)
    2306:	00 57 00             	add    %dl,0x0(%edi)
    2309:	00 00                	add    %al,(%eax)
    230b:	00 00                	add    %al,(%eax)
    230d:	00 00                	add    %al,(%eax)
    230f:	00 71 00             	add    %dh,0x0(%ecx)
    2312:	00 00                	add    %al,(%eax)
    2314:	72 00                	jb     2316 <thread_run-0xffdcea>
    2316:	00 00                	add    %al,(%eax)
    2318:	02 00                	add    (%eax),%al
    231a:	74 04                	je     2320 <thread_run-0xffdce0>
    231c:	72 00                	jb     231e <thread_run-0xffdce2>
    231e:	00 00                	add    %al,(%eax)
    2320:	74 00                	je     2322 <thread_run-0xffdcde>
    2322:	00 00                	add    %al,(%eax)
    2324:	02 00                	add    (%eax),%al
    2326:	74 08                	je     2330 <thread_run-0xffdcd0>
    2328:	74 00                	je     232a <thread_run-0xffdcd6>
    232a:	00 00                	add    %al,(%eax)
    232c:	c3                   	ret    
    232d:	00 00                	add    %al,(%eax)
    232f:	00 02                	add    %al,(%edx)
    2331:	00 75 08             	add    %dh,0x8(%ebp)
    2334:	c3                   	ret    
    2335:	00 00                	add    %al,(%eax)
    2337:	00 c4                	add    %al,%ah
    2339:	00 00                	add    %al,(%eax)
    233b:	00 02                	add    %al,(%edx)
    233d:	00 74 04 00          	add    %dh,0x0(%esp,%eax,1)
	...
    2349:	00 00                	add    %al,(%eax)
    234b:	00 01                	add    %al,(%ecx)
    234d:	00 00                	add    %al,(%eax)
    234f:	00 02                	add    %al,(%edx)
    2351:	00 74 04 01          	add    %dh,0x1(%esp,%eax,1)
    2355:	00 00                	add    %al,(%eax)
    2357:	00 03                	add    %al,(%ebx)
    2359:	00 00                	add    %al,(%eax)
    235b:	00 02                	add    %al,(%edx)
    235d:	00 74 08 03          	add    %dh,0x3(%eax,%ecx,1)
    2361:	00 00                	add    %al,(%eax)
    2363:	00 09                	add    %cl,(%ecx)
    2365:	00 00                	add    %al,(%eax)
    2367:	00 02                	add    %al,(%edx)
    2369:	00 75 08             	add    %dh,0x8(%ebp)
    236c:	09 00                	or     %eax,(%eax)
    236e:	00 00                	add    %al,(%eax)
    2370:	0a 00                	or     (%eax),%al
    2372:	00 00                	add    %al,(%eax)
    2374:	02 00                	add    (%eax),%al
    2376:	74 04                	je     237c <thread_run-0xffdc84>
	...
    2380:	0a 00                	or     (%eax),%al
    2382:	00 00                	add    %al,(%eax)
    2384:	0b 00                	or     (%eax),%eax
    2386:	00 00                	add    %al,(%eax)
    2388:	02 00                	add    (%eax),%al
    238a:	74 04                	je     2390 <thread_run-0xffdc70>
    238c:	0b 00                	or     (%eax),%eax
    238e:	00 00                	add    %al,(%eax)
    2390:	0d 00 00 00 02       	or     $0x2000000,%eax
    2395:	00 74 08 0d          	add    %dh,0xd(%eax,%ecx,1)
    2399:	00 00                	add    %al,(%eax)
    239b:	00 0e                	add    %cl,(%esi)
    239d:	00 00                	add    %al,(%eax)
    239f:	00 02                	add    %al,(%edx)
    23a1:	00 75 08             	add    %dh,0x8(%ebp)
    23a4:	0e                   	push   %cs
    23a5:	00 00                	add    %al,(%eax)
    23a7:	00 0f                	add    %cl,(%edi)
    23a9:	00 00                	add    %al,(%eax)
    23ab:	00 02                	add    %al,(%edx)
    23ad:	00 74 04 00          	add    %dh,0x0(%esp,%eax,1)
    23b1:	00 00                	add    %al,(%eax)
    23b3:	00 00                	add    %al,(%eax)
    23b5:	00 00                	add    %al,(%eax)
    23b7:	00 0f                	add    %cl,(%edi)
    23b9:	00 00                	add    %al,(%eax)
    23bb:	00 10                	add    %dl,(%eax)
    23bd:	00 00                	add    %al,(%eax)
    23bf:	00 02                	add    %al,(%edx)
    23c1:	00 74 04 10          	add    %dh,0x10(%esp,%eax,1)
    23c5:	00 00                	add    %al,(%eax)
    23c7:	00 12                	add    %dl,(%edx)
    23c9:	00 00                	add    %al,(%eax)
    23cb:	00 02                	add    %al,(%edx)
    23cd:	00 74 08 12          	add    %dh,0x12(%eax,%ecx,1)
    23d1:	00 00                	add    %al,(%eax)
    23d3:	00 18                	add    %bl,(%eax)
    23d5:	00 00                	add    %al,(%eax)
    23d7:	00 02                	add    %al,(%edx)
    23d9:	00 75 08             	add    %dh,0x8(%ebp)
    23dc:	18 00                	sbb    %al,(%eax)
    23de:	00 00                	add    %al,(%eax)
    23e0:	19 00                	sbb    %eax,(%eax)
    23e2:	00 00                	add    %al,(%eax)
    23e4:	02 00                	add    (%eax),%al
    23e6:	74 04                	je     23ec <thread_run-0xffdc14>
	...
    23f0:	19 00                	sbb    %eax,(%eax)
    23f2:	00 00                	add    %al,(%eax)
    23f4:	1a 00                	sbb    (%eax),%al
    23f6:	00 00                	add    %al,(%eax)
    23f8:	02 00                	add    (%eax),%al
    23fa:	74 04                	je     2400 <thread_run-0xffdc00>
    23fc:	1a 00                	sbb    (%eax),%al
    23fe:	00 00                	add    %al,(%eax)
    2400:	1c 00                	sbb    $0x0,%al
    2402:	00 00                	add    %al,(%eax)
    2404:	02 00                	add    (%eax),%al
    2406:	74 08                	je     2410 <thread_run-0xffdbf0>
    2408:	1c 00                	sbb    $0x0,%al
    240a:	00 00                	add    %al,(%eax)
    240c:	22 00                	and    (%eax),%al
    240e:	00 00                	add    %al,(%eax)
    2410:	02 00                	add    (%eax),%al
    2412:	75 08                	jne    241c <thread_run-0xffdbe4>
    2414:	22 00                	and    (%eax),%al
    2416:	00 00                	add    %al,(%eax)
    2418:	23 00                	and    (%eax),%eax
    241a:	00 00                	add    %al,(%eax)
    241c:	02 00                	add    (%eax),%al
    241e:	74 04                	je     2424 <thread_run-0xffdbdc>
	...
    2428:	23 00                	and    (%eax),%eax
    242a:	00 00                	add    %al,(%eax)
    242c:	24 00                	and    $0x0,%al
    242e:	00 00                	add    %al,(%eax)
    2430:	02 00                	add    (%eax),%al
    2432:	74 04                	je     2438 <thread_run-0xffdbc8>
    2434:	24 00                	and    $0x0,%al
    2436:	00 00                	add    %al,(%eax)
    2438:	26 00 00             	add    %al,%es:(%eax)
    243b:	00 02                	add    %al,(%edx)
    243d:	00 74 08 26          	add    %dh,0x26(%eax,%ecx,1)
    2441:	00 00                	add    %al,(%eax)
    2443:	00 2c 00             	add    %ch,(%eax,%eax,1)
    2446:	00 00                	add    %al,(%eax)
    2448:	02 00                	add    (%eax),%al
    244a:	75 08                	jne    2454 <thread_run-0xffdbac>
    244c:	2c 00                	sub    $0x0,%al
    244e:	00 00                	add    %al,(%eax)
    2450:	2d 00 00 00 02       	sub    $0x2000000,%eax
    2455:	00 74 04 00          	add    %dh,0x0(%esp,%eax,1)
    2459:	00 00                	add    %al,(%eax)
    245b:	00 00                	add    %al,(%eax)
    245d:	00 00                	add    %al,(%eax)
    245f:	00 2d 00 00 00 2e    	add    %ch,0x2e000000
    2465:	00 00                	add    %al,(%eax)
    2467:	00 02                	add    %al,(%edx)
    2469:	00 74 04 2e          	add    %dh,0x2e(%esp,%eax,1)
    246d:	00 00                	add    %al,(%eax)
    246f:	00 30                	add    %dh,(%eax)
    2471:	00 00                	add    %al,(%eax)
    2473:	00 02                	add    %al,(%edx)
    2475:	00 74 08 30          	add    %dh,0x30(%eax,%ecx,1)
    2479:	00 00                	add    %al,(%eax)
    247b:	00 36                	add    %dh,(%esi)
    247d:	00 00                	add    %al,(%eax)
    247f:	00 02                	add    %al,(%edx)
    2481:	00 75 08             	add    %dh,0x8(%ebp)
    2484:	36 00 00             	add    %al,%ss:(%eax)
    2487:	00 37                	add    %dh,(%edi)
    2489:	00 00                	add    %al,(%eax)
    248b:	00 02                	add    %al,(%edx)
    248d:	00 74 04 00          	add    %dh,0x0(%esp,%eax,1)
    2491:	00 00                	add    %al,(%eax)
    2493:	00 00                	add    %al,(%eax)
    2495:	00 00                	add    %al,(%eax)
    2497:	00 37                	add    %dh,(%edi)
    2499:	00 00                	add    %al,(%eax)
    249b:	00 38                	add    %bh,(%eax)
    249d:	00 00                	add    %al,(%eax)
    249f:	00 02                	add    %al,(%edx)
    24a1:	00 74 04 38          	add    %dh,0x38(%esp,%eax,1)
    24a5:	00 00                	add    %al,(%eax)
    24a7:	00 3a                	add    %bh,(%edx)
    24a9:	00 00                	add    %al,(%eax)
    24ab:	00 02                	add    %al,(%edx)
    24ad:	00 74 08 3a          	add    %dh,0x3a(%eax,%ecx,1)
    24b1:	00 00                	add    %al,(%eax)
    24b3:	00 40 00             	add    %al,0x0(%eax)
    24b6:	00 00                	add    %al,(%eax)
    24b8:	02 00                	add    (%eax),%al
    24ba:	75 08                	jne    24c4 <thread_run-0xffdb3c>
    24bc:	40                   	inc    %eax
    24bd:	00 00                	add    %al,(%eax)
    24bf:	00 41 00             	add    %al,0x0(%ecx)
    24c2:	00 00                	add    %al,(%eax)
    24c4:	02 00                	add    (%eax),%al
    24c6:	74 04                	je     24cc <thread_run-0xffdb34>
	...
    24d0:	41                   	inc    %ecx
    24d1:	00 00                	add    %al,(%eax)
    24d3:	00 42 00             	add    %al,0x0(%edx)
    24d6:	00 00                	add    %al,(%eax)
    24d8:	02 00                	add    (%eax),%al
    24da:	74 04                	je     24e0 <thread_run-0xffdb20>
    24dc:	42                   	inc    %edx
    24dd:	00 00                	add    %al,(%eax)
    24df:	00 44 00 00          	add    %al,0x0(%eax,%eax,1)
    24e3:	00 02                	add    %al,(%edx)
    24e5:	00 74 08 44          	add    %dh,0x44(%eax,%ecx,1)
    24e9:	00 00                	add    %al,(%eax)
    24eb:	00 4a 00             	add    %cl,0x0(%edx)
    24ee:	00 00                	add    %al,(%eax)
    24f0:	02 00                	add    (%eax),%al
    24f2:	75 08                	jne    24fc <thread_run-0xffdb04>
    24f4:	4a                   	dec    %edx
    24f5:	00 00                	add    %al,(%eax)
    24f7:	00 4b 00             	add    %cl,0x0(%ebx)
    24fa:	00 00                	add    %al,(%eax)
    24fc:	02 00                	add    (%eax),%al
    24fe:	74 04                	je     2504 <thread_run-0xffdafc>
	...
    2508:	4b                   	dec    %ebx
    2509:	00 00                	add    %al,(%eax)
    250b:	00 4c 00 00          	add    %cl,0x0(%eax,%eax,1)
    250f:	00 02                	add    %al,(%edx)
    2511:	00 74 04 4c          	add    %dh,0x4c(%esp,%eax,1)
    2515:	00 00                	add    %al,(%eax)
    2517:	00 4e 00             	add    %cl,0x0(%esi)
    251a:	00 00                	add    %al,(%eax)
    251c:	02 00                	add    (%eax),%al
    251e:	74 08                	je     2528 <thread_run-0xffdad8>
    2520:	4e                   	dec    %esi
    2521:	00 00                	add    %al,(%eax)
    2523:	00 54 00 00          	add    %dl,0x0(%eax,%eax,1)
    2527:	00 02                	add    %al,(%edx)
    2529:	00 75 08             	add    %dh,0x8(%ebp)
    252c:	54                   	push   %esp
    252d:	00 00                	add    %al,(%eax)
    252f:	00 55 00             	add    %dl,0x0(%ebp)
    2532:	00 00                	add    %al,(%eax)
    2534:	02 00                	add    (%eax),%al
    2536:	74 04                	je     253c <thread_run-0xffdac4>
	...
    2540:	55                   	push   %ebp
    2541:	00 00                	add    %al,(%eax)
    2543:	00 56 00             	add    %dl,0x0(%esi)
    2546:	00 00                	add    %al,(%eax)
    2548:	02 00                	add    (%eax),%al
    254a:	74 04                	je     2550 <thread_run-0xffdab0>
    254c:	56                   	push   %esi
    254d:	00 00                	add    %al,(%eax)
    254f:	00 58 00             	add    %bl,0x0(%eax)
    2552:	00 00                	add    %al,(%eax)
    2554:	02 00                	add    (%eax),%al
    2556:	74 08                	je     2560 <thread_run-0xffdaa0>
    2558:	58                   	pop    %eax
    2559:	00 00                	add    %al,(%eax)
    255b:	00 5e 00             	add    %bl,0x0(%esi)
    255e:	00 00                	add    %al,(%eax)
    2560:	02 00                	add    (%eax),%al
    2562:	75 08                	jne    256c <thread_run-0xffda94>
    2564:	5e                   	pop    %esi
    2565:	00 00                	add    %al,(%eax)
    2567:	00 5f 00             	add    %bl,0x0(%edi)
    256a:	00 00                	add    %al,(%eax)
    256c:	02 00                	add    (%eax),%al
    256e:	74 04                	je     2574 <thread_run-0xffda8c>
	...
    2578:	5f                   	pop    %edi
    2579:	00 00                	add    %al,(%eax)
    257b:	00 60 00             	add    %ah,0x0(%eax)
    257e:	00 00                	add    %al,(%eax)
    2580:	02 00                	add    (%eax),%al
    2582:	74 04                	je     2588 <thread_run-0xffda78>
    2584:	60                   	pusha  
    2585:	00 00                	add    %al,(%eax)
    2587:	00 62 00             	add    %ah,0x0(%edx)
    258a:	00 00                	add    %al,(%eax)
    258c:	02 00                	add    (%eax),%al
    258e:	74 08                	je     2598 <thread_run-0xffda68>
    2590:	62 00                	bound  %eax,(%eax)
    2592:	00 00                	add    %al,(%eax)
    2594:	68 00 00 00 02       	push   $0x2000000
    2599:	00 75 08             	add    %dh,0x8(%ebp)
    259c:	68 00 00 00 69       	push   $0x69000000
    25a1:	00 00                	add    %al,(%eax)
    25a3:	00 02                	add    %al,(%edx)
    25a5:	00 74 04 00          	add    %dh,0x0(%esp,%eax,1)
    25a9:	00 00                	add    %al,(%eax)
    25ab:	00 00                	add    %al,(%eax)
    25ad:	00 00                	add    %al,(%eax)
    25af:	00 69 00             	add    %ch,0x0(%ecx)
    25b2:	00 00                	add    %al,(%eax)
    25b4:	6a 00                	push   $0x0
    25b6:	00 00                	add    %al,(%eax)
    25b8:	02 00                	add    (%eax),%al
    25ba:	74 04                	je     25c0 <thread_run-0xffda40>
    25bc:	6a 00                	push   $0x0
    25be:	00 00                	add    %al,(%eax)
    25c0:	6c                   	insb   (%dx),%es:(%edi)
    25c1:	00 00                	add    %al,(%eax)
    25c3:	00 02                	add    %al,(%edx)
    25c5:	00 74 08 6c          	add    %dh,0x6c(%eax,%ecx,1)
    25c9:	00 00                	add    %al,(%eax)
    25cb:	00 72 00             	add    %dh,0x0(%edx)
    25ce:	00 00                	add    %al,(%eax)
    25d0:	02 00                	add    (%eax),%al
    25d2:	75 08                	jne    25dc <thread_run-0xffda24>
    25d4:	72 00                	jb     25d6 <thread_run-0xffda2a>
    25d6:	00 00                	add    %al,(%eax)
    25d8:	73 00                	jae    25da <thread_run-0xffda26>
    25da:	00 00                	add    %al,(%eax)
    25dc:	02 00                	add    (%eax),%al
    25de:	74 04                	je     25e4 <thread_run-0xffda1c>
	...
    25e8:	73 00                	jae    25ea <thread_run-0xffda16>
    25ea:	00 00                	add    %al,(%eax)
    25ec:	74 00                	je     25ee <thread_run-0xffda12>
    25ee:	00 00                	add    %al,(%eax)
    25f0:	02 00                	add    (%eax),%al
    25f2:	74 04                	je     25f8 <thread_run-0xffda08>
    25f4:	74 00                	je     25f6 <thread_run-0xffda0a>
    25f6:	00 00                	add    %al,(%eax)
    25f8:	76 00                	jbe    25fa <thread_run-0xffda06>
    25fa:	00 00                	add    %al,(%eax)
    25fc:	02 00                	add    (%eax),%al
    25fe:	74 08                	je     2608 <thread_run-0xffd9f8>
    2600:	76 00                	jbe    2602 <thread_run-0xffd9fe>
    2602:	00 00                	add    %al,(%eax)
    2604:	7c 00                	jl     2606 <thread_run-0xffd9fa>
    2606:	00 00                	add    %al,(%eax)
    2608:	02 00                	add    (%eax),%al
    260a:	75 08                	jne    2614 <thread_run-0xffd9ec>
    260c:	7c 00                	jl     260e <thread_run-0xffd9f2>
    260e:	00 00                	add    %al,(%eax)
    2610:	7d 00                	jge    2612 <thread_run-0xffd9ee>
    2612:	00 00                	add    %al,(%eax)
    2614:	02 00                	add    (%eax),%al
    2616:	74 04                	je     261c <thread_run-0xffd9e4>
	...
    2620:	7d 00                	jge    2622 <thread_run-0xffd9de>
    2622:	00 00                	add    %al,(%eax)
    2624:	7e 00                	jle    2626 <thread_run-0xffd9da>
    2626:	00 00                	add    %al,(%eax)
    2628:	02 00                	add    (%eax),%al
    262a:	74 04                	je     2630 <thread_run-0xffd9d0>
    262c:	7e 00                	jle    262e <thread_run-0xffd9d2>
    262e:	00 00                	add    %al,(%eax)
    2630:	80 00 00             	addb   $0x0,(%eax)
    2633:	00 02                	add    %al,(%edx)
    2635:	00 74 08 80          	add    %dh,-0x80(%eax,%ecx,1)
    2639:	00 00                	add    %al,(%eax)
    263b:	00 86 00 00 00 02    	add    %al,0x2000000(%esi)
    2641:	00 75 08             	add    %dh,0x8(%ebp)
    2644:	86 00                	xchg   %al,(%eax)
    2646:	00 00                	add    %al,(%eax)
    2648:	87 00                	xchg   %eax,(%eax)
    264a:	00 00                	add    %al,(%eax)
    264c:	02 00                	add    (%eax),%al
    264e:	74 04                	je     2654 <thread_run-0xffd9ac>
	...
    2658:	87 00                	xchg   %eax,(%eax)
    265a:	00 00                	add    %al,(%eax)
    265c:	88 00                	mov    %al,(%eax)
    265e:	00 00                	add    %al,(%eax)
    2660:	02 00                	add    (%eax),%al
    2662:	74 04                	je     2668 <thread_run-0xffd998>
    2664:	88 00                	mov    %al,(%eax)
    2666:	00 00                	add    %al,(%eax)
    2668:	8a 00                	mov    (%eax),%al
    266a:	00 00                	add    %al,(%eax)
    266c:	02 00                	add    (%eax),%al
    266e:	74 08                	je     2678 <thread_run-0xffd988>
    2670:	8a 00                	mov    (%eax),%al
    2672:	00 00                	add    %al,(%eax)
    2674:	8c 00                	mov    %es,(%eax)
    2676:	00 00                	add    %al,(%eax)
    2678:	02 00                	add    (%eax),%al
    267a:	75 08                	jne    2684 <thread_run-0xffd97c>
	...
    2684:	8c 00                	mov    %es,(%eax)
    2686:	00 00                	add    %al,(%eax)
    2688:	8d 00                	lea    (%eax),%eax
    268a:	00 00                	add    %al,(%eax)
    268c:	02 00                	add    (%eax),%al
    268e:	74 04                	je     2694 <thread_run-0xffd96c>
    2690:	8d 00                	lea    (%eax),%eax
    2692:	00 00                	add    %al,(%eax)
    2694:	8f 00                	popl   (%eax)
    2696:	00 00                	add    %al,(%eax)
    2698:	02 00                	add    (%eax),%al
    269a:	74 08                	je     26a4 <thread_run-0xffd95c>
    269c:	8f 00                	popl   (%eax)
    269e:	00 00                	add    %al,(%eax)
    26a0:	95                   	xchg   %eax,%ebp
    26a1:	00 00                	add    %al,(%eax)
    26a3:	00 02                	add    %al,(%edx)
    26a5:	00 75 08             	add    %dh,0x8(%ebp)
    26a8:	95                   	xchg   %eax,%ebp
    26a9:	00 00                	add    %al,(%eax)
    26ab:	00 96 00 00 00 02    	add    %dl,0x2000000(%esi)
    26b1:	00 74 04 00          	add    %dh,0x0(%esp,%eax,1)
    26b5:	00 00                	add    %al,(%eax)
    26b7:	00 00                	add    %al,(%eax)
    26b9:	00 00                	add    %al,(%eax)
    26bb:	00 96 00 00 00 97    	add    %dl,-0x69000000(%esi)
    26c1:	00 00                	add    %al,(%eax)
    26c3:	00 02                	add    %al,(%edx)
    26c5:	00 74 04 97          	add    %dh,-0x69(%esp,%eax,1)
    26c9:	00 00                	add    %al,(%eax)
    26cb:	00 99 00 00 00 02    	add    %bl,0x2000000(%ecx)
    26d1:	00 74 08 99          	add    %dh,-0x67(%eax,%ecx,1)
    26d5:	00 00                	add    %al,(%eax)
    26d7:	00 9b 00 00 00 02    	add    %bl,0x2000000(%ebx)
    26dd:	00 75 08             	add    %dh,0x8(%ebp)
	...
    26e8:	9b                   	fwait
    26e9:	00 00                	add    %al,(%eax)
    26eb:	00 9c 00 00 00 02 00 	add    %bl,0x20000(%eax,%eax,1)
    26f2:	74 04                	je     26f8 <thread_run-0xffd908>
    26f4:	9c                   	pushf  
    26f5:	00 00                	add    %al,(%eax)
    26f7:	00 9e 00 00 00 02    	add    %bl,0x2000000(%esi)
    26fd:	00 74 08 9e          	add    %dh,-0x62(%eax,%ecx,1)
    2701:	00 00                	add    %al,(%eax)
    2703:	00 a4 00 00 00 02 00 	add    %ah,0x20000(%eax,%eax,1)
    270a:	75 08                	jne    2714 <thread_run-0xffd8ec>
    270c:	a4                   	movsb  %ds:(%esi),%es:(%edi)
    270d:	00 00                	add    %al,(%eax)
    270f:	00 a5 00 00 00 02    	add    %ah,0x2000000(%ebp)
    2715:	00 74 04 00          	add    %dh,0x0(%esp,%eax,1)
    2719:	00 00                	add    %al,(%eax)
    271b:	00 00                	add    %al,(%eax)
    271d:	00 00                	add    %al,(%eax)
    271f:	00 a5 00 00 00 a6    	add    %ah,-0x5a000000(%ebp)
    2725:	00 00                	add    %al,(%eax)
    2727:	00 02                	add    %al,(%edx)
    2729:	00 74 04 a6          	add    %dh,-0x5a(%esp,%eax,1)
    272d:	00 00                	add    %al,(%eax)
    272f:	00 a8 00 00 00 02    	add    %ch,0x2000000(%eax)
    2735:	00 74 08 a8          	add    %dh,-0x58(%eax,%ecx,1)
    2739:	00 00                	add    %al,(%eax)
    273b:	00 a9 00 00 00 02    	add    %ch,0x2000000(%ecx)
    2741:	00 75 08             	add    %dh,0x8(%ebp)
    2744:	a9 00 00 00 aa       	test   $0xaa000000,%eax
    2749:	00 00                	add    %al,(%eax)
    274b:	00 02                	add    %al,(%edx)
    274d:	00 74 04 00          	add    %dh,0x0(%esp,%eax,1)
	...
    2759:	00 00                	add    %al,(%eax)
    275b:	00 01                	add    %al,(%ecx)
    275d:	00 00                	add    %al,(%eax)
    275f:	00 02                	add    %al,(%edx)
    2761:	00 74 04 01          	add    %dh,0x1(%esp,%eax,1)
    2765:	00 00                	add    %al,(%eax)
    2767:	00 03                	add    %al,(%ebx)
    2769:	00 00                	add    %al,(%eax)
    276b:	00 02                	add    %al,(%edx)
    276d:	00 74 08 03          	add    %dh,0x3(%eax,%ecx,1)
    2771:	00 00                	add    %al,(%eax)
    2773:	00 46 00             	add    %al,0x0(%esi)
    2776:	00 00                	add    %al,(%eax)
    2778:	02 00                	add    (%eax),%al
    277a:	75 08                	jne    2784 <thread_run-0xffd87c>
    277c:	46                   	inc    %esi
    277d:	00 00                	add    %al,(%eax)
    277f:	00 47 00             	add    %al,0x0(%edi)
    2782:	00 00                	add    %al,(%eax)
    2784:	02 00                	add    (%eax),%al
    2786:	74 08                	je     2790 <thread_run-0xffd870>
    2788:	47                   	inc    %edi
    2789:	00 00                	add    %al,(%eax)
    278b:	00 48 00             	add    %cl,0x0(%eax)
    278e:	00 00                	add    %al,(%eax)
    2790:	02 00                	add    (%eax),%al
    2792:	74 04                	je     2798 <thread_run-0xffd868>
	...
    27a0:	01 00                	add    %eax,(%eax)
    27a2:	00 00                	add    %al,(%eax)
    27a4:	02 00                	add    (%eax),%al
    27a6:	74 04                	je     27ac <thread_run-0xffd854>
    27a8:	01 00                	add    %eax,(%eax)
    27aa:	00 00                	add    %al,(%eax)
    27ac:	03 00                	add    (%eax),%eax
    27ae:	00 00                	add    %al,(%eax)
    27b0:	02 00                	add    (%eax),%al
    27b2:	74 08                	je     27bc <thread_run-0xffd844>
    27b4:	03 00                	add    (%eax),%eax
    27b6:	00 00                	add    %al,(%eax)
    27b8:	67 00 00             	add    %al,(%bx,%si)
    27bb:	00 02                	add    %al,(%edx)
    27bd:	00 75 08             	add    %dh,0x8(%ebp)
    27c0:	67 00 00             	add    %al,(%bx,%si)
    27c3:	00 68 00             	add    %ch,0x0(%eax)
    27c6:	00 00                	add    %al,(%eax)
    27c8:	02 00                	add    (%eax),%al
    27ca:	74 04                	je     27d0 <thread_run-0xffd830>
	...
    27d8:	52                   	push   %edx
    27d9:	00 00                	add    %al,(%eax)
    27db:	00 01                	add    %al,(%ecx)
    27dd:	00 50 00             	add    %dl,0x0(%eax)
	...
    27e8:	00 00                	add    %al,(%eax)
    27ea:	00 12                	add    %dl,(%edx)
    27ec:	00 00                	add    %al,(%eax)
    27ee:	00 01                	add    %al,(%ecx)
    27f0:	00 52 12             	add    %dl,0x12(%edx)
    27f3:	00 00                	add    %al,(%eax)
    27f5:	00 25 00 00 00 01    	add    %ah,0x1000000
    27fb:	00 57 25             	add    %dl,0x25(%edi)
    27fe:	00 00                	add    %al,(%eax)
    2800:	00 4f 00             	add    %cl,0x0(%edi)
    2803:	00 00                	add    %al,(%eax)
    2805:	02 00                	add    (%eax),%al
    2807:	91                   	xchg   %eax,%ecx
    2808:	60                   	pusha  
	...
    2815:	17                   	pop    %ss
    2816:	00 00                	add    %al,(%eax)
    2818:	00 01                	add    %al,(%ecx)
    281a:	00 51 17             	add    %dl,0x17(%ecx)
    281d:	00 00                	add    %al,(%eax)
    281f:	00 65 00             	add    %ah,0x0(%ebp)
    2822:	00 00                	add    %al,(%eax)
    2824:	01 00                	add    %eax,(%eax)
    2826:	56                   	push   %esi
	...
    282f:	0d 00 00 00 25       	or     $0x25000000,%eax
    2834:	00 00                	add    %al,(%eax)
    2836:	00 02                	add    %al,(%edx)
    2838:	00 30                	add    %dh,(%eax)
    283a:	9f                   	lahf   
    283b:	45                   	inc    %ebp
    283c:	00 00                	add    %al,(%eax)
    283e:	00 4f 00             	add    %cl,0x0(%edi)
    2841:	00 00                	add    %al,(%eax)
    2843:	01 00                	add    %eax,(%eax)
    2845:	52                   	push   %edx
	...
    284e:	68 00 00 00 69       	push   $0x69000000
    2853:	00 00                	add    %al,(%eax)
    2855:	00 02                	add    %al,(%edx)
    2857:	00 74 04 69          	add    %dh,0x69(%esp,%eax,1)
    285b:	00 00                	add    %al,(%eax)
    285d:	00 6b 00             	add    %ch,0x0(%ebx)
    2860:	00 00                	add    %al,(%eax)
    2862:	02 00                	add    (%eax),%al
    2864:	74 08                	je     286e <thread_run-0xffd792>
    2866:	6b 00 00             	imul   $0x0,(%eax),%eax
    2869:	00 db                	add    %bl,%bl
    286b:	04 00                	add    $0x0,%al
    286d:	00 02                	add    %al,(%edx)
    286f:	00 75 08             	add    %dh,0x8(%ebp)
    2872:	db 04 00             	fildl  (%eax,%eax,1)
    2875:	00 dc                	add    %bl,%ah
    2877:	04 00                	add    $0x0,%al
    2879:	00 02                	add    %al,(%edx)
    287b:	00 74 04 00          	add    %dh,0x0(%esp,%eax,1)
    287f:	00 00                	add    %al,(%eax)
    2881:	00 00                	add    %al,(%eax)
    2883:	00 00                	add    %al,(%eax)
    2885:	00 d0                	add    %dl,%al
    2887:	00 00                	add    %al,(%eax)
    2889:	00 46 02             	add    %al,0x2(%esi)
    288c:	00 00                	add    %al,(%eax)
    288e:	04 00                	add    $0x0,%al
    2890:	74 d8                	je     286a <thread_run-0xffd796>
    2892:	00 9f 49 02 00 00    	add    %bl,0x249(%edi)
    2898:	53                   	push   %ebx
    2899:	02 00                	add    (%eax),%al
    289b:	00 01                	add    %al,(%ecx)
    289d:	00 56 53             	add    %dl,0x53(%esi)
    28a0:	02 00                	add    (%eax),%al
    28a2:	00 59 02             	add    %bl,0x2(%ecx)
    28a5:	00 00                	add    %al,(%eax)
    28a7:	03 00                	add    (%eax),%eax
    28a9:	70 7c                	jo     2927 <thread_run-0xffd6d9>
    28ab:	9f                   	lahf   
    28ac:	59                   	pop    %ecx
    28ad:	02 00                	add    (%eax),%al
    28af:	00 05 03 00 00 01    	add    %al,0x1000003
    28b5:	00 56 05             	add    %dl,0x5(%esi)
    28b8:	03 00                	add    (%eax),%eax
    28ba:	00 d4                	add    %dl,%ah
    28bc:	04 00                	add    $0x0,%al
    28be:	00 02                	add    %al,(%edx)
    28c0:	00 74 24 00          	add    %dh,0x0(%esp)
    28c4:	00 00                	add    %al,(%eax)
    28c6:	00 00                	add    %al,(%eax)
    28c8:	00 00                	add    %al,(%eax)
    28ca:	00 d0                	add    %dl,%al
    28cc:	00 00                	add    %al,(%eax)
    28ce:	00 50 01             	add    %dl,0x1(%eax)
    28d1:	00 00                	add    %al,(%eax)
    28d3:	04 00                	add    $0x0,%al
    28d5:	74 c4                	je     289b <thread_run-0xffd765>
    28d7:	00 9f 50 01 00 00    	add    %bl,0x150(%edi)
    28dd:	75 01                	jne    28e0 <thread_run-0xffd720>
    28df:	00 00                	add    %al,(%eax)
    28e1:	04 00                	add    $0x0,%al
    28e3:	74 c8                	je     28ad <thread_run-0xffd753>
    28e5:	00 9f 75 01 00 00    	add    %bl,0x175(%edi)
    28eb:	28 02                	sub    %al,(%edx)
    28ed:	00 00                	add    %al,(%eax)
    28ef:	04 00                	add    $0x0,%al
    28f1:	74 cc                	je     28bf <thread_run-0xffd741>
    28f3:	00 9f 00 00 00 00    	add    %bl,0x0(%edi)
    28f9:	00 00                	add    %al,(%eax)
    28fb:	00 00                	add    %al,(%eax)
    28fd:	d0 00                	rolb   (%eax)
    28ff:	00 00                	add    %al,(%eax)
    2901:	84 02                	test   %al,(%edx)
    2903:	00 00                	add    %al,(%eax)
    2905:	03 00                	add    (%eax),%eax
    2907:	74 30                	je     2939 <thread_run-0xffd6c7>
    2909:	9f                   	lahf   
    290a:	84 02                	test   %al,(%edx)
    290c:	00 00                	add    %al,(%eax)
    290e:	ab                   	stos   %eax,%es:(%edi)
    290f:	02 00                	add    (%eax),%al
    2911:	00 01                	add    %al,(%ecx)
    2913:	00 57 ab             	add    %dl,-0x55(%edi)
    2916:	02 00                	add    (%eax),%al
    2918:	00 d4                	add    %dl,%ah
    291a:	04 00                	add    $0x0,%al
    291c:	00 02                	add    %al,(%edx)
    291e:	00 74 04 00          	add    %dh,0x0(%esp,%eax,1)
    2922:	00 00                	add    %al,(%eax)
    2924:	00 00                	add    %al,(%eax)
    2926:	00 00                	add    %al,(%eax)
    2928:	00 dc                	add    %bl,%ah
    292a:	02 00                	add    (%eax),%al
    292c:	00 d4                	add    %dl,%ah
    292e:	04 00                	add    $0x0,%al
    2930:	00 03                	add    %al,(%ebx)
    2932:	00 74 28 06          	add    %dh,0x6(%eax,%ebp,1)
	...
    293e:	e7 02                	out    %eax,$0x2
    2940:	00 00                	add    %al,(%eax)
    2942:	d4 04                	aam    $0x4
    2944:	00 00                	add    %al,(%eax)
    2946:	05 00 74 2c 06       	add    $0x62c7400,%eax
    294b:	23 08                	and    (%eax),%ecx
	...
    2955:	3b 03                	cmp    (%ebx),%eax
    2957:	00 00                	add    %al,(%eax)
    2959:	74 03                	je     295e <thread_run-0xffd6a2>
    295b:	00 00                	add    %al,(%eax)
    295d:	01 00                	add    %eax,(%eax)
    295f:	50                   	push   %eax
    2960:	74 03                	je     2965 <thread_run-0xffd69b>
    2962:	00 00                	add    %al,(%eax)
    2964:	ac                   	lods   %ds:(%esi),%al
    2965:	03 00                	add    (%eax),%eax
    2967:	00 02                	add    %al,(%edx)
    2969:	00 74 2c ca          	add    %dh,-0x36(%esp,%ebp,1)
    296d:	03 00                	add    (%eax),%eax
    296f:	00 e2                	add    %ah,%dl
    2971:	03 00                	add    (%eax),%eax
    2973:	00 03                	add    %al,(%ebx)
    2975:	00 70 7f             	add    %dh,0x7f(%eax)
    2978:	9f                   	lahf   
    2979:	e2 03                	loop   297e <thread_run-0xffd682>
    297b:	00 00                	add    %al,(%eax)
    297d:	fb                   	sti    
    297e:	03 00                	add    (%eax),%eax
    2980:	00 03                	add    %al,(%ebx)
    2982:	00 77 7f             	add    %dh,0x7f(%edi)
    2985:	9f                   	lahf   
    2986:	fb                   	sti    
    2987:	03 00                	add    (%eax),%eax
    2989:	00 fe                	add    %bh,%dh
    298b:	03 00                	add    (%eax),%eax
    298d:	00 03                	add    %al,(%ebx)
    298f:	00 70 7f             	add    %dh,0x7f(%eax)
    2992:	9f                   	lahf   
    2993:	fe 03                	incb   (%ebx)
    2995:	00 00                	add    %al,(%eax)
    2997:	49                   	dec    %ecx
    2998:	04 00                	add    $0x0,%al
    299a:	00 01                	add    %al,(%ecx)
    299c:	00 50 49             	add    %dl,0x49(%eax)
    299f:	04 00                	add    $0x0,%al
    29a1:	00 d4                	add    %dl,%ah
    29a3:	04 00                	add    $0x0,%al
    29a5:	00 09                	add    %cl,(%ecx)
    29a7:	00 74 1c 06          	add    %dh,0x6(%esp,%ebx,1)
    29ab:	32 24 74             	xor    (%esp,%esi,2),%ah
    29ae:	04 06                	add    $0x6,%al
    29b0:	22 00                	and    (%eax),%al
    29b2:	00 00                	add    %al,(%eax)
    29b4:	00 00                	add    %al,(%eax)
    29b6:	00 00                	add    %al,(%eax)
    29b8:	00 34 03             	add    %dh,(%ebx,%eax,1)
    29bb:	00 00                	add    %al,(%eax)
    29bd:	36 03 00             	add    %ss:(%eax),%eax
    29c0:	00 01                	add    %al,(%ecx)
    29c2:	00 52 3b             	add    %dl,0x3b(%edx)
    29c5:	03 00                	add    (%eax),%eax
    29c7:	00 70 03             	add    %dh,0x3(%eax)
    29ca:	00 00                	add    %al,(%eax)
    29cc:	01 00                	add    %eax,(%eax)
    29ce:	52                   	push   %edx
	...
    29d7:	81 01 00 00 10 02    	addl   $0x2100000,(%ecx)
    29dd:	00 00                	add    %al,(%eax)
    29df:	03 00                	add    (%eax),%eax
    29e1:	74 d4                	je     29b7 <thread_run-0xffd649>
    29e3:	00 84 02 00 00 b3 02 	add    %al,0x2b30000(%edx,%eax,1)
    29ea:	00 00                	add    %al,(%eax)
    29ec:	01 00                	add    %eax,(%eax)
    29ee:	52                   	push   %edx
    29ef:	5c                   	pop    %esp
    29f0:	03 00                	add    (%eax),%eax
    29f2:	00 74 03 00          	add    %dh,0x0(%ebx,%eax,1)
    29f6:	00 02                	add    %al,(%edx)
    29f8:	00 30                	add    %dh,(%eax)
    29fa:	9f                   	lahf   
    29fb:	86 03                	xchg   %al,(%ebx)
    29fd:	00 00                	add    %al,(%eax)
    29ff:	8c 03                	mov    %es,(%ebx)
    2a01:	00 00                	add    %al,(%eax)
    2a03:	01 00                	add    %eax,(%eax)
    2a05:	57                   	push   %edi
    2a06:	8c 03                	mov    %es,(%ebx)
    2a08:	00 00                	add    %al,(%eax)
    2a0a:	91                   	xchg   %eax,%ecx
    2a0b:	03 00                	add    (%eax),%eax
    2a0d:	00 01                	add    %al,(%ecx)
    2a0f:	00 56 a0             	add    %dl,-0x60(%esi)
    2a12:	03 00                	add    (%eax),%eax
    2a14:	00 ac 03 00 00 01 00 	add    %ch,0x10000(%ebx,%eax,1)
    2a1b:	56                   	push   %esi
    2a1c:	b9 03 00 00 c6       	mov    $0xc6000003,%ecx
    2a21:	03 00                	add    (%eax),%eax
    2a23:	00 01                	add    %al,(%ecx)
    2a25:	00 52 ca             	add    %dl,-0x36(%edx)
    2a28:	03 00                	add    (%eax),%eax
    2a2a:	00 e2                	add    %ah,%dl
    2a2c:	03 00                	add    (%eax),%eax
    2a2e:	00 02                	add    %al,(%edx)
    2a30:	00 30                	add    %dh,(%eax)
    2a32:	9f                   	lahf   
    2a33:	e7 03                	out    %eax,$0x3
    2a35:	00 00                	add    %al,(%eax)
    2a37:	fb                   	sti    
    2a38:	03 00                	add    (%eax),%eax
    2a3a:	00 01                	add    %al,(%ecx)
    2a3c:	00 50 00             	add    %dl,0x0(%eax)
    2a3f:	00 00                	add    %al,(%eax)
    2a41:	00 00                	add    %al,(%eax)
    2a43:	00 00                	add    %al,(%eax)
    2a45:	00 35 02 00 00 46    	add    %dh,0x46000002
    2a4b:	02 00                	add    (%eax),%al
    2a4d:	00 01                	add    %al,(%ecx)
    2a4f:	00 50 46             	add    %dl,0x46(%eax)
    2a52:	02 00                	add    (%eax),%al
    2a54:	00 59 02             	add    %bl,0x2(%ecx)
    2a57:	00 00                	add    %al,(%eax)
    2a59:	01 00                	add    %eax,(%eax)
    2a5b:	51                   	push   %ecx
	...
    2a64:	2f                   	das    
    2a65:	01 00                	add    %eax,(%eax)
    2a67:	00 50 01             	add    %dl,0x1(%eax)
    2a6a:	00 00                	add    %al,(%eax)
    2a6c:	02 00                	add    (%eax),%al
    2a6e:	34 9f                	xor    $0x9f,%al
    2a70:	50                   	push   %eax
    2a71:	01 00                	add    %eax,(%eax)
    2a73:	00 75 01             	add    %dh,0x1(%ebp)
    2a76:	00 00                	add    %al,(%eax)
    2a78:	02 00                	add    (%eax),%al
    2a7a:	33 9f 75 01 00 00    	xor    0x175(%edi),%ebx
    2a80:	81 01 00 00 02 00    	addl   $0x20000,(%ecx)
    2a86:	32 9f 81 01 00 00    	xor    0x181(%edi),%bl
    2a8c:	10 02                	adc    %al,(%edx)
    2a8e:	00 00                	add    %al,(%eax)
    2a90:	02 00                	add    (%eax),%al
    2a92:	31 9f 10 02 00 00    	xor    %ebx,0x210(%edi)
    2a98:	28 02                	sub    %al,(%edx)
    2a9a:	00 00                	add    %al,(%eax)
    2a9c:	02 00                	add    (%eax),%al
    2a9e:	32 9f 00 00 00 00    	xor    0x0(%edi),%bl
    2aa4:	00 00                	add    %al,(%eax)
    2aa6:	00 00                	add    %al,(%eax)
    2aa8:	84 02                	test   %al,(%edx)
    2aaa:	00 00                	add    %al,(%eax)
    2aac:	98                   	cwtl   
    2aad:	02 00                	add    (%eax),%al
    2aaf:	00 02                	add    %al,(%edx)
    2ab1:	00 30                	add    %dh,(%eax)
    2ab3:	9f                   	lahf   
    2ab4:	9b                   	fwait
    2ab5:	02 00                	add    (%eax),%al
    2ab7:	00 bb 02 00 00 01    	add    %bh,0x1000002(%ebx)
    2abd:	00 50 bb             	add    %dl,-0x45(%eax)
    2ac0:	02 00                	add    (%eax),%al
    2ac2:	00 bf 02 00 00 01    	add    %bh,0x1000002(%edi)
    2ac8:	00 51 bf             	add    %dl,-0x41(%ecx)
    2acb:	02 00                	add    (%eax),%al
    2acd:	00 d2                	add    %dl,%dl
    2acf:	02 00                	add    (%eax),%al
    2ad1:	00 01                	add    %al,(%ecx)
    2ad3:	00 57 00             	add    %dl,0x0(%edi)
    2ad6:	00 00                	add    %al,(%eax)
    2ad8:	00 00                	add    %al,(%eax)
    2ada:	00 00                	add    %al,(%eax)
    2adc:	00 d2                	add    %dl,%dl
    2ade:	02 00                	add    (%eax),%al
    2ae0:	00 05 03 00 00 02    	add    %al,0x2000003
    2ae6:	00 30                	add    %dh,(%eax)
    2ae8:	9f                   	lahf   
    2ae9:	05 03 00 00 d4       	add    $0xd4000003,%eax
    2aee:	04 00                	add    $0x0,%al
    2af0:	00 02                	add    %al,(%edx)
    2af2:	00 74 28 00          	add    %dh,0x0(%eax,%ebp,1)
    2af6:	00 00                	add    %al,(%eax)
    2af8:	00 00                	add    %al,(%eax)
    2afa:	00 00                	add    %al,(%eax)
    2afc:	00 62 02             	add    %ah,0x2(%edx)
    2aff:	00 00                	add    %al,(%eax)
    2b01:	6d                   	insl   (%dx),%es:(%edi)
    2b02:	02 00                	add    (%eax),%al
    2b04:	00 03                	add    %al,(%ebx)
    2b06:	00 77 7f             	add    %dh,0x7f(%edi)
    2b09:	9f                   	lahf   
    2b0a:	6d                   	insl   (%dx),%es:(%edi)
    2b0b:	02 00                	add    (%eax),%al
    2b0d:	00 98 02 00 00 01    	add    %bl,0x1000002(%eax)
    2b13:	00 50 5c             	add    %dl,0x5c(%eax)
    2b16:	03 00                	add    (%eax),%eax
    2b18:	00 74 03 00          	add    %dh,0x0(%ebx,%eax,1)
    2b1c:	00 02                	add    %al,(%edx)
    2b1e:	00 74 20 74          	add    %dh,0x74(%eax,%eiz,1)
    2b22:	03 00                	add    (%eax),%eax
    2b24:	00 a0 03 00 00 01    	add    %ah,0x1000003(%eax)
    2b2a:	00 52 a0             	add    %dl,-0x60(%edx)
    2b2d:	03 00                	add    (%eax),%eax
    2b2f:	00 a6 03 00 00 03    	add    %ah,0x3000003(%esi)
    2b35:	00 72 7f             	add    %dh,0x7f(%edx)
    2b38:	9f                   	lahf   
    2b39:	a6                   	cmpsb  %es:(%edi),%ds:(%esi)
    2b3a:	03 00                	add    (%eax),%eax
    2b3c:	00 ac 03 00 00 01 00 	add    %ch,0x10000(%ebx,%eax,1)
    2b43:	52                   	push   %edx
    2b44:	ca 03 00             	lret   $0x3
    2b47:	00 e2                	add    %ah,%dl
    2b49:	03 00                	add    (%eax),%eax
    2b4b:	00 02                	add    %al,(%edx)
    2b4d:	00 74 20 e2          	add    %dh,-0x1e(%eax,%eiz,1)
    2b51:	03 00                	add    (%eax),%eax
    2b53:	00 ef                	add    %ch,%bh
    2b55:	03 00                	add    (%eax),%eax
    2b57:	00 01                	add    %al,(%ecx)
    2b59:	00 52 ef             	add    %dl,-0x11(%edx)
    2b5c:	03 00                	add    (%eax),%eax
    2b5e:	00 f5                	add    %dh,%ch
    2b60:	03 00                	add    (%eax),%eax
    2b62:	00 03                	add    %al,(%ebx)
    2b64:	00 72 7f             	add    %dh,0x7f(%edx)
    2b67:	9f                   	lahf   
    2b68:	f5                   	cmc    
    2b69:	03 00                	add    (%eax),%eax
    2b6b:	00 fb                	add    %bh,%bl
    2b6d:	03 00                	add    (%eax),%eax
    2b6f:	00 01                	add    %al,(%ecx)
    2b71:	00 52 4d             	add    %dl,0x4d(%edx)
    2b74:	04 00                	add    $0x0,%al
    2b76:	00 94 04 00 00 01 00 	add    %dl,0x10000(%esp,%eax,1)
    2b7d:	50                   	push   %eax
	...
    2b86:	91                   	xchg   %eax,%ecx
    2b87:	01 00                	add    %eax,(%eax)
    2b89:	00 a5 01 00 00 01    	add    %ah,0x1000001(%ebp)
    2b8f:	00 51 a5             	add    %dl,-0x5b(%ecx)
    2b92:	01 00                	add    %eax,(%eax)
    2b94:	00 ac 01 00 00 01 00 	add    %ch,0x10000(%ecx,%eax,1)
    2b9b:	52                   	push   %edx
    2b9c:	ac                   	lods   %ds:(%esi),%al
    2b9d:	01 00                	add    %eax,(%eax)
    2b9f:	00 ae 01 00 00 01    	add    %ch,0x1000001(%esi)
    2ba5:	00 50 ae             	add    %dl,-0x52(%eax)
    2ba8:	01 00                	add    %eax,(%eax)
    2baa:	00 b7 01 00 00 02    	add    %dh,0x2000001(%edi)
    2bb0:	00 74 2c b7          	add    %dh,-0x49(%esp,%ebp,1)
    2bb4:	01 00                	add    %eax,(%eax)
    2bb6:	00 f3                	add    %dh,%bl
    2bb8:	01 00                	add    %eax,(%eax)
    2bba:	00 01                	add    %al,(%ecx)
    2bbc:	00 56 00             	add    %dl,0x0(%esi)
    2bbf:	00 00                	add    %al,(%eax)
    2bc1:	00 00                	add    %al,(%eax)
    2bc3:	00 00                	add    %al,(%eax)
    2bc5:	00 16                	add    %dl,(%esi)
    2bc7:	03 00                	add    (%eax),%eax
    2bc9:	00 d4                	add    %dl,%ah
    2bcb:	04 00                	add    $0x0,%al
    2bcd:	00 09                	add    %cl,(%ecx)
    2bcf:	00 74 28 06          	add    %dh,0x6(%eax,%ebp,1)
    2bd3:	32 24 74             	xor    (%esp,%esi,2),%ah
    2bd6:	24 06                	and    $0x6,%al
    2bd8:	22 00                	and    (%eax),%al
    2bda:	00 00                	add    %al,(%eax)
    2bdc:	00 00                	add    %al,(%eax)
    2bde:	00 00                	add    %al,(%eax)
    2be0:	00 1a                	add    %bl,(%edx)
    2be2:	03 00                	add    (%eax),%eax
    2be4:	00 d4                	add    %dl,%ah
    2be6:	04 00                	add    $0x0,%al
    2be8:	00 0b                	add    %cl,(%ebx)
    2bea:	00 74 28 06          	add    %dh,0x6(%eax,%ebp,1)
    2bee:	32 24 74             	xor    (%esp,%esi,2),%ah
    2bf1:	24 06                	and    $0x6,%al
    2bf3:	22 23                	and    (%ebx),%ah
    2bf5:	04 00                	add    $0x0,%al
    2bf7:	00 00                	add    %al,(%eax)
    2bf9:	00 00                	add    %al,(%eax)
    2bfb:	00 00                	add    %al,(%eax)
    2bfd:	00 1e                	add    %bl,(%esi)
    2bff:	03 00                	add    (%eax),%eax
    2c01:	00 d4                	add    %dl,%ah
    2c03:	04 00                	add    $0x0,%al
    2c05:	00 0b                	add    %cl,(%ebx)
    2c07:	00 74 28 06          	add    %dh,0x6(%eax,%ebp,1)
    2c0b:	32 24 74             	xor    (%esp,%esi,2),%ah
    2c0e:	24 06                	and    $0x6,%al
    2c10:	22 23                	and    (%ebx),%ah
    2c12:	08 00                	or     %al,(%eax)
    2c14:	00 00                	add    %al,(%eax)
    2c16:	00 00                	add    %al,(%eax)
    2c18:	00 00                	add    %al,(%eax)
    2c1a:	00 2b                	add    %ch,(%ebx)
    2c1c:	03 00                	add    (%eax),%eax
    2c1e:	00 34 03             	add    %dh,(%ebx,%eax,1)
    2c21:	00 00                	add    %al,(%eax)
    2c23:	01 00                	add    %eax,(%eax)
    2c25:	50                   	push   %eax
	...
    2c2e:	dc 04 00             	faddl  (%eax,%eax,1)
    2c31:	00 dd                	add    %bl,%ch
    2c33:	04 00                	add    $0x0,%al
    2c35:	00 02                	add    %al,(%edx)
    2c37:	00 74 04 dd          	add    %dh,-0x23(%esp,%eax,1)
    2c3b:	04 00                	add    $0x0,%al
    2c3d:	00 df                	add    %bl,%bh
    2c3f:	04 00                	add    $0x0,%al
    2c41:	00 02                	add    %al,(%edx)
    2c43:	00 74 08 df          	add    %dh,-0x21(%eax,%ecx,1)
    2c47:	04 00                	add    $0x0,%al
    2c49:	00 13                	add    %dl,(%ebx)
    2c4b:	05 00 00 02 00       	add    $0x20000,%eax
    2c50:	75 08                	jne    2c5a <thread_run-0xffd3a6>
    2c52:	13 05 00 00 14 05    	adc    0x5140000,%eax
    2c58:	00 00                	add    %al,(%eax)
    2c5a:	02 00                	add    (%eax),%al
    2c5c:	74 04                	je     2c62 <thread_run-0xffd39e>
	...
    2c66:	0e                   	push   %cs
    2c67:	05 00 00 14 05       	add    $0x5140000,%eax
    2c6c:	00 00                	add    %al,(%eax)
    2c6e:	02 00                	add    (%eax),%al
    2c70:	74 14                	je     2c86 <thread_run-0xffd37a>
	...
    2c7a:	14 05                	adc    $0x5,%al
    2c7c:	00 00                	add    %al,(%eax)
    2c7e:	15 05 00 00 02       	adc    $0x2000005,%eax
    2c83:	00 74 04 15          	add    %dh,0x15(%esp,%eax,1)
    2c87:	05 00 00 17 05       	add    $0x5170000,%eax
    2c8c:	00 00                	add    %al,(%eax)
    2c8e:	02 00                	add    (%eax),%al
    2c90:	74 08                	je     2c9a <thread_run-0xffd366>
    2c92:	17                   	pop    %ss
    2c93:	05 00 00 43 05       	add    $0x5430000,%eax
    2c98:	00 00                	add    %al,(%eax)
    2c9a:	02 00                	add    (%eax),%al
    2c9c:	75 08                	jne    2ca6 <thread_run-0xffd35a>
    2c9e:	43                   	inc    %ebx
    2c9f:	05 00 00 44 05       	add    $0x5440000,%eax
    2ca4:	00 00                	add    %al,(%eax)
    2ca6:	02 00                	add    (%eax),%al
    2ca8:	74 04                	je     2cae <thread_run-0xffd352>
	...

Disassembly of section .debug_pubtypes:

00000000 <.debug_pubtypes>:
   0:	0e                   	push   %cs
   1:	00 00                	add    %al,(%eax)
   3:	00 02                	add    %al,(%edx)
   5:	00 00                	add    %al,(%eax)
   7:	00 00                	add    %al,(%eax)
   9:	00 ec                	add    %ch,%ah
   b:	00 00                	add    %al,(%eax)
   d:	00 00                	add    %al,(%eax)
   f:	00 00                	add    %al,(%eax)
  11:	00 0e                	add    %cl,(%esi)
  13:	00 00                	add    %al,(%eax)
  15:	00 02                	add    %al,(%edx)
  17:	00 ec                	add    %ch,%ah
  19:	00 00                	add    %al,(%eax)
  1b:	00 a2 00 00 00 00    	add    %ah,0x0(%edx)
  21:	00 00                	add    %al,(%eax)
  23:	00 82 00 00 00 02    	add    %al,0x2000000(%edx)
  29:	00 8e 01 00 00 05    	add    %cl,0x5000001(%esi)
  2f:	06                   	push   %es
  30:	00 00                	add    %al,(%eax)
  32:	3c 00                	cmp    $0x0,%al
  34:	00 00                	add    %al,(%eax)
  36:	74 69                	je     a1 <thread_run-0xffff5f>
  38:	64                   	fs
  39:	5f                   	pop    %edi
  3a:	74 00                	je     3c <thread_run-0xffffc4>
  3c:	47                   	inc    %edi
  3d:	00 00                	add    %al,(%eax)
  3f:	00 74 68 72          	add    %dh,0x72(%eax,%ebp,2)
  43:	65                   	gs
  44:	61                   	popa   
  45:	64                   	fs
  46:	5f                   	pop    %edi
  47:	72 65                	jb     ae <thread_run-0xffff52>
  49:	75 73                	jne    be <thread_run-0xffff42>
  4b:	65                   	gs
  4c:	5f                   	pop    %edi
  4d:	73 74                	jae    c3 <thread_run-0xffff3d>
  4f:	61                   	popa   
  50:	63 6b 5f             	arpl   %bp,0x5f(%ebx)
  53:	73 00                	jae    55 <thread_run-0xffffab>
  55:	7c 00                	jl     57 <thread_run-0xffffa9>
  57:	00 00                	add    %al,(%eax)
  59:	74 68                	je     c3 <thread_run-0xffff3d>
  5b:	72 65                	jb     c2 <thread_run-0xffff3e>
  5d:	61                   	popa   
  5e:	64                   	fs
  5f:	5f                   	pop    %edi
  60:	72 65                	jb     c7 <thread_run-0xffff39>
  62:	75 73                	jne    d7 <thread_run-0xffff29>
  64:	65                   	gs
  65:	5f                   	pop    %edi
  66:	73 74                	jae    dc <thread_run-0xffff24>
  68:	61                   	popa   
  69:	63 6b 5f             	arpl   %bp,0x5f(%ebx)
  6c:	74 00                	je     6e <thread_run-0xffff92>
  6e:	87 00                	xchg   %eax,(%eax)
  70:	00 00                	add    %al,(%eax)
  72:	74 68                	je     dc <thread_run-0xffff24>
  74:	72 65                	jb     db <thread_run-0xffff25>
  76:	61                   	popa   
  77:	64                   	fs
  78:	5f                   	pop    %edi
  79:	67 6c                	insb   (%dx),%es:(%di)
  7b:	62 6c 5f 73          	bound  %ebp,0x73(%edi,%ebx,2)
  7f:	00 ee                	add    %ch,%dh
  81:	00 00                	add    %al,(%eax)
  83:	00 74 68 72          	add    %dh,0x72(%eax,%ebp,2)
  87:	65                   	gs
  88:	61                   	popa   
  89:	64                   	fs
  8a:	5f                   	pop    %edi
  8b:	67 6c                	insb   (%dx),%es:(%di)
  8d:	62 6c 5f 74          	bound  %ebp,0x74(%edi,%ebx,2)
  91:	00 f9                	add    %bh,%cl
  93:	00 00                	add    %al,(%eax)
  95:	00 74 63 62          	add    %dh,0x62(%ebx,%eiz,2)
  99:	5f                   	pop    %edi
  9a:	73 00                	jae    9c <thread_run-0xffff64>
  9c:	4c                   	dec    %esp
  9d:	01 00                	add    %eax,(%eax)
  9f:	00 74 63 62          	add    %dh,0x62(%ebx,%eiz,2)
  a3:	5f                   	pop    %edi
  a4:	74 00                	je     a6 <thread_run-0xffff5a>
  a6:	00 00                	add    %al,(%eax)
  a8:	00 00                	add    %al,(%eax)
  aa:	19 00                	sbb    %eax,(%eax)
  ac:	00 00                	add    %al,(%eax)
  ae:	02 00                	add    (%eax),%al
  b0:	1f                   	pop    %ds
  b1:	08 00                	or     %al,(%eax)
  b3:	00 32                	add    %dh,(%edx)
  b5:	01 00                	add    %eax,(%eax)
  b7:	00 25 00 00 00 73    	add    %ah,0x73000000
  bd:	69 7a 65 5f 74 00 00 	imul   $0x745f,0x65(%edx),%edi
  c4:	00 00                	add    %al,(%eax)
  c6:	00 1a                	add    %bl,(%edx)
  c8:	00 00                	add    %al,(%eax)
  ca:	00 02                	add    %al,(%edx)
  cc:	00 51 09             	add    %dl,0x9(%ecx)
  cf:	00 00                	add    %al,(%eax)
  d1:	c8 01 00 00          	enter  $0x1,$0x0
  d5:	25 00 00 00 76       	and    $0x76000000,%eax
  da:	61                   	popa   
  db:	5f                   	pop    %edi
  dc:	6c                   	insb   (%dx),%es:(%edi)
  dd:	69 73 74 00 00 00 00 	imul   $0x0,0x74(%ebx),%esi
  e4:	00 2c 00             	add    %ch,(%eax,%eax,1)
  e7:	00 00                	add    %al,(%eax)
  e9:	02 00                	add    (%eax),%al
  eb:	a0 0b 00 00 49       	mov    0x4900000b,%al
  f0:	02 00                	add    (%eax),%al
  f2:	00 25 00 00 00 76    	add    %ah,0x76000000
  f8:	61                   	popa   
  f9:	5f                   	pop    %edi
  fa:	6c                   	insb   (%dx),%es:(%edi)
  fb:	69 73 74 00 41 00 00 	imul   $0x4100,0x74(%ebx),%esi
 102:	00 73 70             	add    %dh,0x70(%ebx)
 105:	72 69                	jb     170 <thread_run-0xfffe90>
 107:	6e                   	outsb  %ds:(%esi),(%dx)
 108:	74 66                	je     170 <thread_run-0xfffe90>
 10a:	5f                   	pop    %edi
 10b:	73 74                	jae    181 <thread_run-0xfffe7f>
 10d:	61                   	popa   
 10e:	74 65                	je     175 <thread_run-0xfffe8b>
 110:	00 00                	add    %al,(%eax)
 112:	00 00                	add    %al,(%eax)
 114:	00 28                	add    %ch,(%eax)
 116:	00 00                	add    %al,(%eax)
 118:	00 02                	add    %al,(%edx)
 11a:	00 e9                	add    %ch,%cl
 11c:	0d 00 00 ff 04       	or     $0x4ff0000,%eax
 121:	00 00                	add    %al,(%eax)
 123:	25 00 00 00 76       	and    $0x76000000,%eax
 128:	61                   	popa   
 129:	5f                   	pop    %edi
 12a:	6c                   	insb   (%dx),%es:(%edi)
 12b:	69 73 74 00 64 00 00 	imul   $0x6400,0x74(%ebx),%esi
 132:	00 62 6f             	add    %ah,0x6f(%edx)
 135:	6f                   	outsl  %ds:(%esi),(%dx)
 136:	6c                   	insb   (%dx),%es:(%edi)
 137:	65                   	gs
 138:	61                   	popa   
 139:	6e                   	outsb  %ds:(%esi),(%dx)
 13a:	5f                   	pop    %edi
 13b:	74 00                	je     13d <thread_run-0xfffec3>
 13d:	00 00                	add    %al,(%eax)
 13f:	00 00                	add    %al,(%eax)
 141:	0e                   	push   %cs
 142:	00 00                	add    %al,(%eax)
 144:	00 02                	add    %al,(%edx)
 146:	00 e8                	add    %ch,%al
 148:	12 00                	adc    (%eax),%al
 14a:	00 5c 00 00          	add    %bl,0x0(%eax,%eax,1)
 14e:	00 00                	add    %al,(%eax)
 150:	00 00                	add    %al,(%eax)
 152:	00 19                	add    %bl,(%ecx)
 154:	00 00                	add    %al,(%eax)
 156:	00 02                	add    %al,(%edx)
 158:	00 44 13 00          	add    %al,0x0(%ebx,%edx,1)
 15c:	00 aa 00 00 00 25    	add    %ch,0x25000000(%edx)
 162:	00 00                	add    %al,(%eax)
 164:	00 73 69             	add    %dh,0x69(%ebx)
 167:	7a 65                	jp     1ce <thread_run-0xfffe32>
 169:	5f                   	pop    %edi
 16a:	74 00                	je     16c <thread_run-0xfffe94>
 16c:	00 00                	add    %al,(%eax)
 16e:	00 00                	add    %al,(%eax)
 170:	19 00                	sbb    %eax,(%eax)
 172:	00 00                	add    %al,(%eax)
 174:	02 00                	add    (%eax),%al
 176:	62 14 00             	bound  %edx,(%eax,%eax,1)
 179:	00 29                	add    %ch,(%ecx)
 17b:	01 00                	add    %eax,(%eax)
 17d:	00 25 00 00 00 73    	add    %ah,0x73000000
 183:	69 7a 65 5f 74 00 00 	imul   $0x745f,0x65(%edx),%edi
 18a:	00 00                	add    %al,(%eax)
 18c:	00 0e                	add    %cl,(%esi)
 18e:	00 00                	add    %al,(%eax)
 190:	00 02                	add    %al,(%edx)
 192:	00 8b 15 00 00 b2    	add    %cl,-0x4dffffeb(%ebx)
 198:	03 00                	add    (%eax),%eax
 19a:	00 00                	add    %al,(%eax)
 19c:	00 00                	add    %al,(%eax)
 19e:	00 0e                	add    %cl,(%esi)
 1a0:	00 00                	add    %al,(%eax)
 1a2:	00 02                	add    %al,(%edx)
 1a4:	00 3d 19 00 00 13    	add    %bh,0x13000019
 1aa:	01 00                	add    %eax,(%eax)
 1ac:	00 00                	add    %al,(%eax)
 1ae:	00 00                	add    %al,(%eax)
 1b0:	00 38                	add    %bh,(%eax)
 1b2:	00 00                	add    %al,(%eax)
 1b4:	00 02                	add    %al,(%edx)
 1b6:	00 50 1a             	add    %dl,0x1a(%eax)
 1b9:	00 00                	add    %al,(%eax)
 1bb:	32 05 00 00 25 00    	xor    0x250000,%al
 1c1:	00 00                	add    %al,(%eax)
 1c3:	75 72                	jne    237 <thread_run-0xfffdc9>
 1c5:	65                   	gs
 1c6:	67 5f                	addr16 pop %edi
 1c8:	74 00                	je     1ca <thread_run-0xfffe36>
 1ca:	4b                   	dec    %ebx
 1cb:	01 00                	add    %eax,(%eax)
 1cd:	00 75 72             	add    %dh,0x72(%ebp)
 1d0:	65                   	gs
 1d1:	67 5f                	addr16 pop %edi
 1d3:	74 00                	je     1d5 <thread_run-0xfffe2b>
 1d5:	56                   	push   %esi
 1d6:	01 00                	add    %eax,(%eax)
 1d8:	00 73 77             	add    %dh,0x77(%ebx)
 1db:	65                   	gs
 1dc:	78 6e                	js     24c <thread_run-0xfffdb4>
 1de:	5f                   	pop    %edi
 1df:	68 61 6e 64 6c       	push   $0x6c646e61
 1e4:	65                   	gs
 1e5:	72 5f                	jb     246 <thread_run-0xfffdba>
 1e7:	74 00                	je     1e9 <thread_run-0xfffe17>
 1e9:	00 00                	add    %al,(%eax)
 1eb:	00 00                	add    %al,(%eax)
 1ed:	41                   	inc    %ecx
 1ee:	00 00                	add    %al,(%eax)
 1f0:	00 02                	add    %al,(%edx)
 1f2:	00 26                	add    %ah,(%esi)
 1f4:	22 00                	and    (%eax),%al
 1f6:	00 9e 03 00 00 25    	add    %bl,0x25000003(%esi)
 1fc:	00 00                	add    %al,(%eax)
 1fe:	00 75 5f             	add    %dh,0x5f(%ebp)
 201:	69 6e 74 00 37 00 00 	imul   $0x3700,0x74(%esi),%ebp
 208:	00 64 69 67          	add    %ah,0x67(%ecx,%ebp,2)
 20c:	69 74 00 42 00 00 00 	imul   $0x71000000,0x42(%eax,%eax,1),%esi
 213:	71 
 214:	75 61                	jne    277 <thread_run-0xfffd89>
 216:	64                   	fs
 217:	5f                   	pop    %edi
 218:	74 00                	je     21a <thread_run-0xfffde6>
 21a:	54                   	push   %esp
 21b:	00 00                	add    %al,(%eax)
 21d:	00 75 5f             	add    %dh,0x5f(%ebp)
 220:	71 75                	jno    297 <thread_run-0xfffd69>
 222:	61                   	popa   
 223:	64                   	fs
 224:	5f                   	pop    %edi
 225:	74 00                	je     227 <thread_run-0xfffdd9>
 227:	66                   	data16
 228:	00 00                	add    %al,(%eax)
 22a:	00 75 75             	add    %dh,0x75(%ebp)
 22d:	00 00                	add    %al,(%eax)
 22f:	00 00                	add    %al,(%eax)
	...

Disassembly of section .debug_ranges:

00000000 <.debug_ranges>:
   0:	b9 00 00 00 bf       	mov    $0xbf000000,%ecx
   5:	00 00                	add    %al,(%eax)
   7:	00 54 0c 00          	add    %dl,0x0(%esp,%ecx,1)
   b:	00 30                	add    %dh,(%eax)
   d:	0e                   	push   %cs
	...
  16:	00 00                	add    %al,(%eax)
  18:	57                   	push   %edi
  19:	04 00                	add    $0x0,%al
  1b:	00 16                	add    %dl,(%esi)
  1d:	09 00                	or     %eax,(%eax)
  1f:	00 75 0e             	add    %dh,0xe(%ebp)
  22:	00 00                	add    %al,(%eax)
  24:	ca 0e 00             	lret   $0xe
	...
  2f:	00 fa                	add    %bh,%dl
  31:	02 00                	add    (%eax),%al
  33:	00 05 03 00 00 0d    	add    %al,0xd000003
  39:	03 00                	add    (%eax),%eax
  3b:	00 1d 04 00 00 00    	add    %bl,0x4
  41:	00 00                	add    %al,(%eax)
  43:	00 00                	add    %al,(%eax)
  45:	00 00                	add    %al,(%eax)
	...
